
./target/riscv32ima-unknown-none-elf/release/hello_triangle:     file format elf32-littleriscv


Disassembly of section .text:

f8000000 <_start>:
f8000000:	00000093          	li	ra,0
f8000004:	00000113          	li	sp,0
f8000008:	00000193          	li	gp,0
f800000c:	00000213          	li	tp,0
f8000010:	00000293          	li	t0,0
f8000014:	00000313          	li	t1,0
f8000018:	00000393          	li	t2,0
f800001c:	00000413          	li	s0,0
f8000020:	00000493          	li	s1,0
f8000024:	00000513          	li	a0,0
f8000028:	00000593          	li	a1,0
f800002c:	00000613          	li	a2,0
f8000030:	00000693          	li	a3,0
f8000034:	00000713          	li	a4,0
f8000038:	00000793          	li	a5,0
f800003c:	00000813          	li	a6,0
f8000040:	00000893          	li	a7,0
f8000044:	00000913          	li	s2,0
f8000048:	00000993          	li	s3,0
f800004c:	00000a13          	li	s4,0
f8000050:	00000a93          	li	s5,0
f8000054:	00000b13          	li	s6,0
f8000058:	00000b93          	li	s7,0
f800005c:	00000c13          	li	s8,0
f8000060:	00000c93          	li	s9,0
f8000064:	00000d13          	li	s10,0
f8000068:	00000d93          	li	s11,0
f800006c:	00000e13          	li	t3,0
f8000070:	00000e93          	li	t4,0
f8000074:	00000f13          	li	t5,0
f8000078:	00000f93          	li	t6,0
f800007c:	000011b7          	lui	gp,0x1
f8000080:	80018193          	add	gp,gp,-2048 # 800 <__global_pointer>
f8000084:	08000137          	lui	sp,0x8000
f8000088:	00010113          	mv	sp,sp
f800008c:	00c000ef          	jal	f8000098 <main>

f8000090 <wfi_loop>:
f8000090:	10500073          	wfi
f8000094:	ffdff06f          	j	f8000090 <wfi_loop>

f8000098 <main>:
f8000098:	b1010113          	add	sp,sp,-1264 # 7fffb10 <__global_pointer+0x7fff310>
f800009c:	4e112623          	sw	ra,1260(sp)
f80000a0:	4e812423          	sw	s0,1256(sp)
f80000a4:	4e912223          	sw	s1,1252(sp)
f80000a8:	4f212023          	sw	s2,1248(sp)
f80000ac:	4d312e23          	sw	s3,1244(sp)
f80000b0:	4d412c23          	sw	s4,1240(sp)
f80000b4:	4d512a23          	sw	s5,1236(sp)
f80000b8:	4d612823          	sw	s6,1232(sp)
f80000bc:	4d712623          	sw	s7,1228(sp)
f80000c0:	4d812423          	sw	s8,1224(sp)
f80000c4:	4d912223          	sw	s9,1220(sp)
f80000c8:	4da12023          	sw	s10,1216(sp)
f80000cc:	4bb12e23          	sw	s11,1212(sp)
f80000d0:	06410513          	add	a0,sp,100
f80000d4:	40000613          	li	a2,1024
f80000d8:	00000593          	li	a1,0
f80000dc:	00003097          	auipc	ra,0x3
f80000e0:	634080e7          	jalr	1588(ra) # f8003710 <memset>
f80000e4:	00000413          	li	s0,0
f80000e8:	46012223          	sw	zero,1124(sp)
f80000ec:	46012423          	sw	zero,1128(sp)
f80000f0:	3f000537          	lui	a0,0x3f000
f80000f4:	46a12623          	sw	a0,1132(sp)
f80000f8:	3f800537          	lui	a0,0x3f800
f80000fc:	46a12823          	sw	a0,1136(sp)
f8000100:	46a12a23          	sw	a0,1140(sp)
f8000104:	46012c23          	sw	zero,1144(sp)
f8000108:	46012e23          	sw	zero,1148(sp)
f800010c:	48012023          	sw	zero,1152(sp)
f8000110:	48012223          	sw	zero,1156(sp)
f8000114:	48a12423          	sw	a0,1160(sp)
f8000118:	48c10a13          	add	s4,sp,1164
f800011c:	48012623          	sw	zero,1164(sp)
f8000120:	48012823          	sw	zero,1168(sp)
f8000124:	48012a23          	sw	zero,1172(sp)
f8000128:	48012c23          	sw	zero,1176(sp)
f800012c:	48a12e23          	sw	a0,1180(sp)
f8000130:	4a010a93          	add	s5,sp,1184
f8000134:	4a012023          	sw	zero,1184(sp)
f8000138:	4a012223          	sw	zero,1188(sp)
f800013c:	4a012423          	sw	zero,1192(sp)
f8000140:	4a012623          	sw	zero,1196(sp)
f8000144:	4aa12823          	sw	a0,1200(sp)
f8000148:	4a012a23          	sw	zero,1204(sp)
f800014c:	4a012c23          	sw	zero,1208(sp)
f8000150:	f8004537          	lui	a0,0xf8004
f8000154:	6ac50513          	add	a0,a0,1708 # f80046ac <.Lanon.fad58de7366495db4650cfefac2fcd61.0>
f8000158:	00855593          	srl	a1,a0,0x8
f800015c:	04b12e23          	sw	a1,92(sp)
f8000160:	01055593          	srl	a1,a0,0x10
f8000164:	04b12c23          	sw	a1,88(sp)
f8000168:	06a12023          	sw	a0,96(sp)
f800016c:	01855513          	srl	a0,a0,0x18
f8000170:	04a12a23          	sw	a0,84(sp)
f8000174:	46410513          	add	a0,sp,1124
f8000178:	00855593          	srl	a1,a0,0x8
f800017c:	04b12823          	sw	a1,80(sp)
f8000180:	01055593          	srl	a1,a0,0x10
f8000184:	04b12623          	sw	a1,76(sp)
f8000188:	01855513          	srl	a0,a0,0x18
f800018c:	04a12423          	sw	a0,72(sp)
f8000190:	f8004537          	lui	a0,0xf8004
f8000194:	6f450513          	add	a0,a0,1780 # f80046f4 <.Lanon.fad58de7366495db4650cfefac2fcd61.1>
f8000198:	00855593          	srl	a1,a0,0x8
f800019c:	04b12023          	sw	a1,64(sp)
f80001a0:	01055593          	srl	a1,a0,0x10
f80001a4:	02b12e23          	sw	a1,60(sp)
f80001a8:	04a12223          	sw	a0,68(sp)
f80001ac:	01855513          	srl	a0,a0,0x18
f80001b0:	02a12c23          	sw	a0,56(sp)
f80001b4:	f8004537          	lui	a0,0xf8004
f80001b8:	71250513          	add	a0,a0,1810 # f8004712 <.Lanon.fad58de7366495db4650cfefac2fcd61.2>
f80001bc:	00855593          	srl	a1,a0,0x8
f80001c0:	02b12823          	sw	a1,48(sp)
f80001c4:	01055593          	srl	a1,a0,0x10
f80001c8:	02b12623          	sw	a1,44(sp)
f80001cc:	02a12a23          	sw	a0,52(sp)
f80001d0:	01855513          	srl	a0,a0,0x18
f80001d4:	02a12423          	sw	a0,40(sp)
f80001d8:	f8004537          	lui	a0,0xf8004
f80001dc:	7b850593          	add	a1,a0,1976 # f80047b8 <.Lanon.fad58de7366495db4650cfefac2fcd61.12>
f80001e0:	0085d513          	srl	a0,a1,0x8
f80001e4:	02a12223          	sw	a0,36(sp)
f80001e8:	0105d513          	srl	a0,a1,0x10
f80001ec:	02a12023          	sw	a0,32(sp)
f80001f0:	3c23d537          	lui	a0,0x3c23d
f80001f4:	70a50513          	add	a0,a0,1802 # 3c23d70a <__stack_ptr+0x3423d70a>
f80001f8:	00a12e23          	sw	a0,28(sp)
f80001fc:	0f000537          	lui	a0,0xf000
f8000200:	00350513          	add	a0,a0,3 # f000003 <__stack_ptr+0x7000003>
f8000204:	00a12c23          	sw	a0,24(sp)
f8000208:	001e0537          	lui	a0,0x1e0
f800020c:	00c50513          	add	a0,a0,12 # 1e000c <__global_pointer+0x1df80c>
f8000210:	00a12a23          	sw	a0,20(sp)
f8000214:	00270537          	lui	a0,0x270
f8000218:	00c50513          	add	a0,a0,12 # 27000c <__global_pointer+0x26f80c>
f800021c:	00a12823          	sw	a0,16(sp)
f8000220:	03000937          	lui	s2,0x3000
f8000224:	00290913          	add	s2,s2,2 # 3000002 <__global_pointer+0x2fff802>
f8000228:	01212623          	sw	s2,12(sp)
f800022c:	00058913          	mv	s2,a1
f8000230:	0185dd13          	srl	s10,a1,0x18
f8000234:	0c410993          	add	s3,sp,196
f8000238:	0dd10b13          	add	s6,sp,221
f800023c:	4b810493          	add	s1,sp,1208
f8000240:	0084db93          	srl	s7,s1,0x8
f8000244:	0104dc13          	srl	s8,s1,0x10
f8000248:	0184d493          	srl	s1,s1,0x18
f800024c:	01000cb7          	lui	s9,0x1000
f8000250:	02000db7          	lui	s11,0x2000
f8000254:	00040513          	mv	a0,s0
f8000258:	01c12583          	lw	a1,28(sp)
f800025c:	00003097          	auipc	ra,0x3
f8000260:	63c080e7          	jalr	1596(ra) # f8003898 <__addsf3>
f8000264:	00050413          	mv	s0,a0
f8000268:	00000097          	auipc	ra,0x0
f800026c:	20c080e7          	jalr	524(ra) # f8000474 <_ZN4libm4math7sincosf7sincosf17h51ce73397ba5a616E>
f8000270:	46a12c23          	sw	a0,1144(sp)
f8000274:	80000637          	lui	a2,0x80000
f8000278:	00c54533          	xor	a0,a0,a2
f800027c:	48a12223          	sw	a0,1156(sp)
f8000280:	46b12a23          	sw	a1,1140(sp)
f8000284:	46012e23          	sw	zero,1148(sp)
f8000288:	48012023          	sw	zero,1152(sp)
f800028c:	48b12423          	sw	a1,1160(sp)
f8000290:	000a2023          	sw	zero,0(s4)
f8000294:	000a2223          	sw	zero,4(s4)
f8000298:	000a2423          	sw	zero,8(s4)
f800029c:	000a2623          	sw	zero,12(s4)
f80002a0:	3f800537          	lui	a0,0x3f800
f80002a4:	48a12e23          	sw	a0,1180(sp)
f80002a8:	000aa023          	sw	zero,0(s5)
f80002ac:	000aa223          	sw	zero,4(s5)
f80002b0:	000aa423          	sw	zero,8(s5)
f80002b4:	000aa623          	sw	zero,12(s5)
f80002b8:	4aa12823          	sw	a0,1200(sp)
f80002bc:	4a012c23          	sw	zero,1208(sp)
f80002c0:	007c8513          	add	a0,s9,7 # 1000007 <__global_pointer+0xfff807>
f80002c4:	08a12023          	sw	a0,128(sp)
f80002c8:	008c8513          	add	a0,s9,8
f80002cc:	08a12423          	sw	a0,136(sp)
f80002d0:	005d8513          	add	a0,s11,5 # 2000005 <__global_pointer+0x1fff805>
f80002d4:	08a12823          	sw	a0,144(sp)
f80002d8:	180d8513          	add	a0,s11,384
f80002dc:	08a12a23          	sw	a0,148(sp)
f80002e0:	00fc8513          	add	a0,s9,15
f80002e4:	0ca12a23          	sw	a0,212(sp)
f80002e8:	01812503          	lw	a0,24(sp)
f80002ec:	06a12623          	sw	a0,108(sp)
f80002f0:	00700513          	li	a0,7
f80002f4:	06a12823          	sw	a0,112(sp)
f80002f8:	04800513          	li	a0,72
f80002fc:	06a12a23          	sw	a0,116(sp)
f8000300:	00800513          	li	a0,8
f8000304:	06a12c23          	sw	a0,120(sp)
f8000308:	06012503          	lw	a0,96(sp)
f800030c:	06a10e23          	sb	a0,124(sp)
f8000310:	05c12503          	lw	a0,92(sp)
f8000314:	06a10ea3          	sb	a0,125(sp)
f8000318:	05812503          	lw	a0,88(sp)
f800031c:	06a10f23          	sb	a0,126(sp)
f8000320:	05412503          	lw	a0,84(sp)
f8000324:	06a10fa3          	sb	a0,127(sp)
f8000328:	05000513          	li	a0,80
f800032c:	08a12223          	sw	a0,132(sp)
f8000330:	46410513          	add	a0,sp,1124
f8000334:	08a10623          	sb	a0,140(sp)
f8000338:	05012503          	lw	a0,80(sp)
f800033c:	08a106a3          	sb	a0,141(sp)
f8000340:	04c12503          	lw	a0,76(sp)
f8000344:	08a10723          	sb	a0,142(sp)
f8000348:	04812503          	lw	a0,72(sp)
f800034c:	08a107a3          	sb	a0,143(sp)
f8000350:	08012c23          	sw	zero,152(sp)
f8000354:	01412503          	lw	a0,20(sp)
f8000358:	08a12e23          	sw	a0,156(sp)
f800035c:	04412503          	lw	a0,68(sp)
f8000360:	0aa10023          	sb	a0,160(sp)
f8000364:	04012503          	lw	a0,64(sp)
f8000368:	0aa100a3          	sb	a0,161(sp)
f800036c:	03c12503          	lw	a0,60(sp)
f8000370:	0aa10123          	sb	a0,162(sp)
f8000374:	03812503          	lw	a0,56(sp)
f8000378:	0aa101a3          	sb	a0,163(sp)
f800037c:	0a012223          	sw	zero,164(sp)
f8000380:	01012503          	lw	a0,16(sp)
f8000384:	0aa12423          	sw	a0,168(sp)
f8000388:	03412503          	lw	a0,52(sp)
f800038c:	0aa10623          	sb	a0,172(sp)
f8000390:	03012503          	lw	a0,48(sp)
f8000394:	0aa106a3          	sb	a0,173(sp)
f8000398:	02c12503          	lw	a0,44(sp)
f800039c:	0aa10723          	sb	a0,174(sp)
f80003a0:	02812503          	lw	a0,40(sp)
f80003a4:	0aa107a3          	sb	a0,175(sp)
f80003a8:	01010537          	lui	a0,0x1010
f80003ac:	0aa12823          	sw	a0,176(sp)
f80003b0:	00d00513          	li	a0,13
f80003b4:	0aa12a23          	sw	a0,180(sp)
f80003b8:	0b210c23          	sb	s2,184(sp)
f80003bc:	02412503          	lw	a0,36(sp)
f80003c0:	0aa10ca3          	sb	a0,185(sp)
f80003c4:	02012503          	lw	a0,32(sp)
f80003c8:	0aa10d23          	sb	a0,186(sp)
f80003cc:	0ba10da3          	sb	s10,187(sp)
f80003d0:	00c12503          	lw	a0,12(sp)
f80003d4:	0aa12e23          	sw	a0,188(sp)
f80003d8:	ff000537          	lui	a0,0xff000
f80003dc:	0ca12023          	sw	a0,192(sp)
f80003e0:	0009a623          	sw	zero,12(s3)
f80003e4:	0009a423          	sw	zero,8(s3)
f80003e8:	0009a223          	sw	zero,4(s3)
f80003ec:	0009a023          	sw	zero,0(s3)
f80003f0:	0c012c23          	sw	zero,216(sp)
f80003f4:	00300513          	li	a0,3
f80003f8:	0ca10e23          	sb	a0,220(sp)
f80003fc:	000b02a3          	sb	zero,5(s6)
f8000400:	000b0223          	sb	zero,4(s6)
f8000404:	000b01a3          	sb	zero,3(s6)
f8000408:	000b0123          	sb	zero,2(s6)
f800040c:	000b00a3          	sb	zero,1(s6)
f8000410:	000b0023          	sb	zero,0(s6)
f8000414:	00200513          	li	a0,2
f8000418:	0ea101a3          	sb	a0,227(sp)
f800041c:	01800537          	lui	a0,0x1800
f8000420:	0ea12223          	sw	a0,228(sp)
f8000424:	00100513          	li	a0,1
f8000428:	0ea12423          	sw	a0,232(sp)
f800042c:	4b810513          	add	a0,sp,1208
f8000430:	0ea10623          	sb	a0,236(sp)
f8000434:	0f7106a3          	sb	s7,237(sp)
f8000438:	0f810723          	sb	s8,238(sp)
f800043c:	0e9107a3          	sb	s1,239(sp)
f8000440:	08400513          	li	a0,132
f8000444:	06a12223          	sw	a0,100(sp)
f8000448:	4a012a23          	sw	zero,1204(sp)
f800044c:	4b410513          	add	a0,sp,1204
f8000450:	06a12423          	sw	a0,104(sp)
f8000454:	06410513          	add	a0,sp,100
f8000458:	800105b7          	lui	a1,0x80010
f800045c:	00a5a023          	sw	a0,0(a1) # 80010000 <__stack_ptr+0x78010000>
f8000460:	4b412503          	lw	a0,1204(sp)
f8000464:	fe050ee3          	beqz	a0,f8000460 <main+0x3c8>
f8000468:	4b812503          	lw	a0,1208(sp)
f800046c:	fe050ee3          	beqz	a0,f8000468 <main+0x3d0>
f8000470:	de5ff06f          	j	f8000254 <main+0x1bc>

f8000474 <_ZN4libm4math7sincosf7sincosf17h51ce73397ba5a616E>:
f8000474:	fb010113          	add	sp,sp,-80
f8000478:	04112623          	sw	ra,76(sp)
f800047c:	04812423          	sw	s0,72(sp)
f8000480:	04912223          	sw	s1,68(sp)
f8000484:	05212023          	sw	s2,64(sp)
f8000488:	03312e23          	sw	s3,60(sp)
f800048c:	03412c23          	sw	s4,56(sp)
f8000490:	03512a23          	sw	s5,52(sp)
f8000494:	03612823          	sw	s6,48(sp)
f8000498:	03712623          	sw	s7,44(sp)
f800049c:	03812423          	sw	s8,40(sp)
f80004a0:	03912223          	sw	s9,36(sp)
f80004a4:	03a12023          	sw	s10,32(sp)
f80004a8:	00151593          	sll	a1,a0,0x1
f80004ac:	0015d593          	srl	a1,a1,0x1
f80004b0:	3f491637          	lui	a2,0x3f491
f80004b4:	fdb60613          	add	a2,a2,-37 # 3f490fdb <__stack_ptr+0x37490fdb>
f80004b8:	02c5f663          	bgeu	a1,a2,f80004e4 <_ZN4libm4math7sincosf7sincosf17h51ce73397ba5a616E+0x70>
f80004bc:	0175d613          	srl	a2,a1,0x17
f80004c0:	07300693          	li	a3,115
f80004c4:	52d676e3          	bgeu	a2,a3,f80011f0 <_ZN4libm4math7sincosf7sincosf17h51ce73397ba5a616E+0xd7c>
f80004c8:	0145d593          	srl	a1,a1,0x14
f80004cc:	2c059663          	bnez	a1,f8000798 <_ZN4libm4math7sincosf7sincosf17h51ce73397ba5a616E+0x324>
f80004d0:	038005b7          	lui	a1,0x3800
f80004d4:	00050413          	mv	s0,a0
f80004d8:	00003097          	auipc	ra,0x3
f80004dc:	2fc080e7          	jalr	764(ra) # f80037d4 <__mulsf3>
f80004e0:	2c80006f          	j	f80007a8 <_ZN4libm4math7sincosf7sincosf17h51ce73397ba5a616E+0x334>
f80004e4:	407b5637          	lui	a2,0x407b5
f80004e8:	3d260613          	add	a2,a2,978 # 407b53d2 <__stack_ptr+0x387b53d2>
f80004ec:	28c5f263          	bgeu	a1,a2,f8000770 <_ZN4libm4math7sincosf7sincosf17h51ce73397ba5a616E+0x2fc>
f80004f0:	4016d637          	lui	a2,0x4016d
f80004f4:	be460613          	add	a2,a2,-1052 # 4016cbe4 <__stack_ptr+0x3816cbe4>
f80004f8:	2cc5f463          	bgeu	a1,a2,f80007c0 <_ZN4libm4math7sincosf7sincosf17h51ce73397ba5a616E+0x34c>
f80004fc:	3fc915b7          	lui	a1,0x3fc91
f8000500:	56054e63          	bltz	a0,f8000a7c <_ZN4libm4math7sincosf7sincosf17h51ce73397ba5a616E+0x608>
f8000504:	fdb58613          	add	a2,a1,-37 # 3fc90fdb <__stack_ptr+0x37c90fdb>
f8000508:	00050593          	mv	a1,a0
f800050c:	00060513          	mv	a0,a2
f8000510:	00003097          	auipc	ra,0x3
f8000514:	110080e7          	jalr	272(ra) # f8003620 <__subsf3>
f8000518:	00002097          	auipc	ra,0x2
f800051c:	750080e7          	jalr	1872(ra) # f8002c68 <__extendsfdf2>
f8000520:	00050413          	mv	s0,a0
f8000524:	00058493          	mv	s1,a1
f8000528:	00050613          	mv	a2,a0
f800052c:	00058693          	mv	a3,a1
f8000530:	00004097          	auipc	ra,0x4
f8000534:	174080e7          	jalr	372(ra) # f80046a4 <__muldf3>
f8000538:	00050a13          	mv	s4,a0
f800053c:	00058a93          	mv	s5,a1
f8000540:	00050613          	mv	a2,a0
f8000544:	00058693          	mv	a3,a1
f8000548:	00004097          	auipc	ra,0x4
f800054c:	15c080e7          	jalr	348(ra) # f80046a4 <__muldf3>
f8000550:	00050913          	mv	s2,a0
f8000554:	00058993          	mv	s3,a1
f8000558:	e0ee5537          	lui	a0,0xe0ee5
f800055c:	06950613          	add	a2,a0,105 # e0ee5069 <__stack_ptr+0xd8ee5069>
f8000560:	3ef99537          	lui	a0,0x3ef99
f8000564:	34250693          	add	a3,a0,834 # 3ef99342 <__stack_ptr+0x36f99342>
f8000568:	000a0513          	mv	a0,s4
f800056c:	000a8593          	mv	a1,s5
f8000570:	00004097          	auipc	ra,0x4
f8000574:	134080e7          	jalr	308(ra) # f80046a4 <__muldf3>
f8000578:	e80f2637          	lui	a2,0xe80f2
f800057c:	e2760613          	add	a2,a2,-473 # e80f1e27 <__stack_ptr+0xe00f1e27>
f8000580:	bf56c6b7          	lui	a3,0xbf56c
f8000584:	08768693          	add	a3,a3,135 # bf56c087 <__stack_ptr+0xb756c087>
f8000588:	00003097          	auipc	ra,0x3
f800058c:	0a8080e7          	jalr	168(ra) # f8003630 <__adddf3>
f8000590:	00050b13          	mv	s6,a0
f8000594:	00058b93          	mv	s7,a1
f8000598:	fd0c6537          	lui	a0,0xfd0c6
f800059c:	e8150613          	add	a2,a0,-383 # fd0c5e81 <_etext+0x50c1561>
f80005a0:	bfe006b7          	lui	a3,0xbfe00
f80005a4:	fff68693          	add	a3,a3,-1 # bfdfffff <__stack_ptr+0xb7dfffff>
f80005a8:	000a0513          	mv	a0,s4
f80005ac:	000a8593          	mv	a1,s5
f80005b0:	00004097          	auipc	ra,0x4
f80005b4:	0f4080e7          	jalr	244(ra) # f80046a4 <__muldf3>
f80005b8:	3ff006b7          	lui	a3,0x3ff00
f80005bc:	00000613          	li	a2,0
f80005c0:	00003097          	auipc	ra,0x3
f80005c4:	070080e7          	jalr	112(ra) # f8003630 <__adddf3>
f80005c8:	00050c13          	mv	s8,a0
f80005cc:	00058c93          	mv	s9,a1
f80005d0:	e1054537          	lui	a0,0xe1054
f80005d4:	a4250613          	add	a2,a0,-1470 # e1053a42 <__stack_ptr+0xd9053a42>
f80005d8:	3fa55537          	lui	a0,0x3fa55
f80005dc:	55350693          	add	a3,a0,1363 # 3fa55553 <__stack_ptr+0x37a55553>
f80005e0:	00090513          	mv	a0,s2
f80005e4:	00098593          	mv	a1,s3
f80005e8:	00004097          	auipc	ra,0x4
f80005ec:	0bc080e7          	jalr	188(ra) # f80046a4 <__muldf3>
f80005f0:	00050613          	mv	a2,a0
f80005f4:	00058693          	mv	a3,a1
f80005f8:	000c0513          	mv	a0,s8
f80005fc:	000c8593          	mv	a1,s9
f8000600:	00003097          	auipc	ra,0x3
f8000604:	030080e7          	jalr	48(ra) # f8003630 <__adddf3>
f8000608:	00050c13          	mv	s8,a0
f800060c:	00058c93          	mv	s9,a1
f8000610:	000a0513          	mv	a0,s4
f8000614:	000a8593          	mv	a1,s5
f8000618:	00090613          	mv	a2,s2
f800061c:	00098693          	mv	a3,s3
f8000620:	00004097          	auipc	ra,0x4
f8000624:	084080e7          	jalr	132(ra) # f80046a4 <__muldf3>
f8000628:	000b0613          	mv	a2,s6
f800062c:	000b8693          	mv	a3,s7
f8000630:	00004097          	auipc	ra,0x4
f8000634:	074080e7          	jalr	116(ra) # f80046a4 <__muldf3>
f8000638:	00050613          	mv	a2,a0
f800063c:	00058693          	mv	a3,a1
f8000640:	000c0513          	mv	a0,s8
f8000644:	000c8593          	mv	a1,s9
f8000648:	00003097          	auipc	ra,0x3
f800064c:	fe8080e7          	jalr	-24(ra) # f8003630 <__adddf3>
f8000650:	00003097          	auipc	ra,0x3
f8000654:	318080e7          	jalr	792(ra) # f8003968 <__truncdfsf2>
f8000658:	00050b13          	mv	s6,a0
f800065c:	8c3b4537          	lui	a0,0x8c3b4
f8000660:	6a750613          	add	a2,a0,1703 # 8c3b46a7 <__stack_ptr+0x843b46a7>
f8000664:	3ec6d537          	lui	a0,0x3ec6d
f8000668:	d8750693          	add	a3,a0,-633 # 3ec6cd87 <__stack_ptr+0x36c6cd87>
f800066c:	000a0513          	mv	a0,s4
f8000670:	000a8593          	mv	a1,s5
f8000674:	00004097          	auipc	ra,0x4
f8000678:	030080e7          	jalr	48(ra) # f80046a4 <__muldf3>
f800067c:	e2cae637          	lui	a2,0xe2cae
f8000680:	77460613          	add	a2,a2,1908 # e2cae774 <__stack_ptr+0xdacae774>
f8000684:	bf2a06b7          	lui	a3,0xbf2a0
f8000688:	0f968693          	add	a3,a3,249 # bf2a00f9 <__stack_ptr+0xb72a00f9>
f800068c:	00003097          	auipc	ra,0x3
f8000690:	fa4080e7          	jalr	-92(ra) # f8003630 <__adddf3>
f8000694:	00050b93          	mv	s7,a0
f8000698:	00058c13          	mv	s8,a1
f800069c:	000a0513          	mv	a0,s4
f80006a0:	000a8593          	mv	a1,s5
f80006a4:	00040613          	mv	a2,s0
f80006a8:	00048693          	mv	a3,s1
f80006ac:	00004097          	auipc	ra,0x4
f80006b0:	ff8080e7          	jalr	-8(ra) # f80046a4 <__muldf3>
f80006b4:	00050c93          	mv	s9,a0
f80006b8:	00058d13          	mv	s10,a1
f80006bc:	896f0537          	lui	a0,0x896f0
f80006c0:	bb250613          	add	a2,a0,-1102 # 896efbb2 <__stack_ptr+0x816efbb2>
f80006c4:	3f811537          	lui	a0,0x3f811
f80006c8:	11050693          	add	a3,a0,272 # 3f811110 <__stack_ptr+0x37811110>
f80006cc:	000a0513          	mv	a0,s4
f80006d0:	000a8593          	mv	a1,s5
f80006d4:	00004097          	auipc	ra,0x4
f80006d8:	fd0080e7          	jalr	-48(ra) # f80046a4 <__muldf3>
f80006dc:	54cbb637          	lui	a2,0x54cbb
f80006e0:	c7760613          	add	a2,a2,-905 # 54cbac77 <__stack_ptr+0x4ccbac77>
f80006e4:	bfc556b7          	lui	a3,0xbfc55
f80006e8:	55568693          	add	a3,a3,1365 # bfc55555 <__stack_ptr+0xb7c55555>
f80006ec:	00003097          	auipc	ra,0x3
f80006f0:	f44080e7          	jalr	-188(ra) # f8003630 <__adddf3>
f80006f4:	00050613          	mv	a2,a0
f80006f8:	00058693          	mv	a3,a1
f80006fc:	000c8513          	mv	a0,s9
f8000700:	000d0593          	mv	a1,s10
f8000704:	00004097          	auipc	ra,0x4
f8000708:	fa0080e7          	jalr	-96(ra) # f80046a4 <__muldf3>
f800070c:	00040613          	mv	a2,s0
f8000710:	00048693          	mv	a3,s1
f8000714:	00003097          	auipc	ra,0x3
f8000718:	f1c080e7          	jalr	-228(ra) # f8003630 <__adddf3>
f800071c:	00050413          	mv	s0,a0
f8000720:	00058493          	mv	s1,a1
f8000724:	000c8513          	mv	a0,s9
f8000728:	000d0593          	mv	a1,s10
f800072c:	00090613          	mv	a2,s2
f8000730:	00098693          	mv	a3,s3
f8000734:	00004097          	auipc	ra,0x4
f8000738:	f70080e7          	jalr	-144(ra) # f80046a4 <__muldf3>
f800073c:	000b8613          	mv	a2,s7
f8000740:	000c0693          	mv	a3,s8
f8000744:	00004097          	auipc	ra,0x4
f8000748:	f60080e7          	jalr	-160(ra) # f80046a4 <__muldf3>
f800074c:	00040613          	mv	a2,s0
f8000750:	00048693          	mv	a3,s1
f8000754:	00003097          	auipc	ra,0x3
f8000758:	edc080e7          	jalr	-292(ra) # f8003630 <__adddf3>
f800075c:	00003097          	auipc	ra,0x3
f8000760:	20c080e7          	jalr	524(ra) # f8003968 <__truncdfsf2>
f8000764:	00050593          	mv	a1,a0
f8000768:	000b0513          	mv	a0,s6
f800076c:	4d90006f          	j	f8001444 <_ZN4libm4math7sincosf7sincosf17h51ce73397ba5a616E+0xfd0>
f8000770:	40e23637          	lui	a2,0x40e23
f8000774:	1d660613          	add	a2,a2,470 # 40e231d6 <__stack_ptr+0x38e231d6>
f8000778:	04c5fa63          	bgeu	a1,a2,f80007cc <_ZN4libm4math7sincosf7sincosf17h51ce73397ba5a616E+0x358>
f800077c:	40aff637          	lui	a2,0x40aff
f8000780:	de060613          	add	a2,a2,-544 # 40afede0 <__stack_ptr+0x38afede0>
f8000784:	06c5f463          	bgeu	a1,a2,f80007ec <_ZN4libm4math7sincosf7sincosf17h51ce73397ba5a616E+0x378>
f8000788:	7e054463          	bltz	a0,f8000f70 <_ZN4libm4math7sincosf7sincosf17h51ce73397ba5a616E+0xafc>
f800078c:	c096d5b7          	lui	a1,0xc096d
f8000790:	be458593          	add	a1,a1,-1052 # c096cbe4 <__stack_ptr+0xb896cbe4>
f8000794:	2ec0006f          	j	f8000a80 <_ZN4libm4math7sincosf7sincosf17h51ce73397ba5a616E+0x60c>
f8000798:	7b8005b7          	lui	a1,0x7b800
f800079c:	00050413          	mv	s0,a0
f80007a0:	00003097          	auipc	ra,0x3
f80007a4:	0f8080e7          	jalr	248(ra) # f8003898 <__addsf3>
f80007a8:	00050593          	mv	a1,a0
f80007ac:	00040513          	mv	a0,s0
f80007b0:	00b12e23          	sw	a1,28(sp)
f80007b4:	01c12003          	lw	zero,28(sp)
f80007b8:	3f8005b7          	lui	a1,0x3f800
f80007bc:	4890006f          	j	f8001444 <_ZN4libm4math7sincosf7sincosf17h51ce73397ba5a616E+0xfd0>
f80007c0:	52054263          	bltz	a0,f8000ce4 <_ZN4libm4math7sincosf7sincosf17h51ce73397ba5a616E+0x870>
f80007c4:	c04915b7          	lui	a1,0xc0491
f80007c8:	5200006f          	j	f8000ce8 <_ZN4libm4math7sincosf7sincosf17h51ce73397ba5a616E+0x874>
f80007cc:	0175d593          	srl	a1,a1,0x17
f80007d0:	0fe00613          	li	a2,254
f80007d4:	02b67263          	bgeu	a2,a1,f80007f8 <_ZN4libm4math7sincosf7sincosf17h51ce73397ba5a616E+0x384>
f80007d8:	00050593          	mv	a1,a0
f80007dc:	00003097          	auipc	ra,0x3
f80007e0:	e44080e7          	jalr	-444(ra) # f8003620 <__subsf3>
f80007e4:	00050593          	mv	a1,a0
f80007e8:	45d0006f          	j	f8001444 <_ZN4libm4math7sincosf7sincosf17h51ce73397ba5a616E+0xfd0>
f80007ec:	1e054ae3          	bltz	a0,f80011e0 <_ZN4libm4math7sincosf7sincosf17h51ce73397ba5a616E+0xd6c>
f80007f0:	c0c915b7          	lui	a1,0xc0c91
f80007f4:	1f10006f          	j	f80011e4 <_ZN4libm4math7sincosf7sincosf17h51ce73397ba5a616E+0xd70>
f80007f8:	00050593          	mv	a1,a0
f80007fc:	00810513          	add	a0,sp,8
f8000800:	00001097          	auipc	ra,0x1
f8000804:	c8c080e7          	jalr	-884(ra) # f800148c <_ZN4libm4math9rem_pio2f9rem_pio2f17hff37da6498109913E>
f8000808:	00812d03          	lw	s10,8(sp)
f800080c:	01012a03          	lw	s4,16(sp)
f8000810:	01412a83          	lw	s5,20(sp)
f8000814:	000a0513          	mv	a0,s4
f8000818:	000a8593          	mv	a1,s5
f800081c:	000a0613          	mv	a2,s4
f8000820:	000a8693          	mv	a3,s5
f8000824:	00004097          	auipc	ra,0x4
f8000828:	e80080e7          	jalr	-384(ra) # f80046a4 <__muldf3>
f800082c:	00050413          	mv	s0,a0
f8000830:	00058493          	mv	s1,a1
f8000834:	00050613          	mv	a2,a0
f8000838:	00058693          	mv	a3,a1
f800083c:	00004097          	auipc	ra,0x4
f8000840:	e68080e7          	jalr	-408(ra) # f80046a4 <__muldf3>
f8000844:	00050913          	mv	s2,a0
f8000848:	00058993          	mv	s3,a1
f800084c:	8c3b4537          	lui	a0,0x8c3b4
f8000850:	6a750613          	add	a2,a0,1703 # 8c3b46a7 <__stack_ptr+0x843b46a7>
f8000854:	3ec6d537          	lui	a0,0x3ec6d
f8000858:	d8750693          	add	a3,a0,-633 # 3ec6cd87 <__stack_ptr+0x36c6cd87>
f800085c:	00040513          	mv	a0,s0
f8000860:	00048593          	mv	a1,s1
f8000864:	00004097          	auipc	ra,0x4
f8000868:	e40080e7          	jalr	-448(ra) # f80046a4 <__muldf3>
f800086c:	e2cae637          	lui	a2,0xe2cae
f8000870:	77460613          	add	a2,a2,1908 # e2cae774 <__stack_ptr+0xdacae774>
f8000874:	bf2a06b7          	lui	a3,0xbf2a0
f8000878:	0f968693          	add	a3,a3,249 # bf2a00f9 <__stack_ptr+0xb72a00f9>
f800087c:	00003097          	auipc	ra,0x3
f8000880:	db4080e7          	jalr	-588(ra) # f8003630 <__adddf3>
f8000884:	00050b13          	mv	s6,a0
f8000888:	00058b93          	mv	s7,a1
f800088c:	000a0513          	mv	a0,s4
f8000890:	000a8593          	mv	a1,s5
f8000894:	00040613          	mv	a2,s0
f8000898:	00048693          	mv	a3,s1
f800089c:	00004097          	auipc	ra,0x4
f80008a0:	e08080e7          	jalr	-504(ra) # f80046a4 <__muldf3>
f80008a4:	00050c13          	mv	s8,a0
f80008a8:	00058c93          	mv	s9,a1
f80008ac:	896f0537          	lui	a0,0x896f0
f80008b0:	bb250613          	add	a2,a0,-1102 # 896efbb2 <__stack_ptr+0x816efbb2>
f80008b4:	3f811537          	lui	a0,0x3f811
f80008b8:	11050693          	add	a3,a0,272 # 3f811110 <__stack_ptr+0x37811110>
f80008bc:	00040513          	mv	a0,s0
f80008c0:	00048593          	mv	a1,s1
f80008c4:	00004097          	auipc	ra,0x4
f80008c8:	de0080e7          	jalr	-544(ra) # f80046a4 <__muldf3>
f80008cc:	54cbb637          	lui	a2,0x54cbb
f80008d0:	c7760613          	add	a2,a2,-905 # 54cbac77 <__stack_ptr+0x4ccbac77>
f80008d4:	bfc556b7          	lui	a3,0xbfc55
f80008d8:	55568693          	add	a3,a3,1365 # bfc55555 <__stack_ptr+0xb7c55555>
f80008dc:	00003097          	auipc	ra,0x3
f80008e0:	d54080e7          	jalr	-684(ra) # f8003630 <__adddf3>
f80008e4:	00050613          	mv	a2,a0
f80008e8:	00058693          	mv	a3,a1
f80008ec:	000c0513          	mv	a0,s8
f80008f0:	000c8593          	mv	a1,s9
f80008f4:	00004097          	auipc	ra,0x4
f80008f8:	db0080e7          	jalr	-592(ra) # f80046a4 <__muldf3>
f80008fc:	00050613          	mv	a2,a0
f8000900:	00058693          	mv	a3,a1
f8000904:	000a0513          	mv	a0,s4
f8000908:	000a8593          	mv	a1,s5
f800090c:	00003097          	auipc	ra,0x3
f8000910:	d24080e7          	jalr	-732(ra) # f8003630 <__adddf3>
f8000914:	00050a13          	mv	s4,a0
f8000918:	00058a93          	mv	s5,a1
f800091c:	000c0513          	mv	a0,s8
f8000920:	000c8593          	mv	a1,s9
f8000924:	00090613          	mv	a2,s2
f8000928:	00098693          	mv	a3,s3
f800092c:	00004097          	auipc	ra,0x4
f8000930:	d78080e7          	jalr	-648(ra) # f80046a4 <__muldf3>
f8000934:	000b0613          	mv	a2,s6
f8000938:	000b8693          	mv	a3,s7
f800093c:	00004097          	auipc	ra,0x4
f8000940:	d68080e7          	jalr	-664(ra) # f80046a4 <__muldf3>
f8000944:	000a0613          	mv	a2,s4
f8000948:	000a8693          	mv	a3,s5
f800094c:	00003097          	auipc	ra,0x3
f8000950:	ce4080e7          	jalr	-796(ra) # f8003630 <__adddf3>
f8000954:	00003097          	auipc	ra,0x3
f8000958:	014080e7          	jalr	20(ra) # f8003968 <__truncdfsf2>
f800095c:	00050a13          	mv	s4,a0
f8000960:	e0ee5537          	lui	a0,0xe0ee5
f8000964:	06950613          	add	a2,a0,105 # e0ee5069 <__stack_ptr+0xd8ee5069>
f8000968:	3ef99537          	lui	a0,0x3ef99
f800096c:	34250693          	add	a3,a0,834 # 3ef99342 <__stack_ptr+0x36f99342>
f8000970:	00040513          	mv	a0,s0
f8000974:	00048593          	mv	a1,s1
f8000978:	00004097          	auipc	ra,0x4
f800097c:	d2c080e7          	jalr	-724(ra) # f80046a4 <__muldf3>
f8000980:	e80f2637          	lui	a2,0xe80f2
f8000984:	e2760613          	add	a2,a2,-473 # e80f1e27 <__stack_ptr+0xe00f1e27>
f8000988:	bf56c6b7          	lui	a3,0xbf56c
f800098c:	08768693          	add	a3,a3,135 # bf56c087 <__stack_ptr+0xb756c087>
f8000990:	00003097          	auipc	ra,0x3
f8000994:	ca0080e7          	jalr	-864(ra) # f8003630 <__adddf3>
f8000998:	00050a93          	mv	s5,a0
f800099c:	00058b13          	mv	s6,a1
f80009a0:	fd0c6537          	lui	a0,0xfd0c6
f80009a4:	e8150613          	add	a2,a0,-383 # fd0c5e81 <_etext+0x50c1561>
f80009a8:	bfe006b7          	lui	a3,0xbfe00
f80009ac:	fff68693          	add	a3,a3,-1 # bfdfffff <__stack_ptr+0xb7dfffff>
f80009b0:	00040513          	mv	a0,s0
f80009b4:	00048593          	mv	a1,s1
f80009b8:	00004097          	auipc	ra,0x4
f80009bc:	cec080e7          	jalr	-788(ra) # f80046a4 <__muldf3>
f80009c0:	3ff006b7          	lui	a3,0x3ff00
f80009c4:	00000613          	li	a2,0
f80009c8:	00003097          	auipc	ra,0x3
f80009cc:	c68080e7          	jalr	-920(ra) # f8003630 <__adddf3>
f80009d0:	00050b93          	mv	s7,a0
f80009d4:	00058c13          	mv	s8,a1
f80009d8:	e1054537          	lui	a0,0xe1054
f80009dc:	a4250613          	add	a2,a0,-1470 # e1053a42 <__stack_ptr+0xd9053a42>
f80009e0:	3fa55537          	lui	a0,0x3fa55
f80009e4:	55350693          	add	a3,a0,1363 # 3fa55553 <__stack_ptr+0x37a55553>
f80009e8:	00090513          	mv	a0,s2
f80009ec:	00098593          	mv	a1,s3
f80009f0:	00004097          	auipc	ra,0x4
f80009f4:	cb4080e7          	jalr	-844(ra) # f80046a4 <__muldf3>
f80009f8:	00050613          	mv	a2,a0
f80009fc:	00058693          	mv	a3,a1
f8000a00:	000b8513          	mv	a0,s7
f8000a04:	000c0593          	mv	a1,s8
f8000a08:	00003097          	auipc	ra,0x3
f8000a0c:	c28080e7          	jalr	-984(ra) # f8003630 <__adddf3>
f8000a10:	00050b93          	mv	s7,a0
f8000a14:	00058c13          	mv	s8,a1
f8000a18:	00040513          	mv	a0,s0
f8000a1c:	00048593          	mv	a1,s1
f8000a20:	00090613          	mv	a2,s2
f8000a24:	00098693          	mv	a3,s3
f8000a28:	00004097          	auipc	ra,0x4
f8000a2c:	c7c080e7          	jalr	-900(ra) # f80046a4 <__muldf3>
f8000a30:	000a8613          	mv	a2,s5
f8000a34:	000b0693          	mv	a3,s6
f8000a38:	00004097          	auipc	ra,0x4
f8000a3c:	c6c080e7          	jalr	-916(ra) # f80046a4 <__muldf3>
f8000a40:	00050613          	mv	a2,a0
f8000a44:	00058693          	mv	a3,a1
f8000a48:	000b8513          	mv	a0,s7
f8000a4c:	000c0593          	mv	a1,s8
f8000a50:	00003097          	auipc	ra,0x3
f8000a54:	be0080e7          	jalr	-1056(ra) # f8003630 <__adddf3>
f8000a58:	00003097          	auipc	ra,0x3
f8000a5c:	f10080e7          	jalr	-240(ra) # f8003968 <__truncdfsf2>
f8000a60:	003d7593          	and	a1,s10,3
f8000a64:	00100613          	li	a2,1
f8000a68:	4eb64663          	blt	a2,a1,f8000f54 <_ZN4libm4math7sincosf7sincosf17h51ce73397ba5a616E+0xae0>
f8000a6c:	1c0588e3          	beqz	a1,f800143c <_ZN4libm4math7sincosf7sincosf17h51ce73397ba5a616E+0xfc8>
f8000a70:	800005b7          	lui	a1,0x80000
f8000a74:	00ba45b3          	xor	a1,s4,a1
f8000a78:	1cd0006f          	j	f8001444 <_ZN4libm4math7sincosf7sincosf17h51ce73397ba5a616E+0xfd0>
f8000a7c:	fdb58593          	add	a1,a1,-37 # 7fffffdb <__stack_ptr+0x77ffffdb>
f8000a80:	00003097          	auipc	ra,0x3
f8000a84:	e18080e7          	jalr	-488(ra) # f8003898 <__addsf3>
f8000a88:	00002097          	auipc	ra,0x2
f8000a8c:	1e0080e7          	jalr	480(ra) # f8002c68 <__extendsfdf2>
f8000a90:	00050413          	mv	s0,a0
f8000a94:	00058493          	mv	s1,a1
f8000a98:	00050613          	mv	a2,a0
f8000a9c:	00058693          	mv	a3,a1
f8000aa0:	00004097          	auipc	ra,0x4
f8000aa4:	c04080e7          	jalr	-1020(ra) # f80046a4 <__muldf3>
f8000aa8:	00050a13          	mv	s4,a0
f8000aac:	00058a93          	mv	s5,a1
f8000ab0:	00050613          	mv	a2,a0
f8000ab4:	00058693          	mv	a3,a1
f8000ab8:	00004097          	auipc	ra,0x4
f8000abc:	bec080e7          	jalr	-1044(ra) # f80046a4 <__muldf3>
f8000ac0:	00050913          	mv	s2,a0
f8000ac4:	00058993          	mv	s3,a1
f8000ac8:	e0ee5537          	lui	a0,0xe0ee5
f8000acc:	06950613          	add	a2,a0,105 # e0ee5069 <__stack_ptr+0xd8ee5069>
f8000ad0:	3ef99537          	lui	a0,0x3ef99
f8000ad4:	34250693          	add	a3,a0,834 # 3ef99342 <__stack_ptr+0x36f99342>
f8000ad8:	000a0513          	mv	a0,s4
f8000adc:	000a8593          	mv	a1,s5
f8000ae0:	00004097          	auipc	ra,0x4
f8000ae4:	bc4080e7          	jalr	-1084(ra) # f80046a4 <__muldf3>
f8000ae8:	e80f2637          	lui	a2,0xe80f2
f8000aec:	e2760613          	add	a2,a2,-473 # e80f1e27 <__stack_ptr+0xe00f1e27>
f8000af0:	bf56c6b7          	lui	a3,0xbf56c
f8000af4:	08768693          	add	a3,a3,135 # bf56c087 <__stack_ptr+0xb756c087>
f8000af8:	00003097          	auipc	ra,0x3
f8000afc:	b38080e7          	jalr	-1224(ra) # f8003630 <__adddf3>
f8000b00:	00050b13          	mv	s6,a0
f8000b04:	00058b93          	mv	s7,a1
f8000b08:	fd0c6537          	lui	a0,0xfd0c6
f8000b0c:	e8150613          	add	a2,a0,-383 # fd0c5e81 <_etext+0x50c1561>
f8000b10:	bfe006b7          	lui	a3,0xbfe00
f8000b14:	fff68693          	add	a3,a3,-1 # bfdfffff <__stack_ptr+0xb7dfffff>
f8000b18:	000a0513          	mv	a0,s4
f8000b1c:	000a8593          	mv	a1,s5
f8000b20:	00004097          	auipc	ra,0x4
f8000b24:	b84080e7          	jalr	-1148(ra) # f80046a4 <__muldf3>
f8000b28:	3ff006b7          	lui	a3,0x3ff00
f8000b2c:	00000613          	li	a2,0
f8000b30:	00003097          	auipc	ra,0x3
f8000b34:	b00080e7          	jalr	-1280(ra) # f8003630 <__adddf3>
f8000b38:	00050c13          	mv	s8,a0
f8000b3c:	00058c93          	mv	s9,a1
f8000b40:	e1054537          	lui	a0,0xe1054
f8000b44:	a4250613          	add	a2,a0,-1470 # e1053a42 <__stack_ptr+0xd9053a42>
f8000b48:	3fa55537          	lui	a0,0x3fa55
f8000b4c:	55350693          	add	a3,a0,1363 # 3fa55553 <__stack_ptr+0x37a55553>
f8000b50:	00090513          	mv	a0,s2
f8000b54:	00098593          	mv	a1,s3
f8000b58:	00004097          	auipc	ra,0x4
f8000b5c:	b4c080e7          	jalr	-1204(ra) # f80046a4 <__muldf3>
f8000b60:	00050613          	mv	a2,a0
f8000b64:	00058693          	mv	a3,a1
f8000b68:	000c0513          	mv	a0,s8
f8000b6c:	000c8593          	mv	a1,s9
f8000b70:	00003097          	auipc	ra,0x3
f8000b74:	ac0080e7          	jalr	-1344(ra) # f8003630 <__adddf3>
f8000b78:	00050c13          	mv	s8,a0
f8000b7c:	00058c93          	mv	s9,a1
f8000b80:	000a0513          	mv	a0,s4
f8000b84:	000a8593          	mv	a1,s5
f8000b88:	00090613          	mv	a2,s2
f8000b8c:	00098693          	mv	a3,s3
f8000b90:	00004097          	auipc	ra,0x4
f8000b94:	b14080e7          	jalr	-1260(ra) # f80046a4 <__muldf3>
f8000b98:	000b0613          	mv	a2,s6
f8000b9c:	000b8693          	mv	a3,s7
f8000ba0:	00004097          	auipc	ra,0x4
f8000ba4:	b04080e7          	jalr	-1276(ra) # f80046a4 <__muldf3>
f8000ba8:	00050613          	mv	a2,a0
f8000bac:	00058693          	mv	a3,a1
f8000bb0:	000c0513          	mv	a0,s8
f8000bb4:	000c8593          	mv	a1,s9
f8000bb8:	00003097          	auipc	ra,0x3
f8000bbc:	a78080e7          	jalr	-1416(ra) # f8003630 <__adddf3>
f8000bc0:	00003097          	auipc	ra,0x3
f8000bc4:	da8080e7          	jalr	-600(ra) # f8003968 <__truncdfsf2>
f8000bc8:	800005b7          	lui	a1,0x80000
f8000bcc:	00b54d33          	xor	s10,a0,a1
f8000bd0:	8c3b4537          	lui	a0,0x8c3b4
f8000bd4:	6a750613          	add	a2,a0,1703 # 8c3b46a7 <__stack_ptr+0x843b46a7>
f8000bd8:	3ec6d537          	lui	a0,0x3ec6d
f8000bdc:	d8750693          	add	a3,a0,-633 # 3ec6cd87 <__stack_ptr+0x36c6cd87>
f8000be0:	000a0513          	mv	a0,s4
f8000be4:	000a8593          	mv	a1,s5
f8000be8:	00004097          	auipc	ra,0x4
f8000bec:	abc080e7          	jalr	-1348(ra) # f80046a4 <__muldf3>
f8000bf0:	e2cae637          	lui	a2,0xe2cae
f8000bf4:	77460613          	add	a2,a2,1908 # e2cae774 <__stack_ptr+0xdacae774>
f8000bf8:	bf2a06b7          	lui	a3,0xbf2a0
f8000bfc:	0f968693          	add	a3,a3,249 # bf2a00f9 <__stack_ptr+0xb72a00f9>
f8000c00:	00003097          	auipc	ra,0x3
f8000c04:	a30080e7          	jalr	-1488(ra) # f8003630 <__adddf3>
f8000c08:	00050b13          	mv	s6,a0
f8000c0c:	00058b93          	mv	s7,a1
f8000c10:	000a0513          	mv	a0,s4
f8000c14:	000a8593          	mv	a1,s5
f8000c18:	00040613          	mv	a2,s0
f8000c1c:	00048693          	mv	a3,s1
f8000c20:	00004097          	auipc	ra,0x4
f8000c24:	a84080e7          	jalr	-1404(ra) # f80046a4 <__muldf3>
f8000c28:	00050c13          	mv	s8,a0
f8000c2c:	00058c93          	mv	s9,a1
f8000c30:	896f0537          	lui	a0,0x896f0
f8000c34:	bb250613          	add	a2,a0,-1102 # 896efbb2 <__stack_ptr+0x816efbb2>
f8000c38:	3f811537          	lui	a0,0x3f811
f8000c3c:	11050693          	add	a3,a0,272 # 3f811110 <__stack_ptr+0x37811110>
f8000c40:	000a0513          	mv	a0,s4
f8000c44:	000a8593          	mv	a1,s5
f8000c48:	00004097          	auipc	ra,0x4
f8000c4c:	a5c080e7          	jalr	-1444(ra) # f80046a4 <__muldf3>
f8000c50:	54cbb637          	lui	a2,0x54cbb
f8000c54:	c7760613          	add	a2,a2,-905 # 54cbac77 <__stack_ptr+0x4ccbac77>
f8000c58:	bfc556b7          	lui	a3,0xbfc55
f8000c5c:	55568693          	add	a3,a3,1365 # bfc55555 <__stack_ptr+0xb7c55555>
f8000c60:	00003097          	auipc	ra,0x3
f8000c64:	9d0080e7          	jalr	-1584(ra) # f8003630 <__adddf3>
f8000c68:	00050613          	mv	a2,a0
f8000c6c:	00058693          	mv	a3,a1
f8000c70:	000c0513          	mv	a0,s8
f8000c74:	000c8593          	mv	a1,s9
f8000c78:	00004097          	auipc	ra,0x4
f8000c7c:	a2c080e7          	jalr	-1492(ra) # f80046a4 <__muldf3>
f8000c80:	00040613          	mv	a2,s0
f8000c84:	00048693          	mv	a3,s1
f8000c88:	00003097          	auipc	ra,0x3
f8000c8c:	9a8080e7          	jalr	-1624(ra) # f8003630 <__adddf3>
f8000c90:	00050413          	mv	s0,a0
f8000c94:	00058493          	mv	s1,a1
f8000c98:	000c0513          	mv	a0,s8
f8000c9c:	000c8593          	mv	a1,s9
f8000ca0:	00090613          	mv	a2,s2
f8000ca4:	00098693          	mv	a3,s3
f8000ca8:	00004097          	auipc	ra,0x4
f8000cac:	9fc080e7          	jalr	-1540(ra) # f80046a4 <__muldf3>
f8000cb0:	000b0613          	mv	a2,s6
f8000cb4:	000b8693          	mv	a3,s7
f8000cb8:	00004097          	auipc	ra,0x4
f8000cbc:	9ec080e7          	jalr	-1556(ra) # f80046a4 <__muldf3>
f8000cc0:	00040613          	mv	a2,s0
f8000cc4:	00048693          	mv	a3,s1
f8000cc8:	00003097          	auipc	ra,0x3
f8000ccc:	968080e7          	jalr	-1688(ra) # f8003630 <__adddf3>
f8000cd0:	00003097          	auipc	ra,0x3
f8000cd4:	c98080e7          	jalr	-872(ra) # f8003968 <__truncdfsf2>
f8000cd8:	00050593          	mv	a1,a0
f8000cdc:	000d0513          	mv	a0,s10
f8000ce0:	7640006f          	j	f8001444 <_ZN4libm4math7sincosf7sincosf17h51ce73397ba5a616E+0xfd0>
f8000ce4:	404915b7          	lui	a1,0x40491
f8000ce8:	fdb58593          	add	a1,a1,-37 # 40490fdb <__stack_ptr+0x38490fdb>
f8000cec:	00003097          	auipc	ra,0x3
f8000cf0:	bac080e7          	jalr	-1108(ra) # f8003898 <__addsf3>
f8000cf4:	00002097          	auipc	ra,0x2
f8000cf8:	f74080e7          	jalr	-140(ra) # f8002c68 <__extendsfdf2>
f8000cfc:	00050a13          	mv	s4,a0
f8000d00:	00058a93          	mv	s5,a1
f8000d04:	00050613          	mv	a2,a0
f8000d08:	00058693          	mv	a3,a1
f8000d0c:	00004097          	auipc	ra,0x4
f8000d10:	998080e7          	jalr	-1640(ra) # f80046a4 <__muldf3>
f8000d14:	00050413          	mv	s0,a0
f8000d18:	00058493          	mv	s1,a1
f8000d1c:	00050613          	mv	a2,a0
f8000d20:	00058693          	mv	a3,a1
f8000d24:	00004097          	auipc	ra,0x4
f8000d28:	980080e7          	jalr	-1664(ra) # f80046a4 <__muldf3>
f8000d2c:	00050913          	mv	s2,a0
f8000d30:	00058993          	mv	s3,a1
f8000d34:	8c3b4537          	lui	a0,0x8c3b4
f8000d38:	6a750613          	add	a2,a0,1703 # 8c3b46a7 <__stack_ptr+0x843b46a7>
f8000d3c:	3ec6d537          	lui	a0,0x3ec6d
f8000d40:	d8750693          	add	a3,a0,-633 # 3ec6cd87 <__stack_ptr+0x36c6cd87>
f8000d44:	00040513          	mv	a0,s0
f8000d48:	00048593          	mv	a1,s1
f8000d4c:	00004097          	auipc	ra,0x4
f8000d50:	958080e7          	jalr	-1704(ra) # f80046a4 <__muldf3>
f8000d54:	e2cae637          	lui	a2,0xe2cae
f8000d58:	77460613          	add	a2,a2,1908 # e2cae774 <__stack_ptr+0xdacae774>
f8000d5c:	bf2a06b7          	lui	a3,0xbf2a0
f8000d60:	0f968693          	add	a3,a3,249 # bf2a00f9 <__stack_ptr+0xb72a00f9>
f8000d64:	00003097          	auipc	ra,0x3
f8000d68:	8cc080e7          	jalr	-1844(ra) # f8003630 <__adddf3>
f8000d6c:	00050b13          	mv	s6,a0
f8000d70:	00058b93          	mv	s7,a1
f8000d74:	00040513          	mv	a0,s0
f8000d78:	00048593          	mv	a1,s1
f8000d7c:	000a0613          	mv	a2,s4
f8000d80:	000a8693          	mv	a3,s5
f8000d84:	00004097          	auipc	ra,0x4
f8000d88:	920080e7          	jalr	-1760(ra) # f80046a4 <__muldf3>
f8000d8c:	00050c13          	mv	s8,a0
f8000d90:	00058c93          	mv	s9,a1
f8000d94:	896f0537          	lui	a0,0x896f0
f8000d98:	bb250613          	add	a2,a0,-1102 # 896efbb2 <__stack_ptr+0x816efbb2>
f8000d9c:	3f811537          	lui	a0,0x3f811
f8000da0:	11050693          	add	a3,a0,272 # 3f811110 <__stack_ptr+0x37811110>
f8000da4:	00040513          	mv	a0,s0
f8000da8:	00048593          	mv	a1,s1
f8000dac:	00004097          	auipc	ra,0x4
f8000db0:	8f8080e7          	jalr	-1800(ra) # f80046a4 <__muldf3>
f8000db4:	54cbb637          	lui	a2,0x54cbb
f8000db8:	c7760613          	add	a2,a2,-905 # 54cbac77 <__stack_ptr+0x4ccbac77>
f8000dbc:	bfc556b7          	lui	a3,0xbfc55
f8000dc0:	55568693          	add	a3,a3,1365 # bfc55555 <__stack_ptr+0xb7c55555>
f8000dc4:	00003097          	auipc	ra,0x3
f8000dc8:	86c080e7          	jalr	-1940(ra) # f8003630 <__adddf3>
f8000dcc:	00050613          	mv	a2,a0
f8000dd0:	00058693          	mv	a3,a1
f8000dd4:	000c0513          	mv	a0,s8
f8000dd8:	000c8593          	mv	a1,s9
f8000ddc:	00004097          	auipc	ra,0x4
f8000de0:	8c8080e7          	jalr	-1848(ra) # f80046a4 <__muldf3>
f8000de4:	000a0613          	mv	a2,s4
f8000de8:	000a8693          	mv	a3,s5
f8000dec:	00003097          	auipc	ra,0x3
f8000df0:	844080e7          	jalr	-1980(ra) # f8003630 <__adddf3>
f8000df4:	00050a13          	mv	s4,a0
f8000df8:	00058a93          	mv	s5,a1
f8000dfc:	000c0513          	mv	a0,s8
f8000e00:	000c8593          	mv	a1,s9
f8000e04:	00090613          	mv	a2,s2
f8000e08:	00098693          	mv	a3,s3
f8000e0c:	00004097          	auipc	ra,0x4
f8000e10:	898080e7          	jalr	-1896(ra) # f80046a4 <__muldf3>
f8000e14:	000b0613          	mv	a2,s6
f8000e18:	000b8693          	mv	a3,s7
f8000e1c:	00004097          	auipc	ra,0x4
f8000e20:	888080e7          	jalr	-1912(ra) # f80046a4 <__muldf3>
f8000e24:	000a0613          	mv	a2,s4
f8000e28:	000a8693          	mv	a3,s5
f8000e2c:	00003097          	auipc	ra,0x3
f8000e30:	804080e7          	jalr	-2044(ra) # f8003630 <__adddf3>
f8000e34:	00003097          	auipc	ra,0x3
f8000e38:	b34080e7          	jalr	-1228(ra) # f8003968 <__truncdfsf2>
f8000e3c:	80000c37          	lui	s8,0x80000
f8000e40:	01854cb3          	xor	s9,a0,s8
f8000e44:	e0ee5537          	lui	a0,0xe0ee5
f8000e48:	06950613          	add	a2,a0,105 # e0ee5069 <__stack_ptr+0xd8ee5069>
f8000e4c:	3ef99537          	lui	a0,0x3ef99
f8000e50:	34250693          	add	a3,a0,834 # 3ef99342 <__stack_ptr+0x36f99342>
f8000e54:	00040513          	mv	a0,s0
f8000e58:	00048593          	mv	a1,s1
f8000e5c:	00004097          	auipc	ra,0x4
f8000e60:	848080e7          	jalr	-1976(ra) # f80046a4 <__muldf3>
f8000e64:	e80f2637          	lui	a2,0xe80f2
f8000e68:	e2760613          	add	a2,a2,-473 # e80f1e27 <__stack_ptr+0xe00f1e27>
f8000e6c:	bf56c6b7          	lui	a3,0xbf56c
f8000e70:	08768693          	add	a3,a3,135 # bf56c087 <__stack_ptr+0xb756c087>
f8000e74:	00002097          	auipc	ra,0x2
f8000e78:	7bc080e7          	jalr	1980(ra) # f8003630 <__adddf3>
f8000e7c:	00050a13          	mv	s4,a0
f8000e80:	00058a93          	mv	s5,a1
f8000e84:	fd0c6537          	lui	a0,0xfd0c6
f8000e88:	e8150613          	add	a2,a0,-383 # fd0c5e81 <_etext+0x50c1561>
f8000e8c:	bfe006b7          	lui	a3,0xbfe00
f8000e90:	fff68693          	add	a3,a3,-1 # bfdfffff <__stack_ptr+0xb7dfffff>
f8000e94:	00040513          	mv	a0,s0
f8000e98:	00048593          	mv	a1,s1
f8000e9c:	00004097          	auipc	ra,0x4
f8000ea0:	808080e7          	jalr	-2040(ra) # f80046a4 <__muldf3>
f8000ea4:	3ff006b7          	lui	a3,0x3ff00
f8000ea8:	00000613          	li	a2,0
f8000eac:	00002097          	auipc	ra,0x2
f8000eb0:	784080e7          	jalr	1924(ra) # f8003630 <__adddf3>
f8000eb4:	00050b13          	mv	s6,a0
f8000eb8:	00058b93          	mv	s7,a1
f8000ebc:	e1054537          	lui	a0,0xe1054
f8000ec0:	a4250613          	add	a2,a0,-1470 # e1053a42 <__stack_ptr+0xd9053a42>
f8000ec4:	3fa55537          	lui	a0,0x3fa55
f8000ec8:	55350693          	add	a3,a0,1363 # 3fa55553 <__stack_ptr+0x37a55553>
f8000ecc:	00090513          	mv	a0,s2
f8000ed0:	00098593          	mv	a1,s3
f8000ed4:	00003097          	auipc	ra,0x3
f8000ed8:	7d0080e7          	jalr	2000(ra) # f80046a4 <__muldf3>
f8000edc:	00050613          	mv	a2,a0
f8000ee0:	00058693          	mv	a3,a1
f8000ee4:	000b0513          	mv	a0,s6
f8000ee8:	000b8593          	mv	a1,s7
f8000eec:	00002097          	auipc	ra,0x2
f8000ef0:	744080e7          	jalr	1860(ra) # f8003630 <__adddf3>
f8000ef4:	00050b13          	mv	s6,a0
f8000ef8:	00058b93          	mv	s7,a1
f8000efc:	00040513          	mv	a0,s0
f8000f00:	00048593          	mv	a1,s1
f8000f04:	00090613          	mv	a2,s2
f8000f08:	00098693          	mv	a3,s3
f8000f0c:	00003097          	auipc	ra,0x3
f8000f10:	798080e7          	jalr	1944(ra) # f80046a4 <__muldf3>
f8000f14:	000a0613          	mv	a2,s4
f8000f18:	000a8693          	mv	a3,s5
f8000f1c:	00003097          	auipc	ra,0x3
f8000f20:	788080e7          	jalr	1928(ra) # f80046a4 <__muldf3>
f8000f24:	00050613          	mv	a2,a0
f8000f28:	00058693          	mv	a3,a1
f8000f2c:	000b0513          	mv	a0,s6
f8000f30:	000b8593          	mv	a1,s7
f8000f34:	00002097          	auipc	ra,0x2
f8000f38:	6fc080e7          	jalr	1788(ra) # f8003630 <__adddf3>
f8000f3c:	00003097          	auipc	ra,0x3
f8000f40:	a2c080e7          	jalr	-1492(ra) # f8003968 <__truncdfsf2>
f8000f44:	00050593          	mv	a1,a0
f8000f48:	000c8513          	mv	a0,s9
f8000f4c:	0185c5b3          	xor	a1,a1,s8
f8000f50:	4f40006f          	j	f8001444 <_ZN4libm4math7sincosf7sincosf17h51ce73397ba5a616E+0xfd0>
f8000f54:	00200613          	li	a2,2
f8000f58:	52c59263          	bne	a1,a2,f800147c <_ZN4libm4math7sincosf7sincosf17h51ce73397ba5a616E+0x1008>
f8000f5c:	800005b7          	lui	a1,0x80000
f8000f60:	00ba4633          	xor	a2,s4,a1
f8000f64:	00b545b3          	xor	a1,a0,a1
f8000f68:	00060513          	mv	a0,a2
f8000f6c:	4d80006f          	j	f8001444 <_ZN4libm4math7sincosf7sincosf17h51ce73397ba5a616E+0xfd0>
f8000f70:	4096d5b7          	lui	a1,0x4096d
f8000f74:	be458593          	add	a1,a1,-1052 # 4096cbe4 <__stack_ptr+0x3896cbe4>
f8000f78:	00003097          	auipc	ra,0x3
f8000f7c:	920080e7          	jalr	-1760(ra) # f8003898 <__addsf3>
f8000f80:	00002097          	auipc	ra,0x2
f8000f84:	ce8080e7          	jalr	-792(ra) # f8002c68 <__extendsfdf2>
f8000f88:	00050413          	mv	s0,a0
f8000f8c:	00058493          	mv	s1,a1
f8000f90:	00050613          	mv	a2,a0
f8000f94:	00058693          	mv	a3,a1
f8000f98:	00003097          	auipc	ra,0x3
f8000f9c:	70c080e7          	jalr	1804(ra) # f80046a4 <__muldf3>
f8000fa0:	00050a13          	mv	s4,a0
f8000fa4:	00058a93          	mv	s5,a1
f8000fa8:	00050613          	mv	a2,a0
f8000fac:	00058693          	mv	a3,a1
f8000fb0:	00003097          	auipc	ra,0x3
f8000fb4:	6f4080e7          	jalr	1780(ra) # f80046a4 <__muldf3>
f8000fb8:	00050913          	mv	s2,a0
f8000fbc:	00058993          	mv	s3,a1
f8000fc0:	e0ee5537          	lui	a0,0xe0ee5
f8000fc4:	06950613          	add	a2,a0,105 # e0ee5069 <__stack_ptr+0xd8ee5069>
f8000fc8:	3ef99537          	lui	a0,0x3ef99
f8000fcc:	34250693          	add	a3,a0,834 # 3ef99342 <__stack_ptr+0x36f99342>
f8000fd0:	000a0513          	mv	a0,s4
f8000fd4:	000a8593          	mv	a1,s5
f8000fd8:	00003097          	auipc	ra,0x3
f8000fdc:	6cc080e7          	jalr	1740(ra) # f80046a4 <__muldf3>
f8000fe0:	e80f2637          	lui	a2,0xe80f2
f8000fe4:	e2760613          	add	a2,a2,-473 # e80f1e27 <__stack_ptr+0xe00f1e27>
f8000fe8:	bf56c6b7          	lui	a3,0xbf56c
f8000fec:	08768693          	add	a3,a3,135 # bf56c087 <__stack_ptr+0xb756c087>
f8000ff0:	00002097          	auipc	ra,0x2
f8000ff4:	640080e7          	jalr	1600(ra) # f8003630 <__adddf3>
f8000ff8:	00050b13          	mv	s6,a0
f8000ffc:	00058b93          	mv	s7,a1
f8001000:	fd0c6537          	lui	a0,0xfd0c6
f8001004:	e8150613          	add	a2,a0,-383 # fd0c5e81 <_etext+0x50c1561>
f8001008:	bfe006b7          	lui	a3,0xbfe00
f800100c:	fff68693          	add	a3,a3,-1 # bfdfffff <__stack_ptr+0xb7dfffff>
f8001010:	000a0513          	mv	a0,s4
f8001014:	000a8593          	mv	a1,s5
f8001018:	00003097          	auipc	ra,0x3
f800101c:	68c080e7          	jalr	1676(ra) # f80046a4 <__muldf3>
f8001020:	3ff006b7          	lui	a3,0x3ff00
f8001024:	00000613          	li	a2,0
f8001028:	00002097          	auipc	ra,0x2
f800102c:	608080e7          	jalr	1544(ra) # f8003630 <__adddf3>
f8001030:	00050c13          	mv	s8,a0
f8001034:	00058c93          	mv	s9,a1
f8001038:	e1054537          	lui	a0,0xe1054
f800103c:	a4250613          	add	a2,a0,-1470 # e1053a42 <__stack_ptr+0xd9053a42>
f8001040:	3fa55537          	lui	a0,0x3fa55
f8001044:	55350693          	add	a3,a0,1363 # 3fa55553 <__stack_ptr+0x37a55553>
f8001048:	00090513          	mv	a0,s2
f800104c:	00098593          	mv	a1,s3
f8001050:	00003097          	auipc	ra,0x3
f8001054:	654080e7          	jalr	1620(ra) # f80046a4 <__muldf3>
f8001058:	00050613          	mv	a2,a0
f800105c:	00058693          	mv	a3,a1
f8001060:	000c0513          	mv	a0,s8
f8001064:	000c8593          	mv	a1,s9
f8001068:	00002097          	auipc	ra,0x2
f800106c:	5c8080e7          	jalr	1480(ra) # f8003630 <__adddf3>
f8001070:	00050c13          	mv	s8,a0
f8001074:	00058c93          	mv	s9,a1
f8001078:	000a0513          	mv	a0,s4
f800107c:	000a8593          	mv	a1,s5
f8001080:	00090613          	mv	a2,s2
f8001084:	00098693          	mv	a3,s3
f8001088:	00003097          	auipc	ra,0x3
f800108c:	61c080e7          	jalr	1564(ra) # f80046a4 <__muldf3>
f8001090:	000b0613          	mv	a2,s6
f8001094:	000b8693          	mv	a3,s7
f8001098:	00003097          	auipc	ra,0x3
f800109c:	60c080e7          	jalr	1548(ra) # f80046a4 <__muldf3>
f80010a0:	00050613          	mv	a2,a0
f80010a4:	00058693          	mv	a3,a1
f80010a8:	000c0513          	mv	a0,s8
f80010ac:	000c8593          	mv	a1,s9
f80010b0:	00002097          	auipc	ra,0x2
f80010b4:	580080e7          	jalr	1408(ra) # f8003630 <__adddf3>
f80010b8:	00003097          	auipc	ra,0x3
f80010bc:	8b0080e7          	jalr	-1872(ra) # f8003968 <__truncdfsf2>
f80010c0:	00050b13          	mv	s6,a0
f80010c4:	8c3b4537          	lui	a0,0x8c3b4
f80010c8:	6a750613          	add	a2,a0,1703 # 8c3b46a7 <__stack_ptr+0x843b46a7>
f80010cc:	3ec6d537          	lui	a0,0x3ec6d
f80010d0:	d8750693          	add	a3,a0,-633 # 3ec6cd87 <__stack_ptr+0x36c6cd87>
f80010d4:	000a0513          	mv	a0,s4
f80010d8:	000a8593          	mv	a1,s5
f80010dc:	00003097          	auipc	ra,0x3
f80010e0:	5c8080e7          	jalr	1480(ra) # f80046a4 <__muldf3>
f80010e4:	e2cae637          	lui	a2,0xe2cae
f80010e8:	77460613          	add	a2,a2,1908 # e2cae774 <__stack_ptr+0xdacae774>
f80010ec:	bf2a06b7          	lui	a3,0xbf2a0
f80010f0:	0f968693          	add	a3,a3,249 # bf2a00f9 <__stack_ptr+0xb72a00f9>
f80010f4:	00002097          	auipc	ra,0x2
f80010f8:	53c080e7          	jalr	1340(ra) # f8003630 <__adddf3>
f80010fc:	00050b93          	mv	s7,a0
f8001100:	00058c13          	mv	s8,a1
f8001104:	000a0513          	mv	a0,s4
f8001108:	000a8593          	mv	a1,s5
f800110c:	00040613          	mv	a2,s0
f8001110:	00048693          	mv	a3,s1
f8001114:	00003097          	auipc	ra,0x3
f8001118:	590080e7          	jalr	1424(ra) # f80046a4 <__muldf3>
f800111c:	00050c93          	mv	s9,a0
f8001120:	00058d13          	mv	s10,a1
f8001124:	896f0537          	lui	a0,0x896f0
f8001128:	bb250613          	add	a2,a0,-1102 # 896efbb2 <__stack_ptr+0x816efbb2>
f800112c:	3f811537          	lui	a0,0x3f811
f8001130:	11050693          	add	a3,a0,272 # 3f811110 <__stack_ptr+0x37811110>
f8001134:	000a0513          	mv	a0,s4
f8001138:	000a8593          	mv	a1,s5
f800113c:	00003097          	auipc	ra,0x3
f8001140:	568080e7          	jalr	1384(ra) # f80046a4 <__muldf3>
f8001144:	54cbb637          	lui	a2,0x54cbb
f8001148:	c7760613          	add	a2,a2,-905 # 54cbac77 <__stack_ptr+0x4ccbac77>
f800114c:	bfc556b7          	lui	a3,0xbfc55
f8001150:	55568693          	add	a3,a3,1365 # bfc55555 <__stack_ptr+0xb7c55555>
f8001154:	00002097          	auipc	ra,0x2
f8001158:	4dc080e7          	jalr	1244(ra) # f8003630 <__adddf3>
f800115c:	00050613          	mv	a2,a0
f8001160:	00058693          	mv	a3,a1
f8001164:	000c8513          	mv	a0,s9
f8001168:	000d0593          	mv	a1,s10
f800116c:	00003097          	auipc	ra,0x3
f8001170:	538080e7          	jalr	1336(ra) # f80046a4 <__muldf3>
f8001174:	00040613          	mv	a2,s0
f8001178:	00048693          	mv	a3,s1
f800117c:	00002097          	auipc	ra,0x2
f8001180:	4b4080e7          	jalr	1204(ra) # f8003630 <__adddf3>
f8001184:	00050413          	mv	s0,a0
f8001188:	00058493          	mv	s1,a1
f800118c:	000c8513          	mv	a0,s9
f8001190:	000d0593          	mv	a1,s10
f8001194:	00090613          	mv	a2,s2
f8001198:	00098693          	mv	a3,s3
f800119c:	00003097          	auipc	ra,0x3
f80011a0:	508080e7          	jalr	1288(ra) # f80046a4 <__muldf3>
f80011a4:	000b8613          	mv	a2,s7
f80011a8:	000c0693          	mv	a3,s8
f80011ac:	00003097          	auipc	ra,0x3
f80011b0:	4f8080e7          	jalr	1272(ra) # f80046a4 <__muldf3>
f80011b4:	00040613          	mv	a2,s0
f80011b8:	00048693          	mv	a3,s1
f80011bc:	00002097          	auipc	ra,0x2
f80011c0:	474080e7          	jalr	1140(ra) # f8003630 <__adddf3>
f80011c4:	00002097          	auipc	ra,0x2
f80011c8:	7a4080e7          	jalr	1956(ra) # f8003968 <__truncdfsf2>
f80011cc:	00050593          	mv	a1,a0
f80011d0:	000b0513          	mv	a0,s6
f80011d4:	80000637          	lui	a2,0x80000
f80011d8:	00c5c5b3          	xor	a1,a1,a2
f80011dc:	2680006f          	j	f8001444 <_ZN4libm4math7sincosf7sincosf17h51ce73397ba5a616E+0xfd0>
f80011e0:	40c915b7          	lui	a1,0x40c91
f80011e4:	fdb58593          	add	a1,a1,-37 # 40c90fdb <__stack_ptr+0x38c90fdb>
f80011e8:	00002097          	auipc	ra,0x2
f80011ec:	6b0080e7          	jalr	1712(ra) # f8003898 <__addsf3>
f80011f0:	00002097          	auipc	ra,0x2
f80011f4:	a78080e7          	jalr	-1416(ra) # f8002c68 <__extendsfdf2>
f80011f8:	00050a13          	mv	s4,a0
f80011fc:	00058a93          	mv	s5,a1
f8001200:	00050613          	mv	a2,a0
f8001204:	00058693          	mv	a3,a1
f8001208:	00003097          	auipc	ra,0x3
f800120c:	49c080e7          	jalr	1180(ra) # f80046a4 <__muldf3>
f8001210:	00050413          	mv	s0,a0
f8001214:	00058493          	mv	s1,a1
f8001218:	00050613          	mv	a2,a0
f800121c:	00058693          	mv	a3,a1
f8001220:	00003097          	auipc	ra,0x3
f8001224:	484080e7          	jalr	1156(ra) # f80046a4 <__muldf3>
f8001228:	00050913          	mv	s2,a0
f800122c:	00058993          	mv	s3,a1
f8001230:	8c3b4537          	lui	a0,0x8c3b4
f8001234:	6a750613          	add	a2,a0,1703 # 8c3b46a7 <__stack_ptr+0x843b46a7>
f8001238:	3ec6d537          	lui	a0,0x3ec6d
f800123c:	d8750693          	add	a3,a0,-633 # 3ec6cd87 <__stack_ptr+0x36c6cd87>
f8001240:	00040513          	mv	a0,s0
f8001244:	00048593          	mv	a1,s1
f8001248:	00003097          	auipc	ra,0x3
f800124c:	45c080e7          	jalr	1116(ra) # f80046a4 <__muldf3>
f8001250:	e2cae637          	lui	a2,0xe2cae
f8001254:	77460613          	add	a2,a2,1908 # e2cae774 <__stack_ptr+0xdacae774>
f8001258:	bf2a06b7          	lui	a3,0xbf2a0
f800125c:	0f968693          	add	a3,a3,249 # bf2a00f9 <__stack_ptr+0xb72a00f9>
f8001260:	00002097          	auipc	ra,0x2
f8001264:	3d0080e7          	jalr	976(ra) # f8003630 <__adddf3>
f8001268:	00050b13          	mv	s6,a0
f800126c:	00058b93          	mv	s7,a1
f8001270:	00040513          	mv	a0,s0
f8001274:	00048593          	mv	a1,s1
f8001278:	000a0613          	mv	a2,s4
f800127c:	000a8693          	mv	a3,s5
f8001280:	00003097          	auipc	ra,0x3
f8001284:	424080e7          	jalr	1060(ra) # f80046a4 <__muldf3>
f8001288:	00050c13          	mv	s8,a0
f800128c:	00058c93          	mv	s9,a1
f8001290:	896f0537          	lui	a0,0x896f0
f8001294:	bb250613          	add	a2,a0,-1102 # 896efbb2 <__stack_ptr+0x816efbb2>
f8001298:	3f811537          	lui	a0,0x3f811
f800129c:	11050693          	add	a3,a0,272 # 3f811110 <__stack_ptr+0x37811110>
f80012a0:	00040513          	mv	a0,s0
f80012a4:	00048593          	mv	a1,s1
f80012a8:	00003097          	auipc	ra,0x3
f80012ac:	3fc080e7          	jalr	1020(ra) # f80046a4 <__muldf3>
f80012b0:	54cbb637          	lui	a2,0x54cbb
f80012b4:	c7760613          	add	a2,a2,-905 # 54cbac77 <__stack_ptr+0x4ccbac77>
f80012b8:	bfc556b7          	lui	a3,0xbfc55
f80012bc:	55568693          	add	a3,a3,1365 # bfc55555 <__stack_ptr+0xb7c55555>
f80012c0:	00002097          	auipc	ra,0x2
f80012c4:	370080e7          	jalr	880(ra) # f8003630 <__adddf3>
f80012c8:	00050613          	mv	a2,a0
f80012cc:	00058693          	mv	a3,a1
f80012d0:	000c0513          	mv	a0,s8
f80012d4:	000c8593          	mv	a1,s9
f80012d8:	00003097          	auipc	ra,0x3
f80012dc:	3cc080e7          	jalr	972(ra) # f80046a4 <__muldf3>
f80012e0:	000a0613          	mv	a2,s4
f80012e4:	000a8693          	mv	a3,s5
f80012e8:	00002097          	auipc	ra,0x2
f80012ec:	348080e7          	jalr	840(ra) # f8003630 <__adddf3>
f80012f0:	00050a13          	mv	s4,a0
f80012f4:	00058a93          	mv	s5,a1
f80012f8:	000c0513          	mv	a0,s8
f80012fc:	000c8593          	mv	a1,s9
f8001300:	00090613          	mv	a2,s2
f8001304:	00098693          	mv	a3,s3
f8001308:	00003097          	auipc	ra,0x3
f800130c:	39c080e7          	jalr	924(ra) # f80046a4 <__muldf3>
f8001310:	000b0613          	mv	a2,s6
f8001314:	000b8693          	mv	a3,s7
f8001318:	00003097          	auipc	ra,0x3
f800131c:	38c080e7          	jalr	908(ra) # f80046a4 <__muldf3>
f8001320:	000a0613          	mv	a2,s4
f8001324:	000a8693          	mv	a3,s5
f8001328:	00002097          	auipc	ra,0x2
f800132c:	308080e7          	jalr	776(ra) # f8003630 <__adddf3>
f8001330:	00002097          	auipc	ra,0x2
f8001334:	638080e7          	jalr	1592(ra) # f8003968 <__truncdfsf2>
f8001338:	00050a13          	mv	s4,a0
f800133c:	e0ee5537          	lui	a0,0xe0ee5
f8001340:	06950613          	add	a2,a0,105 # e0ee5069 <__stack_ptr+0xd8ee5069>
f8001344:	3ef99537          	lui	a0,0x3ef99
f8001348:	34250693          	add	a3,a0,834 # 3ef99342 <__stack_ptr+0x36f99342>
f800134c:	00040513          	mv	a0,s0
f8001350:	00048593          	mv	a1,s1
f8001354:	00003097          	auipc	ra,0x3
f8001358:	350080e7          	jalr	848(ra) # f80046a4 <__muldf3>
f800135c:	e80f2637          	lui	a2,0xe80f2
f8001360:	e2760613          	add	a2,a2,-473 # e80f1e27 <__stack_ptr+0xe00f1e27>
f8001364:	bf56c6b7          	lui	a3,0xbf56c
f8001368:	08768693          	add	a3,a3,135 # bf56c087 <__stack_ptr+0xb756c087>
f800136c:	00002097          	auipc	ra,0x2
f8001370:	2c4080e7          	jalr	708(ra) # f8003630 <__adddf3>
f8001374:	00050a93          	mv	s5,a0
f8001378:	00058b13          	mv	s6,a1
f800137c:	fd0c6537          	lui	a0,0xfd0c6
f8001380:	e8150613          	add	a2,a0,-383 # fd0c5e81 <_etext+0x50c1561>
f8001384:	bfe006b7          	lui	a3,0xbfe00
f8001388:	fff68693          	add	a3,a3,-1 # bfdfffff <__stack_ptr+0xb7dfffff>
f800138c:	00040513          	mv	a0,s0
f8001390:	00048593          	mv	a1,s1
f8001394:	00003097          	auipc	ra,0x3
f8001398:	310080e7          	jalr	784(ra) # f80046a4 <__muldf3>
f800139c:	3ff006b7          	lui	a3,0x3ff00
f80013a0:	00000613          	li	a2,0
f80013a4:	00002097          	auipc	ra,0x2
f80013a8:	28c080e7          	jalr	652(ra) # f8003630 <__adddf3>
f80013ac:	00050b93          	mv	s7,a0
f80013b0:	00058c13          	mv	s8,a1
f80013b4:	e1054537          	lui	a0,0xe1054
f80013b8:	a4250613          	add	a2,a0,-1470 # e1053a42 <__stack_ptr+0xd9053a42>
f80013bc:	3fa55537          	lui	a0,0x3fa55
f80013c0:	55350693          	add	a3,a0,1363 # 3fa55553 <__stack_ptr+0x37a55553>
f80013c4:	00090513          	mv	a0,s2
f80013c8:	00098593          	mv	a1,s3
f80013cc:	00003097          	auipc	ra,0x3
f80013d0:	2d8080e7          	jalr	728(ra) # f80046a4 <__muldf3>
f80013d4:	00050613          	mv	a2,a0
f80013d8:	00058693          	mv	a3,a1
f80013dc:	000b8513          	mv	a0,s7
f80013e0:	000c0593          	mv	a1,s8
f80013e4:	00002097          	auipc	ra,0x2
f80013e8:	24c080e7          	jalr	588(ra) # f8003630 <__adddf3>
f80013ec:	00050b93          	mv	s7,a0
f80013f0:	00058c13          	mv	s8,a1
f80013f4:	00040513          	mv	a0,s0
f80013f8:	00048593          	mv	a1,s1
f80013fc:	00090613          	mv	a2,s2
f8001400:	00098693          	mv	a3,s3
f8001404:	00003097          	auipc	ra,0x3
f8001408:	2a0080e7          	jalr	672(ra) # f80046a4 <__muldf3>
f800140c:	000a8613          	mv	a2,s5
f8001410:	000b0693          	mv	a3,s6
f8001414:	00003097          	auipc	ra,0x3
f8001418:	290080e7          	jalr	656(ra) # f80046a4 <__muldf3>
f800141c:	00050613          	mv	a2,a0
f8001420:	00058693          	mv	a3,a1
f8001424:	000b8513          	mv	a0,s7
f8001428:	000c0593          	mv	a1,s8
f800142c:	00002097          	auipc	ra,0x2
f8001430:	204080e7          	jalr	516(ra) # f8003630 <__adddf3>
f8001434:	00002097          	auipc	ra,0x2
f8001438:	534080e7          	jalr	1332(ra) # f8003968 <__truncdfsf2>
f800143c:	00050593          	mv	a1,a0
f8001440:	000a0513          	mv	a0,s4
f8001444:	04c12083          	lw	ra,76(sp)
f8001448:	04812403          	lw	s0,72(sp)
f800144c:	04412483          	lw	s1,68(sp)
f8001450:	04012903          	lw	s2,64(sp)
f8001454:	03c12983          	lw	s3,60(sp)
f8001458:	03812a03          	lw	s4,56(sp)
f800145c:	03412a83          	lw	s5,52(sp)
f8001460:	03012b03          	lw	s6,48(sp)
f8001464:	02c12b83          	lw	s7,44(sp)
f8001468:	02812c03          	lw	s8,40(sp)
f800146c:	02412c83          	lw	s9,36(sp)
f8001470:	02012d03          	lw	s10,32(sp)
f8001474:	05010113          	add	sp,sp,80
f8001478:	00008067          	ret
f800147c:	800005b7          	lui	a1,0x80000
f8001480:	00b54533          	xor	a0,a0,a1
f8001484:	000a0593          	mv	a1,s4
f8001488:	fbdff06f          	j	f8001444 <_ZN4libm4math7sincosf7sincosf17h51ce73397ba5a616E+0xfd0>

f800148c <_ZN4libm4math9rem_pio2f9rem_pio2f17hff37da6498109913E>:
f800148c:	fc010113          	add	sp,sp,-64
f8001490:	02112e23          	sw	ra,60(sp)
f8001494:	02812c23          	sw	s0,56(sp)
f8001498:	02912a23          	sw	s1,52(sp)
f800149c:	03212823          	sw	s2,48(sp)
f80014a0:	03312623          	sw	s3,44(sp)
f80014a4:	03412423          	sw	s4,40(sp)
f80014a8:	03512223          	sw	s5,36(sp)
f80014ac:	03612023          	sw	s6,32(sp)
f80014b0:	01712e23          	sw	s7,28(sp)
f80014b4:	00058993          	mv	s3,a1
f80014b8:	00050413          	mv	s0,a0
f80014bc:	00058513          	mv	a0,a1
f80014c0:	00001097          	auipc	ra,0x1
f80014c4:	7a8080e7          	jalr	1960(ra) # f8002c68 <__extendsfdf2>
f80014c8:	00050913          	mv	s2,a0
f80014cc:	00058493          	mv	s1,a1
f80014d0:	00012a23          	sw	zero,20(sp)
f80014d4:	00199513          	sll	a0,s3,0x1
f80014d8:	00155513          	srl	a0,a0,0x1
f80014dc:	4dc915b7          	lui	a1,0x4dc91
f80014e0:	fdb58593          	add	a1,a1,-37 # 4dc90fdb <__stack_ptr+0x45c90fdb>
f80014e4:	00012823          	sw	zero,16(sp)
f80014e8:	14b57063          	bgeu	a0,a1,f8001628 <_ZN4libm4math9rem_pio2f9rem_pio2f17hff37da6498109913E+0x19c>
f80014ec:	6dc9d537          	lui	a0,0x6dc9d
f80014f0:	88350613          	add	a2,a0,-1917 # 6dc9c883 <__stack_ptr+0x65c9c883>
f80014f4:	3fe46537          	lui	a0,0x3fe46
f80014f8:	f3050693          	add	a3,a0,-208 # 3fe45f30 <__stack_ptr+0x37e45f30>
f80014fc:	00090513          	mv	a0,s2
f8001500:	00048593          	mv	a1,s1
f8001504:	00003097          	auipc	ra,0x3
f8001508:	1a0080e7          	jalr	416(ra) # f80046a4 <__muldf3>
f800150c:	433806b7          	lui	a3,0x43380
f8001510:	00000613          	li	a2,0
f8001514:	00002097          	auipc	ra,0x2
f8001518:	11c080e7          	jalr	284(ra) # f8003630 <__adddf3>
f800151c:	c33806b7          	lui	a3,0xc3380
f8001520:	00000613          	li	a2,0
f8001524:	00002097          	auipc	ra,0x2
f8001528:	10c080e7          	jalr	268(ra) # f8003630 <__adddf3>
f800152c:	00050993          	mv	s3,a0
f8001530:	00058a13          	mv	s4,a1
f8001534:	c1e006b7          	lui	a3,0xc1e00
f8001538:	00000613          	li	a2,0
f800153c:	00002097          	auipc	ra,0x2
f8001540:	1dc080e7          	jalr	476(ra) # f8003718 <_ZN17compiler_builtins5float3cmp7__gedf217h971779a7d9c7f274E>
f8001544:	00050b13          	mv	s6,a0
f8001548:	00098513          	mv	a0,s3
f800154c:	000a0593          	mv	a1,s4
f8001550:	00002097          	auipc	ra,0x2
f8001554:	5e8080e7          	jalr	1512(ra) # f8003b38 <__fixdfsi>
f8001558:	00050a93          	mv	s5,a0
f800155c:	80000bb7          	lui	s7,0x80000
f8001560:	000b5463          	bgez	s6,f8001568 <_ZN4libm4math9rem_pio2f9rem_pio2f17hff37da6498109913E+0xdc>
f8001564:	80000ab7          	lui	s5,0x80000
f8001568:	41e006b7          	lui	a3,0x41e00
f800156c:	fff68693          	add	a3,a3,-1 # 41dfffff <__stack_ptr+0x39dfffff>
f8001570:	ffc00637          	lui	a2,0xffc00
f8001574:	00098513          	mv	a0,s3
f8001578:	000a0593          	mv	a1,s4
f800157c:	00002097          	auipc	ra,0x2
f8001580:	260080e7          	jalr	608(ra) # f80037dc <__gtdf2>
f8001584:	00a05463          	blez	a0,f800158c <_ZN4libm4math9rem_pio2f9rem_pio2f17hff37da6498109913E+0x100>
f8001588:	fffb8a93          	add	s5,s7,-1 # 7fffffff <__stack_ptr+0x77ffffff>
f800158c:	00098513          	mv	a0,s3
f8001590:	000a0593          	mv	a1,s4
f8001594:	00098613          	mv	a2,s3
f8001598:	000a0693          	mv	a3,s4
f800159c:	00002097          	auipc	ra,0x2
f80015a0:	304080e7          	jalr	772(ra) # f80038a0 <__unorddf2>
f80015a4:	00a03533          	snez	a0,a0
f80015a8:	fff50513          	add	a0,a0,-1
f80015ac:	01557ab3          	and	s5,a0,s5
f80015b0:	bff92537          	lui	a0,0xbff92
f80015b4:	1fb50693          	add	a3,a0,507 # bff921fb <__stack_ptr+0xb7f921fb>
f80015b8:	50000637          	lui	a2,0x50000
f80015bc:	00098513          	mv	a0,s3
f80015c0:	000a0593          	mv	a1,s4
f80015c4:	00003097          	auipc	ra,0x3
f80015c8:	0e0080e7          	jalr	224(ra) # f80046a4 <__muldf3>
f80015cc:	00050613          	mv	a2,a0
f80015d0:	00058693          	mv	a3,a1
f80015d4:	00090513          	mv	a0,s2
f80015d8:	00048593          	mv	a1,s1
f80015dc:	00002097          	auipc	ra,0x2
f80015e0:	054080e7          	jalr	84(ra) # f8003630 <__adddf3>
f80015e4:	00050493          	mv	s1,a0
f80015e8:	00058913          	mv	s2,a1
f80015ec:	611a6537          	lui	a0,0x611a6
f80015f0:	26350613          	add	a2,a0,611 # 611a6263 <__stack_ptr+0x591a6263>
f80015f4:	be511537          	lui	a0,0xbe511
f80015f8:	0b450693          	add	a3,a0,180 # be5110b4 <__stack_ptr+0xb65110b4>
f80015fc:	00098513          	mv	a0,s3
f8001600:	000a0593          	mv	a1,s4
f8001604:	00003097          	auipc	ra,0x3
f8001608:	0a0080e7          	jalr	160(ra) # f80046a4 <__muldf3>
f800160c:	00050613          	mv	a2,a0
f8001610:	00058693          	mv	a3,a1
f8001614:	00048513          	mv	a0,s1
f8001618:	00090593          	mv	a1,s2
f800161c:	00002097          	auipc	ra,0x2
f8001620:	014080e7          	jalr	20(ra) # f8003630 <__adddf3>
f8001624:	0940006f          	j	f80016b8 <_ZN4libm4math9rem_pio2f9rem_pio2f17hff37da6498109913E+0x22c>
f8001628:	01755593          	srl	a1,a0,0x17
f800162c:	0fe00613          	li	a2,254
f8001630:	02b67263          	bgeu	a2,a1,f8001654 <_ZN4libm4math9rem_pio2f9rem_pio2f17hff37da6498109913E+0x1c8>
f8001634:	00090513          	mv	a0,s2
f8001638:	00048593          	mv	a1,s1
f800163c:	00090613          	mv	a2,s2
f8001640:	00048693          	mv	a3,s1
f8001644:	00002097          	auipc	ra,0x2
f8001648:	ff4080e7          	jalr	-12(ra) # f8003638 <__subdf3>
f800164c:	00000a93          	li	s5,0
f8001650:	0680006f          	j	f80016b8 <_ZN4libm4math9rem_pio2f9rem_pio2f17hff37da6498109913E+0x22c>
f8001654:	f6a58493          	add	s1,a1,-150
f8001658:	01749593          	sll	a1,s1,0x17
f800165c:	40b50533          	sub	a0,a0,a1
f8001660:	00001097          	auipc	ra,0x1
f8001664:	608080e7          	jalr	1544(ra) # f8002c68 <__extendsfdf2>
f8001668:	00b12623          	sw	a1,12(sp)
f800166c:	00a12423          	sw	a0,8(sp)
f8001670:	00810513          	add	a0,sp,8
f8001674:	00100593          	li	a1,1
f8001678:	01010613          	add	a2,sp,16
f800167c:	00100693          	li	a3,1
f8001680:	00048713          	mv	a4,s1
f8001684:	00000793          	li	a5,0
f8001688:	00000097          	auipc	ra,0x0
f800168c:	1f4080e7          	jalr	500(ra) # f800187c <_ZN4libm4math14rem_pio2_large14rem_pio2_large17h4432319de80002ffE>
f8001690:	00050a93          	mv	s5,a0
f8001694:	0009c863          	bltz	s3,f80016a4 <_ZN4libm4math9rem_pio2f9rem_pio2f17hff37da6498109913E+0x218>
f8001698:	01412583          	lw	a1,20(sp)
f800169c:	01012503          	lw	a0,16(sp)
f80016a0:	0180006f          	j	f80016b8 <_ZN4libm4math9rem_pio2f9rem_pio2f17hff37da6498109913E+0x22c>
f80016a4:	01412583          	lw	a1,20(sp)
f80016a8:	01012503          	lw	a0,16(sp)
f80016ac:	41500ab3          	neg	s5,s5
f80016b0:	80000637          	lui	a2,0x80000
f80016b4:	00c5c5b3          	xor	a1,a1,a2
f80016b8:	00a42423          	sw	a0,8(s0)
f80016bc:	01542023          	sw	s5,0(s0)
f80016c0:	00b42623          	sw	a1,12(s0)
f80016c4:	03c12083          	lw	ra,60(sp)
f80016c8:	03812403          	lw	s0,56(sp)
f80016cc:	03412483          	lw	s1,52(sp)
f80016d0:	03012903          	lw	s2,48(sp)
f80016d4:	02c12983          	lw	s3,44(sp)
f80016d8:	02812a03          	lw	s4,40(sp)
f80016dc:	02412a83          	lw	s5,36(sp)
f80016e0:	02012b03          	lw	s6,32(sp)
f80016e4:	01c12b83          	lw	s7,28(sp)
f80016e8:	04010113          	add	sp,sp,64
f80016ec:	00008067          	ret

f80016f0 <_ZN4libm4math5floor5floor17h4f6cc76a54b06ecdE>:
f80016f0:	fe010113          	add	sp,sp,-32
f80016f4:	00112e23          	sw	ra,28(sp)
f80016f8:	00812c23          	sw	s0,24(sp)
f80016fc:	00912a23          	sw	s1,20(sp)
f8001700:	01212823          	sw	s2,16(sp)
f8001704:	01312623          	sw	s3,12(sp)
f8001708:	01412423          	sw	s4,8(sp)
f800170c:	00058413          	mv	s0,a1
f8001710:	00050493          	mv	s1,a0
f8001714:	00000613          	li	a2,0
f8001718:	00000693          	li	a3,0
f800171c:	00002097          	auipc	ra,0x2
f8001720:	f2c080e7          	jalr	-212(ra) # f8003648 <__eqdf2>
f8001724:	12050863          	beqz	a0,f8001854 <_ZN4libm4math5floor5floor17h4f6cc76a54b06ecdE+0x164>
f8001728:	00141513          	sll	a0,s0,0x1
f800172c:	01555913          	srl	s2,a0,0x15
f8001730:	43200513          	li	a0,1074
f8001734:	13256063          	bltu	a0,s2,f8001854 <_ZN4libm4math5floor5floor17h4f6cc76a54b06ecdE+0x164>
f8001738:	06044063          	bltz	s0,f8001798 <_ZN4libm4math5floor5floor17h4f6cc76a54b06ecdE+0xa8>
f800173c:	433006b7          	lui	a3,0x43300
f8001740:	00048513          	mv	a0,s1
f8001744:	00040593          	mv	a1,s0
f8001748:	00000613          	li	a2,0
f800174c:	00002097          	auipc	ra,0x2
f8001750:	ee4080e7          	jalr	-284(ra) # f8003630 <__adddf3>
f8001754:	c33006b7          	lui	a3,0xc3300
f8001758:	00000613          	li	a2,0
f800175c:	00002097          	auipc	ra,0x2
f8001760:	ed4080e7          	jalr	-300(ra) # f8003630 <__adddf3>
f8001764:	00048613          	mv	a2,s1
f8001768:	00040693          	mv	a3,s0
f800176c:	00002097          	auipc	ra,0x2
f8001770:	ecc080e7          	jalr	-308(ra) # f8003638 <__subdf3>
f8001774:	00b12223          	sw	a1,4(sp)
f8001778:	3ff00613          	li	a2,1023
f800177c:	00a12023          	sw	a0,0(sp)
f8001780:	06c97a63          	bgeu	s2,a2,f80017f4 <_ZN4libm4math5floor5floor17h4f6cc76a54b06ecdE+0x104>
f8001784:	00412003          	lw	zero,4(sp)
f8001788:	00012003          	lw	zero,0(sp)
f800178c:	00000493          	li	s1,0
f8001790:	00000413          	li	s0,0
f8001794:	0c00006f          	j	f8001854 <_ZN4libm4math5floor5floor17h4f6cc76a54b06ecdE+0x164>
f8001798:	c33006b7          	lui	a3,0xc3300
f800179c:	00048513          	mv	a0,s1
f80017a0:	00040593          	mv	a1,s0
f80017a4:	00000613          	li	a2,0
f80017a8:	00002097          	auipc	ra,0x2
f80017ac:	e88080e7          	jalr	-376(ra) # f8003630 <__adddf3>
f80017b0:	433006b7          	lui	a3,0x43300
f80017b4:	00000613          	li	a2,0
f80017b8:	00002097          	auipc	ra,0x2
f80017bc:	e78080e7          	jalr	-392(ra) # f8003630 <__adddf3>
f80017c0:	00048613          	mv	a2,s1
f80017c4:	00040693          	mv	a3,s0
f80017c8:	00002097          	auipc	ra,0x2
f80017cc:	e70080e7          	jalr	-400(ra) # f8003638 <__subdf3>
f80017d0:	00b12223          	sw	a1,4(sp)
f80017d4:	3ff00613          	li	a2,1023
f80017d8:	00a12023          	sw	a0,0(sp)
f80017dc:	00c97c63          	bgeu	s2,a2,f80017f4 <_ZN4libm4math5floor5floor17h4f6cc76a54b06ecdE+0x104>
f80017e0:	00412003          	lw	zero,4(sp)
f80017e4:	00012003          	lw	zero,0(sp)
f80017e8:	00000493          	li	s1,0
f80017ec:	bff00437          	lui	s0,0xbff00
f80017f0:	0640006f          	j	f8001854 <_ZN4libm4math5floor5floor17h4f6cc76a54b06ecdE+0x164>
f80017f4:	00050913          	mv	s2,a0
f80017f8:	00058993          	mv	s3,a1
f80017fc:	00000613          	li	a2,0
f8001800:	00000693          	li	a3,0
f8001804:	00002097          	auipc	ra,0x2
f8001808:	fd8080e7          	jalr	-40(ra) # f80037dc <__gtdf2>
f800180c:	00050a13          	mv	s4,a0
f8001810:	00090513          	mv	a0,s2
f8001814:	00098593          	mv	a1,s3
f8001818:	00048613          	mv	a2,s1
f800181c:	00040693          	mv	a3,s0
f8001820:	00002097          	auipc	ra,0x2
f8001824:	e10080e7          	jalr	-496(ra) # f8003630 <__adddf3>
f8001828:	00050913          	mv	s2,a0
f800182c:	00058993          	mv	s3,a1
f8001830:	bff006b7          	lui	a3,0xbff00
f8001834:	00000613          	li	a2,0
f8001838:	00002097          	auipc	ra,0x2
f800183c:	df8080e7          	jalr	-520(ra) # f8003630 <__adddf3>
f8001840:	00050493          	mv	s1,a0
f8001844:	00058413          	mv	s0,a1
f8001848:	01404663          	bgtz	s4,f8001854 <_ZN4libm4math5floor5floor17h4f6cc76a54b06ecdE+0x164>
f800184c:	00098413          	mv	s0,s3
f8001850:	00090493          	mv	s1,s2
f8001854:	00048513          	mv	a0,s1
f8001858:	00040593          	mv	a1,s0
f800185c:	01c12083          	lw	ra,28(sp)
f8001860:	01812403          	lw	s0,24(sp)
f8001864:	01412483          	lw	s1,20(sp)
f8001868:	01012903          	lw	s2,16(sp)
f800186c:	00c12983          	lw	s3,12(sp)
f8001870:	00812a03          	lw	s4,8(sp)
f8001874:	02010113          	add	sp,sp,32
f8001878:	00008067          	ret

f800187c <_ZN4libm4math14rem_pio2_large14rem_pio2_large17h4432319de80002ffE>:
f800187c:	d4010113          	add	sp,sp,-704
f8001880:	2a112e23          	sw	ra,700(sp)
f8001884:	2a812c23          	sw	s0,696(sp)
f8001888:	2a912a23          	sw	s1,692(sp)
f800188c:	2b212823          	sw	s2,688(sp)
f8001890:	2b312623          	sw	s3,684(sp)
f8001894:	2b412423          	sw	s4,680(sp)
f8001898:	2b512223          	sw	s5,676(sp)
f800189c:	2b612023          	sw	s6,672(sp)
f80018a0:	29712e23          	sw	s7,668(sp)
f80018a4:	29812c23          	sw	s8,664(sp)
f80018a8:	29912a23          	sw	s9,660(sp)
f80018ac:	29a12823          	sw	s10,656(sp)
f80018b0:	29b12623          	sw	s11,652(sp)
f80018b4:	00078913          	mv	s2,a5
f80018b8:	00070c13          	mv	s8,a4
f80018bc:	00060b93          	mv	s7,a2
f80018c0:	00058993          	mv	s3,a1
f80018c4:	00050a13          	mv	s4,a0
f80018c8:	05810513          	add	a0,sp,88
f80018cc:	0a000613          	li	a2,160
f80018d0:	05810413          	add	s0,sp,88
f80018d4:	00000593          	li	a1,0
f80018d8:	00002097          	auipc	ra,0x2
f80018dc:	e38080e7          	jalr	-456(ra) # f8003710 <memset>
f80018e0:	0f810513          	add	a0,sp,248
f80018e4:	0a000613          	li	a2,160
f80018e8:	00000593          	li	a1,0
f80018ec:	00002097          	auipc	ra,0x2
f80018f0:	e24080e7          	jalr	-476(ra) # f8003710 <memset>
f80018f4:	19810513          	add	a0,sp,408
f80018f8:	0a000613          	li	a2,160
f80018fc:	00000593          	li	a1,0
f8001900:	00002097          	auipc	ra,0x2
f8001904:	e10080e7          	jalr	-496(ra) # f8003710 <memset>
f8001908:	23c10513          	add	a0,sp,572
f800190c:	05000613          	li	a2,80
f8001910:	00000593          	li	a1,0
f8001914:	00002097          	auipc	ra,0x2
f8001918:	dfc080e7          	jalr	-516(ra) # f8003710 <memset>
f800191c:	00000493          	li	s1,0
f8001920:	01212623          	sw	s2,12(sp)
f8001924:	00291513          	sll	a0,s2,0x2
f8001928:	f80045b7          	lui	a1,0xf8004
f800192c:	7c458593          	add	a1,a1,1988 # f80047c4 <.Lanon.fad58de7366495db4650cfefac2fcd61.12+0xc>
f8001930:	00a58533          	add	a0,a1,a0
f8001934:	00052a83          	lw	s5,0(a0)
f8001938:	fff98b13          	add	s6,s3,-1
f800193c:	ffdc0513          	add	a0,s8,-3 # 7ffffffd <__stack_ptr+0x77fffffd>
f8001940:	2aaab5b7          	lui	a1,0x2aaab
f8001944:	aab58593          	add	a1,a1,-1365 # 2aaaaaab <__stack_ptr+0x22aaaaab>
f8001948:	02b51533          	mulh	a0,a0,a1
f800194c:	01f55593          	srl	a1,a0,0x1f
f8001950:	40255513          	sra	a0,a0,0x2
f8001954:	00b50533          	add	a0,a0,a1
f8001958:	00a025b3          	sgtz	a1,a0
f800195c:	40b005b3          	neg	a1,a1
f8001960:	00a5fdb3          	and	s11,a1,a0
f8001964:	416d8933          	sub	s2,s11,s6
f8001968:	05512423          	sw	s5,72(sp)
f800196c:	016a8ab3          	add	s5,s5,s6
f8001970:	00299993          	sll	s3,s3,0x2
f8001974:	f8004537          	lui	a0,0xf8004
f8001978:	7d450513          	add	a0,a0,2004 # f80047d4 <.Lanon.1d99c4919ee1f97df7d753d2a2e76a27.1>
f800197c:	40a98533          	sub	a0,s3,a0
f8001980:	002d9593          	sll	a1,s11,0x2
f8001984:	40a585b3          	sub	a1,a1,a0
f8001988:	00458993          	add	s3,a1,4
f800198c:	00094a63          	bltz	s2,f80019a0 <_ZN4libm4math14rem_pio2_large14rem_pio2_large17h4432319de80002ffE+0x124>
f8001990:	0009a503          	lw	a0,0(s3)
f8001994:	00001097          	auipc	ra,0x1
f8001998:	1ec080e7          	jalr	492(ra) # f8002b80 <__floatsidf>
f800199c:	00c0006f          	j	f80019a8 <_ZN4libm4math14rem_pio2_large14rem_pio2_large17h4432319de80002ffE+0x12c>
f80019a0:	00000513          	li	a0,0
f80019a4:	00000593          	li	a1,0
f80019a8:	00349613          	sll	a2,s1,0x3
f80019ac:	00c40633          	add	a2,s0,a2
f80019b0:	00b62223          	sw	a1,4(a2) # 80000004 <__stack_ptr+0x78000004>
f80019b4:	00a62023          	sw	a0,0(a2)
f80019b8:	0154fc63          	bgeu	s1,s5,f80019d0 <_ZN4libm4math14rem_pio2_large14rem_pio2_large17h4432319de80002ffE+0x154>
f80019bc:	0154b533          	sltu	a0,s1,s5
f80019c0:	00a484b3          	add	s1,s1,a0
f80019c4:	00190913          	add	s2,s2,1
f80019c8:	00498993          	add	s3,s3,4
f80019cc:	fc9af0e3          	bgeu	s5,s1,f800198c <_ZN4libm4math14rem_pio2_large14rem_pio2_large17h4432319de80002ffE+0x110>
f80019d0:	01712823          	sw	s7,16(sp)
f80019d4:	00000493          	li	s1,0
f80019d8:	01812423          	sw	s8,8(sp)
f80019dc:	fe8c0413          	add	s0,s8,-24
f80019e0:	05810913          	add	s2,sp,88
f80019e4:	19810b93          	add	s7,sp,408
f80019e8:	04812a83          	lw	s5,72(sp)
f80019ec:	00000993          	li	s3,0
f80019f0:	000a8513          	mv	a0,s5
f80019f4:	00000a93          	li	s5,0
f80019f8:	00000c93          	li	s9,0
f80019fc:	00a4bc33          	sltu	s8,s1,a0
f8001a00:	01648d33          	add	s10,s1,s6
f8001a04:	003c9513          	sll	a0,s9,0x3
f8001a08:	00aa05b3          	add	a1,s4,a0
f8001a0c:	0005a503          	lw	a0,0(a1)
f8001a10:	0045a583          	lw	a1,4(a1)
f8001a14:	419d0633          	sub	a2,s10,s9
f8001a18:	00361613          	sll	a2,a2,0x3
f8001a1c:	00c906b3          	add	a3,s2,a2
f8001a20:	0006a603          	lw	a2,0(a3) # bff00000 <__stack_ptr+0xb7f00000>
f8001a24:	0046a683          	lw	a3,4(a3)
f8001a28:	00003097          	auipc	ra,0x3
f8001a2c:	c7c080e7          	jalr	-900(ra) # f80046a4 <__muldf3>
f8001a30:	00050613          	mv	a2,a0
f8001a34:	00058693          	mv	a3,a1
f8001a38:	00098513          	mv	a0,s3
f8001a3c:	000a8593          	mv	a1,s5
f8001a40:	00002097          	auipc	ra,0x2
f8001a44:	bf0080e7          	jalr	-1040(ra) # f8003630 <__adddf3>
f8001a48:	00050993          	mv	s3,a0
f8001a4c:	00058a93          	mv	s5,a1
f8001a50:	016cf863          	bgeu	s9,s6,f8001a60 <_ZN4libm4math14rem_pio2_large14rem_pio2_large17h4432319de80002ffE+0x1e4>
f8001a54:	016cb533          	sltu	a0,s9,s6
f8001a58:	00ac8cb3          	add	s9,s9,a0
f8001a5c:	fb9b74e3          	bgeu	s6,s9,f8001a04 <_ZN4libm4math14rem_pio2_large14rem_pio2_large17h4432319de80002ffE+0x188>
f8001a60:	00349513          	sll	a0,s1,0x3
f8001a64:	00ab8533          	add	a0,s7,a0
f8001a68:	01552223          	sw	s5,4(a0)
f8001a6c:	01352023          	sw	s3,0(a0)
f8001a70:	04812a83          	lw	s5,72(sp)
f8001a74:	0154f663          	bgeu	s1,s5,f8001a80 <_ZN4libm4math14rem_pio2_large14rem_pio2_large17h4432319de80002ffE+0x204>
f8001a78:	018484b3          	add	s1,s1,s8
f8001a7c:	f69af8e3          	bgeu	s5,s1,f80019ec <_ZN4libm4math14rem_pio2_large14rem_pio2_large17h4432319de80002ffE+0x170>
f8001a80:	fe800513          	li	a0,-24
f8001a84:	02ad8533          	mul	a0,s11,a0
f8001a88:	00a12223          	sw	a0,4(sp)
f8001a8c:	00a40433          	add	s0,s0,a0
f8001a90:	fffff537          	lui	a0,0xfffff
f8001a94:	47050513          	add	a0,a0,1136 # fffff470 <_etext+0x7ffab50>
f8001a98:	00040593          	mv	a1,s0
f8001a9c:	06855063          	bge	a0,s0,f8001afc <_ZN4libm4math14rem_pio2_large14rem_pio2_large17h4432319de80002ffE+0x280>
f8001aa0:	00001537          	lui	a0,0x1
f8001aa4:	bfd50613          	add	a2,a0,-1027 # bfd <__global_pointer+0x3fd>
f8001aa8:	00040513          	mv	a0,s0
f8001aac:	06c45263          	bge	s0,a2,f8001b10 <_ZN4libm4math14rem_pio2_large14rem_pio2_large17h4432319de80002ffE+0x294>
f8001ab0:	83900613          	li	a2,-1991
f8001ab4:	06c46463          	bltu	s0,a2,f8001b1c <_ZN4libm4math14rem_pio2_large14rem_pio2_large17h4432319de80002ffE+0x2a0>
f8001ab8:	3c940593          	add	a1,s0,969 # bff003c9 <__stack_ptr+0xb7f003c9>
f8001abc:	00b12e23          	sw	a1,28(sp)
f8001ac0:	7fe00593          	li	a1,2046
f8001ac4:	0685f463          	bgeu	a1,s0,f8001b2c <_ZN4libm4math14rem_pio2_large14rem_pio2_large17h4432319de80002ffE+0x2b0>
f8001ac8:	80250513          	add	a0,a0,-2046
f8001acc:	02a12623          	sw	a0,44(sp)
f8001ad0:	7ff005b7          	lui	a1,0x7ff00
f8001ad4:	01800513          	li	a0,24
f8001ad8:	c0200613          	li	a2,-1022
f8001adc:	01700693          	li	a3,23
f8001ae0:	06c45463          	bge	s0,a2,f8001b48 <_ZN4libm4math14rem_pio2_large14rem_pio2_large17h4432319de80002ffE+0x2cc>
f8001ae4:	83943613          	sltiu	a2,s0,-1991
f8001ae8:	fff60613          	add	a2,a2,-1
f8001aec:	03600737          	lui	a4,0x3600
f8001af0:	00e67633          	and	a2,a2,a4
f8001af4:	01c12703          	lw	a4,28(sp)
f8001af8:	0580006f          	j	f8001b50 <_ZN4libm4math14rem_pio2_large14rem_pio2_large17h4432319de80002ffE+0x2d4>
f8001afc:	00050593          	mv	a1,a0
f8001b00:	00001537          	lui	a0,0x1
f8001b04:	bfd50613          	add	a2,a0,-1027 # bfd <__global_pointer+0x3fd>
f8001b08:	00040513          	mv	a0,s0
f8001b0c:	fac442e3          	blt	s0,a2,f8001ab0 <_ZN4libm4math14rem_pio2_large14rem_pio2_large17h4432319de80002ffE+0x234>
f8001b10:	00060513          	mv	a0,a2
f8001b14:	83900613          	li	a2,-1991
f8001b18:	fac470e3          	bgeu	s0,a2,f8001ab8 <_ZN4libm4math14rem_pio2_large14rem_pio2_large17h4432319de80002ffE+0x23c>
f8001b1c:	79258593          	add	a1,a1,1938 # 7ff00792 <__stack_ptr+0x77f00792>
f8001b20:	00b12e23          	sw	a1,28(sp)
f8001b24:	7fe00593          	li	a1,2046
f8001b28:	fa85e0e3          	bltu	a1,s0,f8001ac8 <_ZN4libm4math14rem_pio2_large14rem_pio2_large17h4432319de80002ffE+0x24c>
f8001b2c:	c0140513          	add	a0,s0,-1023
f8001b30:	02a12623          	sw	a0,44(sp)
f8001b34:	7fe005b7          	lui	a1,0x7fe00
f8001b38:	01800513          	li	a0,24
f8001b3c:	c0200613          	li	a2,-1022
f8001b40:	01700693          	li	a3,23
f8001b44:	fac440e3          	blt	s0,a2,f8001ae4 <_ZN4libm4math14rem_pio2_large14rem_pio2_large17h4432319de80002ffE+0x268>
f8001b48:	3ff00637          	lui	a2,0x3ff00
f8001b4c:	00040713          	mv	a4,s0
f8001b50:	03b12423          	sw	s11,40(sp)
f8001b54:	40850533          	sub	a0,a0,s0
f8001b58:	408686b3          	sub	a3,a3,s0
f8001b5c:	3ff00813          	li	a6,1023
f8001b60:	02c12783          	lw	a5,44(sp)
f8001b64:	04812223          	sw	s0,68(sp)
f8001b68:	00884663          	blt	a6,s0,f8001b74 <_ZN4libm4math14rem_pio2_large14rem_pio2_large17h4432319de80002ffE+0x2f8>
f8001b6c:	00060593          	mv	a1,a2
f8001b70:	00070793          	mv	a5,a4
f8001b74:	01f57513          	and	a0,a0,31
f8001b78:	02a12a23          	sw	a0,52(sp)
f8001b7c:	01f6f693          	and	a3,a3,31
f8001b80:	02d12823          	sw	a3,48(sp)
f8001b84:	3ff78693          	add	a3,a5,1023
f8001b88:	01469693          	sll	a3,a3,0x14
f8001b8c:	00000513          	li	a0,0
f8001b90:	00000613          	li	a2,0
f8001b94:	00003097          	auipc	ra,0x3
f8001b98:	b10080e7          	jalr	-1264(ra) # f80046a4 <__muldf3>
f8001b9c:	02a12223          	sw	a0,36(sp)
f8001ba0:	02b12023          	sw	a1,32(sp)
f8001ba4:	002a9513          	sll	a0,s5,0x2
f8001ba8:	23810593          	add	a1,sp,568
f8001bac:	00a58533          	add	a0,a1,a0
f8001bb0:	02a12e23          	sw	a0,60(sp)
f8001bb4:	41e00537          	lui	a0,0x41e00
f8001bb8:	fff50513          	add	a0,a0,-1 # 41dfffff <__stack_ptr+0x39dfffff>
f8001bbc:	04a12a23          	sw	a0,84(sp)
f8001bc0:	00800537          	lui	a0,0x800
f8001bc4:	fff50513          	add	a0,a0,-1 # 7fffff <__global_pointer+0x7ff7ff>
f8001bc8:	00a12c23          	sw	a0,24(sp)
f8001bcc:	00400537          	lui	a0,0x400
f8001bd0:	fff50513          	add	a0,a0,-1 # 3fffff <__global_pointer+0x3ff7ff>
f8001bd4:	00a12a23          	sw	a0,20(sp)
f8001bd8:	01000537          	lui	a0,0x1000
f8001bdc:	fff50513          	add	a0,a0,-1 # ffffff <__global_pointer+0xfff7ff>
f8001be0:	02a12c23          	sw	a0,56(sp)
f8001be4:	f8004537          	lui	a0,0xf8004
f8001be8:	7d450513          	add	a0,a0,2004 # f80047d4 <.Lanon.1d99c4919ee1f97df7d753d2a2e76a27.1>
f8001bec:	04a12623          	sw	a0,76(sp)
f8001bf0:	05810913          	add	s2,sp,88
f8001bf4:	000a8413          	mv	s0,s5
f8001bf8:	00341513          	sll	a0,s0,0x3
f8001bfc:	19810593          	add	a1,sp,408
f8001c00:	00a58533          	add	a0,a1,a0
f8001c04:	00452983          	lw	s3,4(a0)
f8001c08:	00052c03          	lw	s8,0(a0)
f8001c0c:	04812023          	sw	s0,64(sp)
f8001c10:	1a040c63          	beqz	s0,f8001dc8 <_ZN4libm4math14rem_pio2_large14rem_pio2_large17h4432319de80002ffE+0x54c>
f8001c14:	23c10a93          	add	s5,sp,572
f8001c18:	00200513          	li	a0,2
f8001c1c:	00a47663          	bgeu	s0,a0,f8001c28 <_ZN4libm4math14rem_pio2_large14rem_pio2_large17h4432319de80002ffE+0x3ac>
f8001c20:	00100513          	li	a0,1
f8001c24:	0080006f          	j	f8001c2c <_ZN4libm4math14rem_pio2_large14rem_pio2_large17h4432319de80002ffE+0x3b0>
f8001c28:	fff40513          	add	a0,s0,-1
f8001c2c:	04a12823          	sw	a0,80(sp)
f8001c30:	3e7006b7          	lui	a3,0x3e700
f8001c34:	000c0513          	mv	a0,s8
f8001c38:	00098593          	mv	a1,s3
f8001c3c:	00000613          	li	a2,0
f8001c40:	00003097          	auipc	ra,0x3
f8001c44:	a64080e7          	jalr	-1436(ra) # f80046a4 <__muldf3>
f8001c48:	00050c93          	mv	s9,a0
f8001c4c:	00058d13          	mv	s10,a1
f8001c50:	c1e006b7          	lui	a3,0xc1e00
f8001c54:	00000613          	li	a2,0
f8001c58:	00002097          	auipc	ra,0x2
f8001c5c:	ac0080e7          	jalr	-1344(ra) # f8003718 <_ZN17compiler_builtins5float3cmp7__gedf217h971779a7d9c7f274E>
f8001c60:	00050493          	mv	s1,a0
f8001c64:	000c8513          	mv	a0,s9
f8001c68:	000d0593          	mv	a1,s10
f8001c6c:	00002097          	auipc	ra,0x2
f8001c70:	ecc080e7          	jalr	-308(ra) # f8003b38 <__fixdfsi>
f8001c74:	00050d93          	mv	s11,a0
f8001c78:	80000bb7          	lui	s7,0x80000
f8001c7c:	0004d463          	bgez	s1,f8001c84 <_ZN4libm4math14rem_pio2_large14rem_pio2_large17h4432319de80002ffE+0x408>
f8001c80:	80000db7          	lui	s11,0x80000
f8001c84:	ffc00637          	lui	a2,0xffc00
f8001c88:	000c8513          	mv	a0,s9
f8001c8c:	000d0593          	mv	a1,s10
f8001c90:	05412683          	lw	a3,84(sp)
f8001c94:	00002097          	auipc	ra,0x2
f8001c98:	b48080e7          	jalr	-1208(ra) # f80037dc <__gtdf2>
f8001c9c:	fffb8b93          	add	s7,s7,-1 # 7fffffff <__stack_ptr+0x77ffffff>
f8001ca0:	00a05463          	blez	a0,f8001ca8 <_ZN4libm4math14rem_pio2_large14rem_pio2_large17h4432319de80002ffE+0x42c>
f8001ca4:	000b8d93          	mv	s11,s7
f8001ca8:	000c8513          	mv	a0,s9
f8001cac:	000d0593          	mv	a1,s10
f8001cb0:	000c8613          	mv	a2,s9
f8001cb4:	000d0693          	mv	a3,s10
f8001cb8:	00002097          	auipc	ra,0x2
f8001cbc:	be8080e7          	jalr	-1048(ra) # f80038a0 <__unorddf2>
f8001cc0:	00a03533          	snez	a0,a0
f8001cc4:	fff50513          	add	a0,a0,-1
f8001cc8:	01b57533          	and	a0,a0,s11
f8001ccc:	00001097          	auipc	ra,0x1
f8001cd0:	eb4080e7          	jalr	-332(ra) # f8002b80 <__floatsidf>
f8001cd4:	00050c93          	mv	s9,a0
f8001cd8:	00058d13          	mv	s10,a1
f8001cdc:	c17006b7          	lui	a3,0xc1700
f8001ce0:	00000613          	li	a2,0
f8001ce4:	00003097          	auipc	ra,0x3
f8001ce8:	9c0080e7          	jalr	-1600(ra) # f80046a4 <__muldf3>
f8001cec:	00050613          	mv	a2,a0
f8001cf0:	00058693          	mv	a3,a1
f8001cf4:	000c0513          	mv	a0,s8
f8001cf8:	00098593          	mv	a1,s3
f8001cfc:	00002097          	auipc	ra,0x2
f8001d00:	934080e7          	jalr	-1740(ra) # f8003630 <__adddf3>
f8001d04:	00050993          	mv	s3,a0
f8001d08:	00058c13          	mv	s8,a1
f8001d0c:	c1e006b7          	lui	a3,0xc1e00
f8001d10:	00000613          	li	a2,0
f8001d14:	00002097          	auipc	ra,0x2
f8001d18:	a04080e7          	jalr	-1532(ra) # f8003718 <_ZN17compiler_builtins5float3cmp7__gedf217h971779a7d9c7f274E>
f8001d1c:	00050493          	mv	s1,a0
f8001d20:	00098513          	mv	a0,s3
f8001d24:	000c0593          	mv	a1,s8
f8001d28:	00002097          	auipc	ra,0x2
f8001d2c:	e10080e7          	jalr	-496(ra) # f8003b38 <__fixdfsi>
f8001d30:	00050d93          	mv	s11,a0
f8001d34:	0004d463          	bgez	s1,f8001d3c <_ZN4libm4math14rem_pio2_large14rem_pio2_large17h4432319de80002ffE+0x4c0>
f8001d38:	80000db7          	lui	s11,0x80000
f8001d3c:	ffc00637          	lui	a2,0xffc00
f8001d40:	00098513          	mv	a0,s3
f8001d44:	000c0593          	mv	a1,s8
f8001d48:	05412683          	lw	a3,84(sp)
f8001d4c:	00002097          	auipc	ra,0x2
f8001d50:	a90080e7          	jalr	-1392(ra) # f80037dc <__gtdf2>
f8001d54:	00a05463          	blez	a0,f8001d5c <_ZN4libm4math14rem_pio2_large14rem_pio2_large17h4432319de80002ffE+0x4e0>
f8001d58:	000b8d93          	mv	s11,s7
f8001d5c:	00098513          	mv	a0,s3
f8001d60:	000c0593          	mv	a1,s8
f8001d64:	00098613          	mv	a2,s3
f8001d68:	000c0693          	mv	a3,s8
f8001d6c:	00002097          	auipc	ra,0x2
f8001d70:	b34080e7          	jalr	-1228(ra) # f80038a0 <__unorddf2>
f8001d74:	00a03633          	snez	a2,a0
f8001d78:	00341513          	sll	a0,s0,0x3
f8001d7c:	19010593          	add	a1,sp,400
f8001d80:	00a585b3          	add	a1,a1,a0
f8001d84:	0005a503          	lw	a0,0(a1) # 7fe00000 <__stack_ptr+0x77e00000>
f8001d88:	0045a583          	lw	a1,4(a1)
f8001d8c:	fff60613          	add	a2,a2,-1 # ffbfffff <_etext+0x7bfb6df>
f8001d90:	01b67633          	and	a2,a2,s11
f8001d94:	00caa023          	sw	a2,0(s5) # 80000000 <__stack_ptr+0x78000000>
f8001d98:	000c8613          	mv	a2,s9
f8001d9c:	000d0693          	mv	a3,s10
f8001da0:	00002097          	auipc	ra,0x2
f8001da4:	890080e7          	jalr	-1904(ra) # f8003630 <__adddf3>
f8001da8:	00050c13          	mv	s8,a0
f8001dac:	00058993          	mv	s3,a1
f8001db0:	00200513          	li	a0,2
f8001db4:	00a46a63          	bltu	s0,a0,f8001dc8 <_ZN4libm4math14rem_pio2_large14rem_pio2_large17h4432319de80002ffE+0x54c>
f8001db8:	004a8a93          	add	s5,s5,4
f8001dbc:	05012503          	lw	a0,80(sp)
f8001dc0:	00050413          	mv	s0,a0
f8001dc4:	e4051ae3          	bnez	a0,f8001c18 <_ZN4libm4math14rem_pio2_large14rem_pio2_large17h4432319de80002ffE+0x39c>
f8001dc8:	04412403          	lw	s0,68(sp)
f8001dcc:	3ff00513          	li	a0,1023
f8001dd0:	04855e63          	bge	a0,s0,f8001e2c <_ZN4libm4math14rem_pio2_large14rem_pio2_large17h4432319de80002ffE+0x5b0>
f8001dd4:	7fe006b7          	lui	a3,0x7fe00
f8001dd8:	000c0513          	mv	a0,s8
f8001ddc:	00098593          	mv	a1,s3
f8001de0:	00000613          	li	a2,0
f8001de4:	00003097          	auipc	ra,0x3
f8001de8:	8c0080e7          	jalr	-1856(ra) # f80046a4 <__muldf3>
f8001dec:	00050c93          	mv	s9,a0
f8001df0:	00058d13          	mv	s10,a1
f8001df4:	7fe006b7          	lui	a3,0x7fe00
f8001df8:	00000613          	li	a2,0
f8001dfc:	00003097          	auipc	ra,0x3
f8001e00:	8a8080e7          	jalr	-1880(ra) # f80046a4 <__muldf3>
f8001e04:	00050c13          	mv	s8,a0
f8001e08:	00058993          	mv	s3,a1
f8001e0c:	04812a83          	lw	s5,72(sp)
f8001e10:	7fe00513          	li	a0,2046
f8001e14:	03812b83          	lw	s7,56(sp)
f8001e18:	00856663          	bltu	a0,s0,f8001e24 <_ZN4libm4math14rem_pio2_large14rem_pio2_large17h4432319de80002ffE+0x5a8>
f8001e1c:	000d0993          	mv	s3,s10
f8001e20:	000c8c13          	mv	s8,s9
f8001e24:	02c12503          	lw	a0,44(sp)
f8001e28:	0680006f          	j	f8001e90 <_ZN4libm4math14rem_pio2_large14rem_pio2_large17h4432319de80002ffE+0x614>
f8001e2c:	04812a83          	lw	s5,72(sp)
f8001e30:	03812b83          	lw	s7,56(sp)
f8001e34:	c0200513          	li	a0,-1022
f8001e38:	04a45a63          	bge	s0,a0,f8001e8c <_ZN4libm4math14rem_pio2_large14rem_pio2_large17h4432319de80002ffE+0x610>
f8001e3c:	036006b7          	lui	a3,0x3600
f8001e40:	000c0513          	mv	a0,s8
f8001e44:	00098593          	mv	a1,s3
f8001e48:	00000613          	li	a2,0
f8001e4c:	00003097          	auipc	ra,0x3
f8001e50:	858080e7          	jalr	-1960(ra) # f80046a4 <__muldf3>
f8001e54:	00050c93          	mv	s9,a0
f8001e58:	00058d13          	mv	s10,a1
f8001e5c:	036006b7          	lui	a3,0x3600
f8001e60:	00000613          	li	a2,0
f8001e64:	00003097          	auipc	ra,0x3
f8001e68:	840080e7          	jalr	-1984(ra) # f80046a4 <__muldf3>
f8001e6c:	00050c13          	mv	s8,a0
f8001e70:	00058993          	mv	s3,a1
f8001e74:	83900513          	li	a0,-1991
f8001e78:	00a46663          	bltu	s0,a0,f8001e84 <_ZN4libm4math14rem_pio2_large14rem_pio2_large17h4432319de80002ffE+0x608>
f8001e7c:	000d0993          	mv	s3,s10
f8001e80:	000c8c13          	mv	s8,s9
f8001e84:	01c12503          	lw	a0,28(sp)
f8001e88:	0080006f          	j	f8001e90 <_ZN4libm4math14rem_pio2_large14rem_pio2_large17h4432319de80002ffE+0x614>
f8001e8c:	00040513          	mv	a0,s0
f8001e90:	3ff50693          	add	a3,a0,1023
f8001e94:	01469693          	sll	a3,a3,0x14
f8001e98:	000c0513          	mv	a0,s8
f8001e9c:	00098593          	mv	a1,s3
f8001ea0:	00000613          	li	a2,0
f8001ea4:	00003097          	auipc	ra,0x3
f8001ea8:	800080e7          	jalr	-2048(ra) # f80046a4 <__muldf3>
f8001eac:	00050493          	mv	s1,a0
f8001eb0:	00058993          	mv	s3,a1
f8001eb4:	3fc006b7          	lui	a3,0x3fc00
f8001eb8:	00000613          	li	a2,0
f8001ebc:	00002097          	auipc	ra,0x2
f8001ec0:	7e8080e7          	jalr	2024(ra) # f80046a4 <__muldf3>
f8001ec4:	00000097          	auipc	ra,0x0
f8001ec8:	82c080e7          	jalr	-2004(ra) # f80016f0 <_ZN4libm4math5floor5floor17h4f6cc76a54b06ecdE>
f8001ecc:	c02006b7          	lui	a3,0xc0200
f8001ed0:	00000613          	li	a2,0
f8001ed4:	00002097          	auipc	ra,0x2
f8001ed8:	7d0080e7          	jalr	2000(ra) # f80046a4 <__muldf3>
f8001edc:	00050613          	mv	a2,a0
f8001ee0:	00058693          	mv	a3,a1
f8001ee4:	00048513          	mv	a0,s1
f8001ee8:	00098593          	mv	a1,s3
f8001eec:	00001097          	auipc	ra,0x1
f8001ef0:	744080e7          	jalr	1860(ra) # f8003630 <__adddf3>
f8001ef4:	00050c13          	mv	s8,a0
f8001ef8:	00058c93          	mv	s9,a1
f8001efc:	c1e006b7          	lui	a3,0xc1e00
f8001f00:	00000613          	li	a2,0
f8001f04:	00002097          	auipc	ra,0x2
f8001f08:	814080e7          	jalr	-2028(ra) # f8003718 <_ZN17compiler_builtins5float3cmp7__gedf217h971779a7d9c7f274E>
f8001f0c:	00050493          	mv	s1,a0
f8001f10:	000c0513          	mv	a0,s8
f8001f14:	000c8593          	mv	a1,s9
f8001f18:	00002097          	auipc	ra,0x2
f8001f1c:	c20080e7          	jalr	-992(ra) # f8003b38 <__fixdfsi>
f8001f20:	00050993          	mv	s3,a0
f8001f24:	80000437          	lui	s0,0x80000
f8001f28:	0004d463          	bgez	s1,f8001f30 <_ZN4libm4math14rem_pio2_large14rem_pio2_large17h4432319de80002ffE+0x6b4>
f8001f2c:	800009b7          	lui	s3,0x80000
f8001f30:	ffc00637          	lui	a2,0xffc00
f8001f34:	000c0513          	mv	a0,s8
f8001f38:	000c8593          	mv	a1,s9
f8001f3c:	05412683          	lw	a3,84(sp)
f8001f40:	00002097          	auipc	ra,0x2
f8001f44:	89c080e7          	jalr	-1892(ra) # f80037dc <__gtdf2>
f8001f48:	00a05463          	blez	a0,f8001f50 <_ZN4libm4math14rem_pio2_large14rem_pio2_large17h4432319de80002ffE+0x6d4>
f8001f4c:	fff40993          	add	s3,s0,-1 # 7fffffff <__stack_ptr+0x77ffffff>
f8001f50:	000c0513          	mv	a0,s8
f8001f54:	000c8593          	mv	a1,s9
f8001f58:	000c0613          	mv	a2,s8
f8001f5c:	000c8693          	mv	a3,s9
f8001f60:	00002097          	auipc	ra,0x2
f8001f64:	940080e7          	jalr	-1728(ra) # f80038a0 <__unorddf2>
f8001f68:	00a03533          	snez	a0,a0
f8001f6c:	fff50513          	add	a0,a0,-1
f8001f70:	013579b3          	and	s3,a0,s3
f8001f74:	00098513          	mv	a0,s3
f8001f78:	00001097          	auipc	ra,0x1
f8001f7c:	c08080e7          	jalr	-1016(ra) # f8002b80 <__floatsidf>
f8001f80:	00050613          	mv	a2,a0
f8001f84:	00058693          	mv	a3,a1
f8001f88:	000c0513          	mv	a0,s8
f8001f8c:	000c8593          	mv	a1,s9
f8001f90:	00001097          	auipc	ra,0x1
f8001f94:	6a8080e7          	jalr	1704(ra) # f8003638 <__subdf3>
f8001f98:	00050c13          	mv	s8,a0
f8001f9c:	00058c93          	mv	s9,a1
f8001fa0:	04412403          	lw	s0,68(sp)
f8001fa4:	04805263          	blez	s0,f8001fe8 <_ZN4libm4math14rem_pio2_large14rem_pio2_large17h4432319de80002ffE+0x76c>
f8001fa8:	04012503          	lw	a0,64(sp)
f8001fac:	00251513          	sll	a0,a0,0x2
f8001fb0:	23810593          	add	a1,sp,568
f8001fb4:	00a58533          	add	a0,a1,a0
f8001fb8:	00052583          	lw	a1,0(a0)
f8001fbc:	03412683          	lw	a3,52(sp)
f8001fc0:	40d5d633          	sra	a2,a1,a3
f8001fc4:	013609b3          	add	s3,a2,s3
f8001fc8:	00d61633          	sll	a2,a2,a3
f8001fcc:	40c585b3          	sub	a1,a1,a2
f8001fd0:	00b52023          	sw	a1,0(a0)
f8001fd4:	03012503          	lw	a0,48(sp)
f8001fd8:	40a5d5b3          	sra	a1,a1,a0
f8001fdc:	04b04a63          	bgtz	a1,f8002030 <_ZN4libm4math14rem_pio2_large14rem_pio2_large17h4432319de80002ffE+0x7b4>
f8001fe0:	00058d13          	mv	s10,a1
f8001fe4:	14c0006f          	j	f8002130 <_ZN4libm4math14rem_pio2_large14rem_pio2_large17h4432319de80002ffE+0x8b4>
f8001fe8:	02040663          	beqz	s0,f8002014 <_ZN4libm4math14rem_pio2_large14rem_pio2_large17h4432319de80002ffE+0x798>
f8001fec:	3fe006b7          	lui	a3,0x3fe00
f8001ff0:	000c0513          	mv	a0,s8
f8001ff4:	000c8593          	mv	a1,s9
f8001ff8:	00000613          	li	a2,0
f8001ffc:	00001097          	auipc	ra,0x1
f8002000:	71c080e7          	jalr	1820(ra) # f8003718 <_ZN17compiler_builtins5float3cmp7__gedf217h971779a7d9c7f274E>
f8002004:	00200593          	li	a1,2
f8002008:	02055463          	bgez	a0,f8002030 <_ZN4libm4math14rem_pio2_large14rem_pio2_large17h4432319de80002ffE+0x7b4>
f800200c:	00000d13          	li	s10,0
f8002010:	1200006f          	j	f8002130 <_ZN4libm4math14rem_pio2_large14rem_pio2_large17h4432319de80002ffE+0x8b4>
f8002014:	04012503          	lw	a0,64(sp)
f8002018:	00251513          	sll	a0,a0,0x2
f800201c:	23810593          	add	a1,sp,568
f8002020:	00a58533          	add	a0,a1,a0
f8002024:	00052583          	lw	a1,0(a0)
f8002028:	4175d593          	sra	a1,a1,0x17
f800202c:	fab05ae3          	blez	a1,f8001fe0 <_ZN4libm4math14rem_pio2_large14rem_pio2_large17h4432319de80002ffE+0x764>
f8002030:	04012603          	lw	a2,64(sp)
f8002034:	04060863          	beqz	a2,f8002084 <_ZN4libm4math14rem_pio2_large14rem_pio2_large17h4432319de80002ffE+0x808>
f8002038:	00000413          	li	s0,0
f800203c:	00261613          	sll	a2,a2,0x2
f8002040:	23c10513          	add	a0,sp,572
f8002044:	00c50633          	add	a2,a0,a2
f8002048:	0180006f          	j	f8002060 <_ZN4libm4math14rem_pio2_large14rem_pio2_large17h4432319de80002ffE+0x7e4>
f800204c:	40d70733          	sub	a4,a4,a3
f8002050:	00e52023          	sw	a4,0(a0)
f8002054:	00100413          	li	s0,1
f8002058:	00450513          	add	a0,a0,4
f800205c:	02c50663          	beq	a0,a2,f8002088 <_ZN4libm4math14rem_pio2_large14rem_pio2_large17h4432319de80002ffE+0x80c>
f8002060:	00052683          	lw	a3,0(a0)
f8002064:	000b8713          	mv	a4,s7
f8002068:	fe0412e3          	bnez	s0,f800204c <_ZN4libm4math14rem_pio2_large14rem_pio2_large17h4432319de80002ffE+0x7d0>
f800206c:	01000737          	lui	a4,0x1000
f8002070:	fc069ee3          	bnez	a3,f800204c <_ZN4libm4math14rem_pio2_large14rem_pio2_large17h4432319de80002ffE+0x7d0>
f8002074:	00000413          	li	s0,0
f8002078:	00450513          	add	a0,a0,4
f800207c:	fec512e3          	bne	a0,a2,f8002060 <_ZN4libm4math14rem_pio2_large14rem_pio2_large17h4432319de80002ffE+0x7e4>
f8002080:	0080006f          	j	f8002088 <_ZN4libm4math14rem_pio2_large14rem_pio2_large17h4432319de80002ffE+0x80c>
f8002084:	00000413          	li	s0,0
f8002088:	04412503          	lw	a0,68(sp)
f800208c:	00a05e63          	blez	a0,f80020a8 <_ZN4libm4math14rem_pio2_large14rem_pio2_large17h4432319de80002ffE+0x82c>
f8002090:	04412603          	lw	a2,68(sp)
f8002094:	00200513          	li	a0,2
f8002098:	06a60263          	beq	a2,a0,f80020fc <_ZN4libm4math14rem_pio2_large14rem_pio2_large17h4432319de80002ffE+0x880>
f800209c:	01812503          	lw	a0,24(sp)
f80020a0:	00100693          	li	a3,1
f80020a4:	04d60e63          	beq	a2,a3,f8002100 <_ZN4libm4math14rem_pio2_large14rem_pio2_large17h4432319de80002ffE+0x884>
f80020a8:	00198993          	add	s3,s3,1 # 80000001 <__stack_ptr+0x78000001>
f80020ac:	00200513          	li	a0,2
f80020b0:	06a59c63          	bne	a1,a0,f8002128 <_ZN4libm4math14rem_pio2_large14rem_pio2_large17h4432319de80002ffE+0x8ac>
f80020b4:	3ff005b7          	lui	a1,0x3ff00
f80020b8:	00000513          	li	a0,0
f80020bc:	000c0613          	mv	a2,s8
f80020c0:	000c8693          	mv	a3,s9
f80020c4:	00001097          	auipc	ra,0x1
f80020c8:	574080e7          	jalr	1396(ra) # f8003638 <__subdf3>
f80020cc:	00143613          	seqz	a2,s0
f80020d0:	fff60693          	add	a3,a2,-1 # ffbfffff <_etext+0x7bfb6df>
f80020d4:	02412603          	lw	a2,36(sp)
f80020d8:	00c6f633          	and	a2,a3,a2
f80020dc:	02012703          	lw	a4,32(sp)
f80020e0:	00e6f6b3          	and	a3,a3,a4
f80020e4:	00001097          	auipc	ra,0x1
f80020e8:	554080e7          	jalr	1364(ra) # f8003638 <__subdf3>
f80020ec:	00050c13          	mv	s8,a0
f80020f0:	00058c93          	mv	s9,a1
f80020f4:	00200d13          	li	s10,2
f80020f8:	0340006f          	j	f800212c <_ZN4libm4math14rem_pio2_large14rem_pio2_large17h4432319de80002ffE+0x8b0>
f80020fc:	01412503          	lw	a0,20(sp)
f8002100:	04012603          	lw	a2,64(sp)
f8002104:	00261613          	sll	a2,a2,0x2
f8002108:	23810693          	add	a3,sp,568
f800210c:	00c68633          	add	a2,a3,a2
f8002110:	00062683          	lw	a3,0(a2)
f8002114:	00a6f533          	and	a0,a3,a0
f8002118:	00a62023          	sw	a0,0(a2)
f800211c:	00198993          	add	s3,s3,1
f8002120:	00200513          	li	a0,2
f8002124:	f8a588e3          	beq	a1,a0,f80020b4 <_ZN4libm4math14rem_pio2_large14rem_pio2_large17h4432319de80002ffE+0x838>
f8002128:	00058d13          	mv	s10,a1
f800212c:	04412403          	lw	s0,68(sp)
f8002130:	000c0513          	mv	a0,s8
f8002134:	000c8593          	mv	a1,s9
f8002138:	00000613          	li	a2,0
f800213c:	00000693          	li	a3,0
f8002140:	00001097          	auipc	ra,0x1
f8002144:	508080e7          	jalr	1288(ra) # f8003648 <__eqdf2>
f8002148:	12051663          	bnez	a0,f8002274 <_ZN4libm4math14rem_pio2_large14rem_pio2_large17h4432319de80002ffE+0x9f8>
f800214c:	04012d83          	lw	s11,64(sp)
f8002150:	fffd8513          	add	a0,s11,-1 # 7fffffff <__stack_ptr+0x77ffffff>
f8002154:	03c12603          	lw	a2,60(sp)
f8002158:	000d8413          	mv	s0,s11
f800215c:	03556c63          	bltu	a0,s5,f8002194 <_ZN4libm4math14rem_pio2_large14rem_pio2_large17h4432319de80002ffE+0x918>
f8002160:	00000593          	li	a1,0
f8002164:	23c10693          	add	a3,sp,572
f8002168:	00251613          	sll	a2,a0,0x2
f800216c:	00c68633          	add	a2,a3,a2
f8002170:	00062603          	lw	a2,0(a2)
f8002174:	00b665b3          	or	a1,a2,a1
f8002178:	00aaf863          	bgeu	s5,a0,f8002188 <_ZN4libm4math14rem_pio2_large14rem_pio2_large17h4432319de80002ffE+0x90c>
f800217c:	00aab633          	sltu	a2,s5,a0
f8002180:	40c50533          	sub	a0,a0,a2
f8002184:	ff5572e3          	bgeu	a0,s5,f8002168 <_ZN4libm4math14rem_pio2_large14rem_pio2_large17h4432319de80002ffE+0x8ec>
f8002188:	03c12603          	lw	a2,60(sp)
f800218c:	000d8413          	mv	s0,s11
f8002190:	1a059c63          	bnez	a1,f8002348 <_ZN4libm4math14rem_pio2_large14rem_pio2_large17h4432319de80002ffE+0xacc>
f8002194:	00062503          	lw	a0,0(a2)
f8002198:	00140413          	add	s0,s0,1
f800219c:	ffc60613          	add	a2,a2,-4
f80021a0:	fe050ae3          	beqz	a0,f8002194 <_ZN4libm4math14rem_pio2_large14rem_pio2_large17h4432319de80002ffE+0x918>
f80021a4:	a48dfae3          	bgeu	s11,s0,f8001bf8 <_ZN4libm4math14rem_pio2_large14rem_pio2_large17h4432319de80002ffE+0x37c>
f80021a8:	001d8493          	add	s1,s11,1
f80021ac:	02812d83          	lw	s11,40(sp)
f80021b0:	0084bab3          	sltu	s5,s1,s0
f80021b4:	01b48533          	add	a0,s1,s11
f80021b8:	00251513          	sll	a0,a0,0x2
f80021bc:	04c12583          	lw	a1,76(sp)
f80021c0:	00a58533          	add	a0,a1,a0
f80021c4:	00052503          	lw	a0,0(a0)
f80021c8:	01648bb3          	add	s7,s1,s6
f80021cc:	003b9593          	sll	a1,s7,0x3
f80021d0:	00b90d33          	add	s10,s2,a1
f80021d4:	00001097          	auipc	ra,0x1
f80021d8:	9ac080e7          	jalr	-1620(ra) # f8002b80 <__floatsidf>
f80021dc:	00000993          	li	s3,0
f80021e0:	00000c13          	li	s8,0
f80021e4:	00000c93          	li	s9,0
f80021e8:	00bd2223          	sw	a1,4(s10)
f80021ec:	00ad2023          	sw	a0,0(s10)
f80021f0:	003c9513          	sll	a0,s9,0x3
f80021f4:	00aa05b3          	add	a1,s4,a0
f80021f8:	0005a503          	lw	a0,0(a1) # 3ff00000 <__stack_ptr+0x37f00000>
f80021fc:	0045a583          	lw	a1,4(a1)
f8002200:	419b8633          	sub	a2,s7,s9
f8002204:	00361613          	sll	a2,a2,0x3
f8002208:	00c906b3          	add	a3,s2,a2
f800220c:	0006a603          	lw	a2,0(a3) # 3fe00000 <__stack_ptr+0x37e00000>
f8002210:	0046a683          	lw	a3,4(a3)
f8002214:	00002097          	auipc	ra,0x2
f8002218:	490080e7          	jalr	1168(ra) # f80046a4 <__muldf3>
f800221c:	00050613          	mv	a2,a0
f8002220:	00058693          	mv	a3,a1
f8002224:	00098513          	mv	a0,s3
f8002228:	000c0593          	mv	a1,s8
f800222c:	00001097          	auipc	ra,0x1
f8002230:	404080e7          	jalr	1028(ra) # f8003630 <__adddf3>
f8002234:	00050993          	mv	s3,a0
f8002238:	00058c13          	mv	s8,a1
f800223c:	016cf863          	bgeu	s9,s6,f800224c <_ZN4libm4math14rem_pio2_large14rem_pio2_large17h4432319de80002ffE+0x9d0>
f8002240:	016cb533          	sltu	a0,s9,s6
f8002244:	00ac8cb3          	add	s9,s9,a0
f8002248:	fb9b74e3          	bgeu	s6,s9,f80021f0 <_ZN4libm4math14rem_pio2_large14rem_pio2_large17h4432319de80002ffE+0x974>
f800224c:	01548ab3          	add	s5,s1,s5
f8002250:	00349513          	sll	a0,s1,0x3
f8002254:	19810593          	add	a1,sp,408
f8002258:	00a58533          	add	a0,a1,a0
f800225c:	01852223          	sw	s8,4(a0)
f8002260:	01352023          	sw	s3,0(a0)
f8002264:	9884fae3          	bgeu	s1,s0,f8001bf8 <_ZN4libm4math14rem_pio2_large14rem_pio2_large17h4432319de80002ffE+0x37c>
f8002268:	000a8493          	mv	s1,s5
f800226c:	f55472e3          	bgeu	s0,s5,f80021b0 <_ZN4libm4math14rem_pio2_large14rem_pio2_large17h4432319de80002ffE+0x934>
f8002270:	989ff06f          	j	f8001bf8 <_ZN4libm4math14rem_pio2_large14rem_pio2_large17h4432319de80002ffE+0x37c>
f8002274:	40800433          	neg	s0,s0
f8002278:	3ff00513          	li	a0,1023
f800227c:	06855263          	bge	a0,s0,f80022e0 <_ZN4libm4math14rem_pio2_large14rem_pio2_large17h4432319de80002ffE+0xa64>
f8002280:	7fe006b7          	lui	a3,0x7fe00
f8002284:	000c0513          	mv	a0,s8
f8002288:	000c8593          	mv	a1,s9
f800228c:	00000613          	li	a2,0
f8002290:	00002097          	auipc	ra,0x2
f8002294:	414080e7          	jalr	1044(ra) # f80046a4 <__muldf3>
f8002298:	7fe00613          	li	a2,2046
f800229c:	00050c13          	mv	s8,a0
f80022a0:	00058c93          	mv	s9,a1
f80022a4:	10867863          	bgeu	a2,s0,f80023b4 <_ZN4libm4math14rem_pio2_large14rem_pio2_large17h4432319de80002ffE+0xb38>
f80022a8:	7fe006b7          	lui	a3,0x7fe00
f80022ac:	000c0513          	mv	a0,s8
f80022b0:	000c8593          	mv	a1,s9
f80022b4:	00000613          	li	a2,0
f80022b8:	00002097          	auipc	ra,0x2
f80022bc:	3ec080e7          	jalr	1004(ra) # f80046a4 <__muldf3>
f80022c0:	00001637          	lui	a2,0x1
f80022c4:	bfd60613          	add	a2,a2,-1027 # bfd <__global_pointer+0x3fd>
f80022c8:	00050c13          	mv	s8,a0
f80022cc:	00058c93          	mv	s9,a1
f80022d0:	00c44463          	blt	s0,a2,f80022d8 <_ZN4libm4math14rem_pio2_large14rem_pio2_large17h4432319de80002ffE+0xa5c>
f80022d4:	00060413          	mv	s0,a2
f80022d8:	80240413          	add	s0,s0,-2046
f80022dc:	0ec0006f          	j	f80023c8 <_ZN4libm4math14rem_pio2_large14rem_pio2_large17h4432319de80002ffE+0xb4c>
f80022e0:	c0200513          	li	a0,-1022
f80022e4:	0ea45263          	bge	s0,a0,f80023c8 <_ZN4libm4math14rem_pio2_large14rem_pio2_large17h4432319de80002ffE+0xb4c>
f80022e8:	036006b7          	lui	a3,0x3600
f80022ec:	000c0513          	mv	a0,s8
f80022f0:	000c8593          	mv	a1,s9
f80022f4:	00000613          	li	a2,0
f80022f8:	00002097          	auipc	ra,0x2
f80022fc:	3ac080e7          	jalr	940(ra) # f80046a4 <__muldf3>
f8002300:	83800613          	li	a2,-1992
f8002304:	00050c13          	mv	s8,a0
f8002308:	00058c93          	mv	s9,a1
f800230c:	0a866863          	bltu	a2,s0,f80023bc <_ZN4libm4math14rem_pio2_large14rem_pio2_large17h4432319de80002ffE+0xb40>
f8002310:	036006b7          	lui	a3,0x3600
f8002314:	000c0513          	mv	a0,s8
f8002318:	000c8593          	mv	a1,s9
f800231c:	00000613          	li	a2,0
f8002320:	00002097          	auipc	ra,0x2
f8002324:	384080e7          	jalr	900(ra) # f80046a4 <__muldf3>
f8002328:	fffff637          	lui	a2,0xfffff
f800232c:	47060613          	add	a2,a2,1136 # fffff470 <_etext+0x7ffab50>
f8002330:	00050c13          	mv	s8,a0
f8002334:	00058c93          	mv	s9,a1
f8002338:	00864463          	blt	a2,s0,f8002340 <_ZN4libm4math14rem_pio2_large14rem_pio2_large17h4432319de80002ffE+0xac4>
f800233c:	00060413          	mv	s0,a2
f8002340:	79240413          	add	s0,s0,1938
f8002344:	0840006f          	j	f80023c8 <_ZN4libm4math14rem_pio2_large14rem_pio2_large17h4432319de80002ffE+0xb4c>
f8002348:	002d9513          	sll	a0,s11,0x2
f800234c:	23c10593          	add	a1,sp,572
f8002350:	00a58533          	add	a0,a1,a0
f8002354:	ffc50513          	add	a0,a0,-4
f8002358:	04412603          	lw	a2,68(sp)
f800235c:	00052583          	lw	a1,0(a0)
f8002360:	fe860613          	add	a2,a2,-24
f8002364:	fffd8d93          	add	s11,s11,-1
f8002368:	ffc50513          	add	a0,a0,-4
f800236c:	fe0588e3          	beqz	a1,f800235c <_ZN4libm4math14rem_pio2_large14rem_pio2_large17h4432319de80002ffE+0xae0>
f8002370:	3ff00513          	li	a0,1023
f8002374:	05a12823          	sw	s10,80(sp)
f8002378:	2cc55663          	bge	a0,a2,f8002644 <_ZN4libm4math14rem_pio2_large14rem_pio2_large17h4432319de80002ffE+0xdc8>
f800237c:	7fe00513          	li	a0,2046
f8002380:	02c57263          	bgeu	a0,a2,f80023a4 <_ZN4libm4math14rem_pio2_large14rem_pio2_large17h4432319de80002ffE+0xb28>
f8002384:	00001537          	lui	a0,0x1
f8002388:	bfd50513          	add	a0,a0,-1027 # bfd <__global_pointer+0x3fd>
f800238c:	00a64463          	blt	a2,a0,f8002394 <_ZN4libm4math14rem_pio2_large14rem_pio2_large17h4432319de80002ffE+0xb18>
f8002390:	00050613          	mv	a2,a0
f8002394:	00000513          	li	a0,0
f8002398:	80260613          	add	a2,a2,-2046
f800239c:	7ff005b7          	lui	a1,0x7ff00
f80023a0:	2ec0006f          	j	f800268c <_ZN4libm4math14rem_pio2_large14rem_pio2_large17h4432319de80002ffE+0xe10>
f80023a4:	00000513          	li	a0,0
f80023a8:	c0160613          	add	a2,a2,-1023
f80023ac:	7fe005b7          	lui	a1,0x7fe00
f80023b0:	2dc0006f          	j	f800268c <_ZN4libm4math14rem_pio2_large14rem_pio2_large17h4432319de80002ffE+0xe10>
f80023b4:	c0100513          	li	a0,-1023
f80023b8:	0080006f          	j	f80023c0 <_ZN4libm4math14rem_pio2_large14rem_pio2_large17h4432319de80002ffE+0xb44>
f80023bc:	3c900513          	li	a0,969
f80023c0:	04412583          	lw	a1,68(sp)
f80023c4:	40b50433          	sub	s0,a0,a1
f80023c8:	3ff40693          	add	a3,s0,1023
f80023cc:	01469693          	sll	a3,a3,0x14
f80023d0:	000c0513          	mv	a0,s8
f80023d4:	000c8593          	mv	a1,s9
f80023d8:	00000613          	li	a2,0
f80023dc:	00002097          	auipc	ra,0x2
f80023e0:	2c8080e7          	jalr	712(ra) # f80046a4 <__muldf3>
f80023e4:	00050a13          	mv	s4,a0
f80023e8:	00058913          	mv	s2,a1
f80023ec:	417006b7          	lui	a3,0x41700
f80023f0:	00000613          	li	a2,0
f80023f4:	00001097          	auipc	ra,0x1
f80023f8:	324080e7          	jalr	804(ra) # f8003718 <_ZN17compiler_builtins5float3cmp7__gedf217h971779a7d9c7f274E>
f80023fc:	00055663          	bgez	a0,f8002408 <_ZN4libm4math14rem_pio2_large14rem_pio2_large17h4432319de80002ffE+0xb8c>
f8002400:	04012d83          	lw	s11,64(sp)
f8002404:	1980006f          	j	f800259c <_ZN4libm4math14rem_pio2_large14rem_pio2_large17h4432319de80002ffE+0xd20>
f8002408:	3e7006b7          	lui	a3,0x3e700
f800240c:	000a0513          	mv	a0,s4
f8002410:	00090593          	mv	a1,s2
f8002414:	00000613          	li	a2,0
f8002418:	00002097          	auipc	ra,0x2
f800241c:	28c080e7          	jalr	652(ra) # f80046a4 <__muldf3>
f8002420:	00050b93          	mv	s7,a0
f8002424:	00058c13          	mv	s8,a1
f8002428:	c1e006b7          	lui	a3,0xc1e00
f800242c:	00000613          	li	a2,0
f8002430:	00001097          	auipc	ra,0x1
f8002434:	2e8080e7          	jalr	744(ra) # f8003718 <_ZN17compiler_builtins5float3cmp7__gedf217h971779a7d9c7f274E>
f8002438:	00050493          	mv	s1,a0
f800243c:	000b8513          	mv	a0,s7
f8002440:	000c0593          	mv	a1,s8
f8002444:	00001097          	auipc	ra,0x1
f8002448:	6f4080e7          	jalr	1780(ra) # f8003b38 <__fixdfsi>
f800244c:	00050c93          	mv	s9,a0
f8002450:	80000437          	lui	s0,0x80000
f8002454:	0004d463          	bgez	s1,f800245c <_ZN4libm4math14rem_pio2_large14rem_pio2_large17h4432319de80002ffE+0xbe0>
f8002458:	80000cb7          	lui	s9,0x80000
f800245c:	05a12823          	sw	s10,80(sp)
f8002460:	41e00b37          	lui	s6,0x41e00
f8002464:	fffb0b13          	add	s6,s6,-1 # 41dfffff <__stack_ptr+0x39dfffff>
f8002468:	ffc00637          	lui	a2,0xffc00
f800246c:	000b8513          	mv	a0,s7
f8002470:	000c0593          	mv	a1,s8
f8002474:	000b0693          	mv	a3,s6
f8002478:	00001097          	auipc	ra,0x1
f800247c:	364080e7          	jalr	868(ra) # f80037dc <__gtdf2>
f8002480:	fff40413          	add	s0,s0,-1 # 7fffffff <__stack_ptr+0x77ffffff>
f8002484:	00a05463          	blez	a0,f800248c <_ZN4libm4math14rem_pio2_large14rem_pio2_large17h4432319de80002ffE+0xc10>
f8002488:	00040c93          	mv	s9,s0
f800248c:	000b8513          	mv	a0,s7
f8002490:	000c0593          	mv	a1,s8
f8002494:	000b8613          	mv	a2,s7
f8002498:	000c0693          	mv	a3,s8
f800249c:	00001097          	auipc	ra,0x1
f80024a0:	404080e7          	jalr	1028(ra) # f80038a0 <__unorddf2>
f80024a4:	00a03533          	snez	a0,a0
f80024a8:	fff50513          	add	a0,a0,-1
f80024ac:	01957533          	and	a0,a0,s9
f80024b0:	00000097          	auipc	ra,0x0
f80024b4:	6d0080e7          	jalr	1744(ra) # f8002b80 <__floatsidf>
f80024b8:	00050b93          	mv	s7,a0
f80024bc:	00058c13          	mv	s8,a1
f80024c0:	c17006b7          	lui	a3,0xc1700
f80024c4:	00000613          	li	a2,0
f80024c8:	00002097          	auipc	ra,0x2
f80024cc:	1dc080e7          	jalr	476(ra) # f80046a4 <__muldf3>
f80024d0:	00050613          	mv	a2,a0
f80024d4:	00058693          	mv	a3,a1
f80024d8:	000a0513          	mv	a0,s4
f80024dc:	00090593          	mv	a1,s2
f80024e0:	00001097          	auipc	ra,0x1
f80024e4:	150080e7          	jalr	336(ra) # f8003630 <__adddf3>
f80024e8:	00050a13          	mv	s4,a0
f80024ec:	00058a93          	mv	s5,a1
f80024f0:	04012903          	lw	s2,64(sp)
f80024f4:	00291913          	sll	s2,s2,0x2
f80024f8:	23c10d13          	add	s10,sp,572
f80024fc:	c1e006b7          	lui	a3,0xc1e00
f8002500:	00000613          	li	a2,0
f8002504:	00001097          	auipc	ra,0x1
f8002508:	214080e7          	jalr	532(ra) # f8003718 <_ZN17compiler_builtins5float3cmp7__gedf217h971779a7d9c7f274E>
f800250c:	00050493          	mv	s1,a0
f8002510:	000a0513          	mv	a0,s4
f8002514:	000a8593          	mv	a1,s5
f8002518:	00001097          	auipc	ra,0x1
f800251c:	620080e7          	jalr	1568(ra) # f8003b38 <__fixdfsi>
f8002520:	00050c93          	mv	s9,a0
f8002524:	0004d463          	bgez	s1,f800252c <_ZN4libm4math14rem_pio2_large14rem_pio2_large17h4432319de80002ffE+0xcb0>
f8002528:	80000cb7          	lui	s9,0x80000
f800252c:	012d04b3          	add	s1,s10,s2
f8002530:	ffc00637          	lui	a2,0xffc00
f8002534:	000a0513          	mv	a0,s4
f8002538:	000a8593          	mv	a1,s5
f800253c:	000b0693          	mv	a3,s6
f8002540:	00001097          	auipc	ra,0x1
f8002544:	29c080e7          	jalr	668(ra) # f80037dc <__gtdf2>
f8002548:	00a05463          	blez	a0,f8002550 <_ZN4libm4math14rem_pio2_large14rem_pio2_large17h4432319de80002ffE+0xcd4>
f800254c:	00040c93          	mv	s9,s0
f8002550:	000a0513          	mv	a0,s4
f8002554:	000a8593          	mv	a1,s5
f8002558:	000a0613          	mv	a2,s4
f800255c:	000a8693          	mv	a3,s5
f8002560:	00001097          	auipc	ra,0x1
f8002564:	340080e7          	jalr	832(ra) # f80038a0 <__unorddf2>
f8002568:	00a03533          	snez	a0,a0
f800256c:	fff50513          	add	a0,a0,-1
f8002570:	01957533          	and	a0,a0,s9
f8002574:	00a4a023          	sw	a0,0(s1)
f8002578:	04012d83          	lw	s11,64(sp)
f800257c:	001d8d93          	add	s11,s11,1
f8002580:	00812503          	lw	a0,8(sp)
f8002584:	00412583          	lw	a1,4(sp)
f8002588:	00a58533          	add	a0,a1,a0
f800258c:	04a12223          	sw	a0,68(sp)
f8002590:	000b8a13          	mv	s4,s7
f8002594:	000c0913          	mv	s2,s8
f8002598:	05012d03          	lw	s10,80(sp)
f800259c:	002d9413          	sll	s0,s11,0x2
f80025a0:	23c10a93          	add	s5,sp,572
f80025a4:	41e006b7          	lui	a3,0x41e00
f80025a8:	fff68693          	add	a3,a3,-1 # 41dfffff <__stack_ptr+0x39dfffff>
f80025ac:	ffc00637          	lui	a2,0xffc00
f80025b0:	000a0513          	mv	a0,s4
f80025b4:	00090593          	mv	a1,s2
f80025b8:	00001097          	auipc	ra,0x1
f80025bc:	224080e7          	jalr	548(ra) # f80037dc <__gtdf2>
f80025c0:	00050b93          	mv	s7,a0
f80025c4:	c1e006b7          	lui	a3,0xc1e00
f80025c8:	000a0513          	mv	a0,s4
f80025cc:	00090593          	mv	a1,s2
f80025d0:	00000613          	li	a2,0
f80025d4:	00001097          	auipc	ra,0x1
f80025d8:	144080e7          	jalr	324(ra) # f8003718 <_ZN17compiler_builtins5float3cmp7__gedf217h971779a7d9c7f274E>
f80025dc:	00050493          	mv	s1,a0
f80025e0:	000a0513          	mv	a0,s4
f80025e4:	00090593          	mv	a1,s2
f80025e8:	00001097          	auipc	ra,0x1
f80025ec:	550080e7          	jalr	1360(ra) # f8003b38 <__fixdfsi>
f80025f0:	00050b13          	mv	s6,a0
f80025f4:	80000537          	lui	a0,0x80000
f80025f8:	0004d463          	bgez	s1,f8002600 <_ZN4libm4math14rem_pio2_large14rem_pio2_large17h4432319de80002ffE+0xd84>
f80025fc:	80000b37          	lui	s6,0x80000
f8002600:	008a8433          	add	s0,s5,s0
f8002604:	01705463          	blez	s7,f800260c <_ZN4libm4math14rem_pio2_large14rem_pio2_large17h4432319de80002ffE+0xd90>
f8002608:	fff50b13          	add	s6,a0,-1 # 7fffffff <__stack_ptr+0x77ffffff>
f800260c:	000a0513          	mv	a0,s4
f8002610:	00090593          	mv	a1,s2
f8002614:	000a0613          	mv	a2,s4
f8002618:	00090693          	mv	a3,s2
f800261c:	00001097          	auipc	ra,0x1
f8002620:	284080e7          	jalr	644(ra) # f80038a0 <__unorddf2>
f8002624:	00a03533          	snez	a0,a0
f8002628:	fff50513          	add	a0,a0,-1
f800262c:	01657533          	and	a0,a0,s6
f8002630:	00a42023          	sw	a0,0(s0)
f8002634:	04412603          	lw	a2,68(sp)
f8002638:	3ff00513          	li	a0,1023
f800263c:	05a12823          	sw	s10,80(sp)
f8002640:	d2c54ee3          	blt	a0,a2,f800237c <_ZN4libm4math14rem_pio2_large14rem_pio2_large17h4432319de80002ffE+0xb00>
f8002644:	c0200513          	li	a0,-1022
f8002648:	02a65663          	bge	a2,a0,f8002674 <_ZN4libm4math14rem_pio2_large14rem_pio2_large17h4432319de80002ffE+0xdf8>
f800264c:	83800513          	li	a0,-1992
f8002650:	02c56863          	bltu	a0,a2,f8002680 <_ZN4libm4math14rem_pio2_large14rem_pio2_large17h4432319de80002ffE+0xe04>
f8002654:	fffff537          	lui	a0,0xfffff
f8002658:	47050513          	add	a0,a0,1136 # fffff470 <_etext+0x7ffab50>
f800265c:	00c54463          	blt	a0,a2,f8002664 <_ZN4libm4math14rem_pio2_large14rem_pio2_large17h4432319de80002ffE+0xde8>
f8002660:	00050613          	mv	a2,a0
f8002664:	00000513          	li	a0,0
f8002668:	00000593          	li	a1,0
f800266c:	79260613          	add	a2,a2,1938 # ffc00792 <_etext+0x7bfbe72>
f8002670:	01c0006f          	j	f800268c <_ZN4libm4math14rem_pio2_large14rem_pio2_large17h4432319de80002ffE+0xe10>
f8002674:	00000513          	li	a0,0
f8002678:	3ff005b7          	lui	a1,0x3ff00
f800267c:	0100006f          	j	f800268c <_ZN4libm4math14rem_pio2_large14rem_pio2_large17h4432319de80002ffE+0xe10>
f8002680:	00000513          	li	a0,0
f8002684:	3c960613          	add	a2,a2,969
f8002688:	036005b7          	lui	a1,0x3600
f800268c:	05312a23          	sw	s3,84(sp)
f8002690:	3ff60693          	add	a3,a2,1023
f8002694:	01469693          	sll	a3,a3,0x14
f8002698:	00000613          	li	a2,0
f800269c:	00002097          	auipc	ra,0x2
f80026a0:	008080e7          	jalr	8(ra) # f80046a4 <__muldf3>
f80026a4:	00050913          	mv	s2,a0
f80026a8:	00058a13          	mv	s4,a1
f80026ac:	002d9493          	sll	s1,s11,0x2
f80026b0:	23c10513          	add	a0,sp,572
f80026b4:	009504b3          	add	s1,a0,s1
f80026b8:	003d9413          	sll	s0,s11,0x3
f80026bc:	19810a93          	add	s5,sp,408
f80026c0:	008a8ab3          	add	s5,s5,s0
f80026c4:	fff00b13          	li	s6,-1
f80026c8:	000d8b93          	mv	s7,s11
f80026cc:	0004a503          	lw	a0,0(s1)
f80026d0:	fffb8b93          	add	s7,s7,-1
f80026d4:	00000097          	auipc	ra,0x0
f80026d8:	4ac080e7          	jalr	1196(ra) # f8002b80 <__floatsidf>
f80026dc:	00050613          	mv	a2,a0
f80026e0:	00058693          	mv	a3,a1
f80026e4:	00090513          	mv	a0,s2
f80026e8:	000a0593          	mv	a1,s4
f80026ec:	00002097          	auipc	ra,0x2
f80026f0:	fb8080e7          	jalr	-72(ra) # f80046a4 <__muldf3>
f80026f4:	00baa223          	sw	a1,4(s5)
f80026f8:	00aaa023          	sw	a0,0(s5)
f80026fc:	3e7006b7          	lui	a3,0x3e700
f8002700:	00090513          	mv	a0,s2
f8002704:	000a0593          	mv	a1,s4
f8002708:	00000613          	li	a2,0
f800270c:	00002097          	auipc	ra,0x2
f8002710:	f98080e7          	jalr	-104(ra) # f80046a4 <__muldf3>
f8002714:	00050913          	mv	s2,a0
f8002718:	00058a13          	mv	s4,a1
f800271c:	ffc48493          	add	s1,s1,-4
f8002720:	ff8a8a93          	add	s5,s5,-8
f8002724:	fb6b94e3          	bne	s7,s6,f80026cc <_ZN4libm4math14rem_pio2_large14rem_pio2_large17h4432319de80002ffE+0xe50>
f8002728:	19810493          	add	s1,sp,408
f800272c:	04812623          	sw	s0,76(sp)
f8002730:	008484b3          	add	s1,s1,s0
f8002734:	f8005537          	lui	a0,0xf8005
f8002738:	8e050413          	add	s0,a0,-1824 # f80048e0 <.Lanon.1d99c4919ee1f97df7d753d2a2e76a27.2>
f800273c:	0f810b13          	add	s6,sp,248
f8002740:	000d8513          	mv	a0,s11
f8002744:	00050b93          	mv	s7,a0
f8002748:	000d8993          	mv	s3,s11
f800274c:	40ad8c33          	sub	s8,s11,a0
f8002750:	04812503          	lw	a0,72(sp)
f8002754:	00050d13          	mv	s10,a0
f8002758:	01856463          	bltu	a0,s8,f8002760 <_ZN4libm4math14rem_pio2_large14rem_pio2_large17h4432319de80002ffE+0xee4>
f800275c:	000c0d13          	mv	s10,s8
f8002760:	00000913          	li	s2,0
f8002764:	00000a13          	li	s4,0
f8002768:	00000c93          	li	s9,0
f800276c:	001d0d13          	add	s10,s10,1
f8002770:	00048d93          	mv	s11,s1
f8002774:	00040a93          	mv	s5,s0
f8002778:	000aa503          	lw	a0,0(s5)
f800277c:	004aa583          	lw	a1,4(s5)
f8002780:	000da603          	lw	a2,0(s11)
f8002784:	004da683          	lw	a3,4(s11)
f8002788:	00002097          	auipc	ra,0x2
f800278c:	f1c080e7          	jalr	-228(ra) # f80046a4 <__muldf3>
f8002790:	00050613          	mv	a2,a0
f8002794:	00058693          	mv	a3,a1
f8002798:	00090513          	mv	a0,s2
f800279c:	000a0593          	mv	a1,s4
f80027a0:	00001097          	auipc	ra,0x1
f80027a4:	e90080e7          	jalr	-368(ra) # f8003630 <__adddf3>
f80027a8:	00050913          	mv	s2,a0
f80027ac:	00058a13          	mv	s4,a1
f80027b0:	001c8c93          	add	s9,s9,1 # 80000001 <__stack_ptr+0x78000001>
f80027b4:	008a8a93          	add	s5,s5,8
f80027b8:	008d8d93          	add	s11,s11,8
f80027bc:	fb9d1ee3          	bne	s10,s9,f8002778 <_ZN4libm4math14rem_pio2_large14rem_pio2_large17h4432319de80002ffE+0xefc>
f80027c0:	fffb8513          	add	a0,s7,-1
f80027c4:	003c1c13          	sll	s8,s8,0x3
f80027c8:	018b0c33          	add	s8,s6,s8
f80027cc:	014c2223          	sw	s4,4(s8)
f80027d0:	012c2023          	sw	s2,0(s8)
f80027d4:	ff848493          	add	s1,s1,-8
f80027d8:	00098d93          	mv	s11,s3
f80027dc:	f60b94e3          	bnez	s7,f8002744 <_ZN4libm4math14rem_pio2_large14rem_pio2_large17h4432319de80002ffE+0xec8>
f80027e0:	00c12603          	lw	a2,12(sp)
f80027e4:	fff60513          	add	a0,a2,-1
f80027e8:	00200593          	li	a1,2
f80027ec:	0cb57063          	bgeu	a0,a1,f80028ac <_ZN4libm4math14rem_pio2_large14rem_pio2_large17h4432319de80002ffE+0x1030>
f80027f0:	00000513          	li	a0,0
f80027f4:	00000593          	li	a1,0
f80027f8:	0f810413          	add	s0,sp,248
f80027fc:	04c12603          	lw	a2,76(sp)
f8002800:	00c40433          	add	s0,s0,a2
f8002804:	fff00493          	li	s1,-1
f8002808:	000d8913          	mv	s2,s11
f800280c:	01012a03          	lw	s4,16(sp)
f8002810:	05412983          	lw	s3,84(sp)
f8002814:	05012a83          	lw	s5,80(sp)
f8002818:	00042603          	lw	a2,0(s0)
f800281c:	00442683          	lw	a3,4(s0)
f8002820:	fff90913          	add	s2,s2,-1
f8002824:	00001097          	auipc	ra,0x1
f8002828:	e0c080e7          	jalr	-500(ra) # f8003630 <__adddf3>
f800282c:	ff840413          	add	s0,s0,-8
f8002830:	fe9914e3          	bne	s2,s1,f8002818 <_ZN4libm4math14rem_pio2_large14rem_pio2_large17h4432319de80002ffE+0xf9c>
f8002834:	01503433          	snez	s0,s5
f8002838:	01f41413          	sll	s0,s0,0x1f
f800283c:	0f812703          	lw	a4,248(sp)
f8002840:	0fc12783          	lw	a5,252(sp)
f8002844:	0085c633          	xor	a2,a1,s0
f8002848:	00aa2023          	sw	a0,0(s4)
f800284c:	00ca2223          	sw	a2,4(s4)
f8002850:	00050613          	mv	a2,a0
f8002854:	00070513          	mv	a0,a4
f8002858:	00058693          	mv	a3,a1
f800285c:	00078593          	mv	a1,a5
f8002860:	00001097          	auipc	ra,0x1
f8002864:	dd8080e7          	jalr	-552(ra) # f8003638 <__subdf3>
f8002868:	020d8a63          	beqz	s11,f800289c <_ZN4libm4math14rem_pio2_large14rem_pio2_large17h4432319de80002ffE+0x1020>
f800286c:	00100493          	li	s1,1
f8002870:	0f810913          	add	s2,sp,248
f8002874:	00349613          	sll	a2,s1,0x3
f8002878:	00c906b3          	add	a3,s2,a2
f800287c:	0006a603          	lw	a2,0(a3) # 3e700000 <__stack_ptr+0x36700000>
f8002880:	0046a683          	lw	a3,4(a3)
f8002884:	00001097          	auipc	ra,0x1
f8002888:	dac080e7          	jalr	-596(ra) # f8003630 <__adddf3>
f800288c:	01b4f863          	bgeu	s1,s11,f800289c <_ZN4libm4math14rem_pio2_large14rem_pio2_large17h4432319de80002ffE+0x1020>
f8002890:	01b4b633          	sltu	a2,s1,s11
f8002894:	00c484b3          	add	s1,s1,a2
f8002898:	fc9dfee3          	bgeu	s11,s1,f8002874 <_ZN4libm4math14rem_pio2_large14rem_pio2_large17h4432319de80002ffE+0xff8>
f800289c:	0085c5b3          	xor	a1,a1,s0
f80028a0:	00aa2423          	sw	a0,8(s4)
f80028a4:	00ba2623          	sw	a1,12(s4)
f80028a8:	2980006f          	j	f8002b40 <_ZN4libm4math14rem_pio2_large14rem_pio2_large17h4432319de80002ffE+0x12c4>
f80028ac:	00300513          	li	a0,3
f80028b0:	01012a83          	lw	s5,16(sp)
f80028b4:	05012b83          	lw	s7,80(sp)
f80028b8:	0ca61663          	bne	a2,a0,f8002984 <_ZN4libm4math14rem_pio2_large14rem_pio2_large17h4432319de80002ffE+0x1108>
f80028bc:	100d8c63          	beqz	s11,f80029d4 <_ZN4libm4math14rem_pio2_large14rem_pio2_large17h4432319de80002ffE+0x1158>
f80028c0:	00200c13          	li	s8,2
f80028c4:	018df663          	bgeu	s11,s8,f80028d0 <_ZN4libm4math14rem_pio2_large14rem_pio2_large17h4432319de80002ffE+0x1054>
f80028c8:	00100d13          	li	s10,1
f80028cc:	0080006f          	j	f80028d4 <_ZN4libm4math14rem_pio2_large14rem_pio2_large17h4432319de80002ffE+0x1058>
f80028d0:	fffd8d13          	add	s10,s11,-1
f80028d4:	003d9513          	sll	a0,s11,0x3
f80028d8:	0f010413          	add	s0,sp,240
f80028dc:	00a40433          	add	s0,s0,a0
f80028e0:	00042483          	lw	s1,0(s0)
f80028e4:	00442903          	lw	s2,4(s0)
f80028e8:	0f810c93          	add	s9,sp,248
f80028ec:	00ac8cb3          	add	s9,s9,a0
f80028f0:	000caa03          	lw	s4,0(s9)
f80028f4:	004caa83          	lw	s5,4(s9)
f80028f8:	00048513          	mv	a0,s1
f80028fc:	00090593          	mv	a1,s2
f8002900:	000a0613          	mv	a2,s4
f8002904:	000a8693          	mv	a3,s5
f8002908:	00001097          	auipc	ra,0x1
f800290c:	d28080e7          	jalr	-728(ra) # f8003630 <__adddf3>
f8002910:	00050b13          	mv	s6,a0
f8002914:	00058b93          	mv	s7,a1
f8002918:	00048513          	mv	a0,s1
f800291c:	00090593          	mv	a1,s2
f8002920:	000b0613          	mv	a2,s6
f8002924:	000b8693          	mv	a3,s7
f8002928:	00001097          	auipc	ra,0x1
f800292c:	d10080e7          	jalr	-752(ra) # f8003638 <__subdf3>
f8002930:	00050613          	mv	a2,a0
f8002934:	00058693          	mv	a3,a1
f8002938:	000a0513          	mv	a0,s4
f800293c:	000a8593          	mv	a1,s5
f8002940:	00001097          	auipc	ra,0x1
f8002944:	cf0080e7          	jalr	-784(ra) # f8003630 <__adddf3>
f8002948:	00aca023          	sw	a0,0(s9)
f800294c:	00bca223          	sw	a1,4(s9)
f8002950:	01642023          	sw	s6,0(s0)
f8002954:	01742223          	sw	s7,4(s0)
f8002958:	018de663          	bltu	s11,s8,f8002964 <_ZN4libm4math14rem_pio2_large14rem_pio2_large17h4432319de80002ffE+0x10e8>
f800295c:	000d0d93          	mv	s11,s10
f8002960:	f60d12e3          	bnez	s10,f80028c4 <_ZN4libm4math14rem_pio2_large14rem_pio2_large17h4432319de80002ffE+0x1048>
f8002964:	00100513          	li	a0,1
f8002968:	06a99e63          	bne	s3,a0,f80029e4 <_ZN4libm4math14rem_pio2_large14rem_pio2_large17h4432319de80002ffE+0x1168>
f800296c:	00000513          	li	a0,0
f8002970:	00000593          	li	a1,0
f8002974:	01012a83          	lw	s5,16(sp)
f8002978:	05412983          	lw	s3,84(sp)
f800297c:	05012b83          	lw	s7,80(sp)
f8002980:	1680006f          	j	f8002ae8 <_ZN4libm4math14rem_pio2_large14rem_pio2_large17h4432319de80002ffE+0x126c>
f8002984:	00000513          	li	a0,0
f8002988:	00000593          	li	a1,0
f800298c:	0f810413          	add	s0,sp,248
f8002990:	04c12603          	lw	a2,76(sp)
f8002994:	00c40433          	add	s0,s0,a2
f8002998:	fff00493          	li	s1,-1
f800299c:	05412983          	lw	s3,84(sp)
f80029a0:	00042603          	lw	a2,0(s0)
f80029a4:	00442683          	lw	a3,4(s0)
f80029a8:	fffd8d93          	add	s11,s11,-1
f80029ac:	00001097          	auipc	ra,0x1
f80029b0:	c84080e7          	jalr	-892(ra) # f8003630 <__adddf3>
f80029b4:	ff840413          	add	s0,s0,-8
f80029b8:	fe9d94e3          	bne	s11,s1,f80029a0 <_ZN4libm4math14rem_pio2_large14rem_pio2_large17h4432319de80002ffE+0x1124>
f80029bc:	01703633          	snez	a2,s7
f80029c0:	01f61613          	sll	a2,a2,0x1f
f80029c4:	00c5c5b3          	xor	a1,a1,a2
f80029c8:	00aaa023          	sw	a0,0(s5)
f80029cc:	00baa223          	sw	a1,4(s5)
f80029d0:	1700006f          	j	f8002b40 <_ZN4libm4math14rem_pio2_large14rem_pio2_large17h4432319de80002ffE+0x12c4>
f80029d4:	00000513          	li	a0,0
f80029d8:	00000593          	li	a1,0
f80029dc:	05412983          	lw	s3,84(sp)
f80029e0:	1080006f          	j	f8002ae8 <_ZN4libm4math14rem_pio2_large14rem_pio2_large17h4432319de80002ffE+0x126c>
f80029e4:	00098d93          	mv	s11,s3
f80029e8:	00300c93          	li	s9,3
f80029ec:	019df663          	bgeu	s11,s9,f80029f8 <_ZN4libm4math14rem_pio2_large14rem_pio2_large17h4432319de80002ffE+0x117c>
f80029f0:	00200d13          	li	s10,2
f80029f4:	0080006f          	j	f80029fc <_ZN4libm4math14rem_pio2_large14rem_pio2_large17h4432319de80002ffE+0x1180>
f80029f8:	fffd8d13          	add	s10,s11,-1
f80029fc:	003d9513          	sll	a0,s11,0x3
f8002a00:	0f010413          	add	s0,sp,240
f8002a04:	00a40433          	add	s0,s0,a0
f8002a08:	00042483          	lw	s1,0(s0)
f8002a0c:	00442903          	lw	s2,4(s0)
f8002a10:	0f810c13          	add	s8,sp,248
f8002a14:	00ac0c33          	add	s8,s8,a0
f8002a18:	000c2a03          	lw	s4,0(s8)
f8002a1c:	004c2a83          	lw	s5,4(s8)
f8002a20:	00048513          	mv	a0,s1
f8002a24:	00090593          	mv	a1,s2
f8002a28:	000a0613          	mv	a2,s4
f8002a2c:	000a8693          	mv	a3,s5
f8002a30:	00001097          	auipc	ra,0x1
f8002a34:	c00080e7          	jalr	-1024(ra) # f8003630 <__adddf3>
f8002a38:	00050b13          	mv	s6,a0
f8002a3c:	00058b93          	mv	s7,a1
f8002a40:	00048513          	mv	a0,s1
f8002a44:	00090593          	mv	a1,s2
f8002a48:	000b0613          	mv	a2,s6
f8002a4c:	000b8693          	mv	a3,s7
f8002a50:	00001097          	auipc	ra,0x1
f8002a54:	be8080e7          	jalr	-1048(ra) # f8003638 <__subdf3>
f8002a58:	00050613          	mv	a2,a0
f8002a5c:	00058693          	mv	a3,a1
f8002a60:	000a0513          	mv	a0,s4
f8002a64:	000a8593          	mv	a1,s5
f8002a68:	00001097          	auipc	ra,0x1
f8002a6c:	bc8080e7          	jalr	-1080(ra) # f8003630 <__adddf3>
f8002a70:	00ac2023          	sw	a0,0(s8)
f8002a74:	00bc2223          	sw	a1,4(s8)
f8002a78:	01642023          	sw	s6,0(s0)
f8002a7c:	01742223          	sw	s7,4(s0)
f8002a80:	00098b13          	mv	s6,s3
f8002a84:	019de863          	bltu	s11,s9,f8002a94 <_ZN4libm4math14rem_pio2_large14rem_pio2_large17h4432319de80002ffE+0x1218>
f8002a88:	000d0d93          	mv	s11,s10
f8002a8c:	00100513          	li	a0,1
f8002a90:	f5a56ee3          	bltu	a0,s10,f80029ec <_ZN4libm4math14rem_pio2_large14rem_pio2_large17h4432319de80002ffE+0x1170>
f8002a94:	00000513          	li	a0,0
f8002a98:	00000593          	li	a1,0
f8002a9c:	00300413          	li	s0,3
f8002aa0:	0f810493          	add	s1,sp,248
f8002aa4:	00100913          	li	s2,1
f8002aa8:	01012a83          	lw	s5,16(sp)
f8002aac:	05412983          	lw	s3,84(sp)
f8002ab0:	05012b83          	lw	s7,80(sp)
f8002ab4:	008b7663          	bgeu	s6,s0,f8002ac0 <_ZN4libm4math14rem_pio2_large14rem_pio2_large17h4432319de80002ffE+0x1244>
f8002ab8:	00200a13          	li	s4,2
f8002abc:	0080006f          	j	f8002ac4 <_ZN4libm4math14rem_pio2_large14rem_pio2_large17h4432319de80002ffE+0x1248>
f8002ac0:	fffb0a13          	add	s4,s6,-1 # 7fffffff <__stack_ptr+0x77ffffff>
f8002ac4:	003b1613          	sll	a2,s6,0x3
f8002ac8:	00c486b3          	add	a3,s1,a2
f8002acc:	0006a603          	lw	a2,0(a3)
f8002ad0:	0046a683          	lw	a3,4(a3)
f8002ad4:	00001097          	auipc	ra,0x1
f8002ad8:	b5c080e7          	jalr	-1188(ra) # f8003630 <__adddf3>
f8002adc:	008b6663          	bltu	s6,s0,f8002ae8 <_ZN4libm4math14rem_pio2_large14rem_pio2_large17h4432319de80002ffE+0x126c>
f8002ae0:	000a0b13          	mv	s6,s4
f8002ae4:	fd4968e3          	bltu	s2,s4,f8002ab4 <_ZN4libm4math14rem_pio2_large14rem_pio2_large17h4432319de80002ffE+0x1238>
f8002ae8:	0fc12683          	lw	a3,252(sp)
f8002aec:	0f812603          	lw	a2,248(sp)
f8002af0:	020b8863          	beqz	s7,f8002b20 <_ZN4libm4math14rem_pio2_large14rem_pio2_large17h4432319de80002ffE+0x12a4>
f8002af4:	80000737          	lui	a4,0x80000
f8002af8:	00e6c6b3          	xor	a3,a3,a4
f8002afc:	10412783          	lw	a5,260(sp)
f8002b00:	10012803          	lw	a6,256(sp)
f8002b04:	00caa023          	sw	a2,0(s5)
f8002b08:	00daa223          	sw	a3,4(s5)
f8002b0c:	00e7c7b3          	xor	a5,a5,a4
f8002b10:	010aa423          	sw	a6,8(s5)
f8002b14:	00faa623          	sw	a5,12(s5)
f8002b18:	00e5c5b3          	xor	a1,a1,a4
f8002b1c:	01c0006f          	j	f8002b38 <_ZN4libm4math14rem_pio2_large14rem_pio2_large17h4432319de80002ffE+0x12bc>
f8002b20:	10412703          	lw	a4,260(sp)
f8002b24:	10012783          	lw	a5,256(sp)
f8002b28:	00caa023          	sw	a2,0(s5)
f8002b2c:	00daa223          	sw	a3,4(s5)
f8002b30:	00eaa623          	sw	a4,12(s5)
f8002b34:	00faa423          	sw	a5,8(s5)
f8002b38:	00aaa823          	sw	a0,16(s5)
f8002b3c:	00baaa23          	sw	a1,20(s5)
f8002b40:	0079f513          	and	a0,s3,7
f8002b44:	2bc12083          	lw	ra,700(sp)
f8002b48:	2b812403          	lw	s0,696(sp)
f8002b4c:	2b412483          	lw	s1,692(sp)
f8002b50:	2b012903          	lw	s2,688(sp)
f8002b54:	2ac12983          	lw	s3,684(sp)
f8002b58:	2a812a03          	lw	s4,680(sp)
f8002b5c:	2a412a83          	lw	s5,676(sp)
f8002b60:	2a012b03          	lw	s6,672(sp)
f8002b64:	29c12b83          	lw	s7,668(sp)
f8002b68:	29812c03          	lw	s8,664(sp)
f8002b6c:	29412c83          	lw	s9,660(sp)
f8002b70:	29012d03          	lw	s10,656(sp)
f8002b74:	28c12d83          	lw	s11,652(sp)
f8002b78:	2c010113          	add	sp,sp,704
f8002b7c:	00008067          	ret

f8002b80 <__floatsidf>:
f8002b80:	0a050063          	beqz	a0,f8002c20 <__floatsidf+0xa0>
f8002b84:	41f55593          	sra	a1,a0,0x1f
f8002b88:	00b54633          	xor	a2,a0,a1
f8002b8c:	40b605b3          	sub	a1,a2,a1
f8002b90:	0015d613          	srl	a2,a1,0x1
f8002b94:	00c5e6b3          	or	a3,a1,a2
f8002b98:	0026d713          	srl	a4,a3,0x2
f8002b9c:	00e6e6b3          	or	a3,a3,a4
f8002ba0:	0046d713          	srl	a4,a3,0x4
f8002ba4:	00e6e6b3          	or	a3,a3,a4
f8002ba8:	0086d713          	srl	a4,a3,0x8
f8002bac:	00e6e6b3          	or	a3,a3,a4
f8002bb0:	0106d713          	srl	a4,a3,0x10
f8002bb4:	00e6e6b3          	or	a3,a3,a4
f8002bb8:	fff6c693          	not	a3,a3
f8002bbc:	0016d713          	srl	a4,a3,0x1
f8002bc0:	555557b7          	lui	a5,0x55555
f8002bc4:	55578793          	add	a5,a5,1365 # 55555555 <__stack_ptr+0x4d555555>
f8002bc8:	00f77733          	and	a4,a4,a5
f8002bcc:	40e686b3          	sub	a3,a3,a4
f8002bd0:	33333737          	lui	a4,0x33333
f8002bd4:	33370713          	add	a4,a4,819 # 33333333 <__stack_ptr+0x2b333333>
f8002bd8:	00e6f7b3          	and	a5,a3,a4
f8002bdc:	0026d693          	srl	a3,a3,0x2
f8002be0:	00e6f6b3          	and	a3,a3,a4
f8002be4:	00d786b3          	add	a3,a5,a3
f8002be8:	0046d713          	srl	a4,a3,0x4
f8002bec:	00e686b3          	add	a3,a3,a4
f8002bf0:	0f0f1737          	lui	a4,0xf0f1
f8002bf4:	f0f70713          	add	a4,a4,-241 # f0f0f0f <__stack_ptr+0x70f0f0f>
f8002bf8:	00e6f6b3          	and	a3,a3,a4
f8002bfc:	01010737          	lui	a4,0x1010
f8002c00:	10170713          	add	a4,a4,257 # 1010101 <__global_pointer+0x100f901>
f8002c04:	02e686b3          	mul	a3,a3,a4
f8002c08:	0186d693          	srl	a3,a3,0x18
f8002c0c:	ff568713          	add	a4,a3,-11
f8002c10:	01568793          	add	a5,a3,21
f8002c14:	00074c63          	bltz	a4,f8002c2c <__floatsidf+0xac>
f8002c18:	00e59833          	sll	a6,a1,a4
f8002c1c:	01c0006f          	j	f8002c38 <__floatsidf+0xb8>
f8002c20:	00000613          	li	a2,0
f8002c24:	00000813          	li	a6,0
f8002c28:	02c0006f          	j	f8002c54 <__floatsidf+0xd4>
f8002c2c:	00a00813          	li	a6,10
f8002c30:	40d80833          	sub	a6,a6,a3
f8002c34:	01065833          	srl	a6,a2,a6
f8002c38:	00f595b3          	sll	a1,a1,a5
f8002c3c:	41f75613          	sra	a2,a4,0x1f
f8002c40:	00b67633          	and	a2,a2,a1
f8002c44:	41d00593          	li	a1,1053
f8002c48:	40d585b3          	sub	a1,a1,a3
f8002c4c:	01459593          	sll	a1,a1,0x14
f8002c50:	01058833          	add	a6,a1,a6
f8002c54:	800005b7          	lui	a1,0x80000
f8002c58:	00b57533          	and	a0,a0,a1
f8002c5c:	00a865b3          	or	a1,a6,a0
f8002c60:	00060513          	mv	a0,a2
f8002c64:	00008067          	ret

f8002c68 <__extendsfdf2>:
f8002c68:	00151593          	sll	a1,a0,0x1
f8002c6c:	0015d593          	srl	a1,a1,0x1
f8002c70:	ff800637          	lui	a2,0xff800
f8002c74:	00c58633          	add	a2,a1,a2
f8002c78:	01865613          	srl	a2,a2,0x18
f8002c7c:	07f00693          	li	a3,127
f8002c80:	00d67c63          	bgeu	a2,a3,f8002c98 <__extendsfdf2+0x30>
f8002c84:	01d59613          	sll	a2,a1,0x1d
f8002c88:	0035d593          	srl	a1,a1,0x3
f8002c8c:	380006b7          	lui	a3,0x38000
f8002c90:	00d585b3          	add	a1,a1,a3
f8002c94:	0ec0006f          	j	f8002d80 <__extendsfdf2+0x118>
f8002c98:	0175d613          	srl	a2,a1,0x17
f8002c9c:	0fe00693          	li	a3,254
f8002ca0:	00c6fa63          	bgeu	a3,a2,f8002cb4 <__extendsfdf2+0x4c>
f8002ca4:	01d59613          	sll	a2,a1,0x1d
f8002ca8:	0035d593          	srl	a1,a1,0x3
f8002cac:	7ff006b7          	lui	a3,0x7ff00
f8002cb0:	0cc0006f          	j	f8002d7c <__extendsfdf2+0x114>
f8002cb4:	08058e63          	beqz	a1,f8002d50 <__extendsfdf2+0xe8>
f8002cb8:	0015d613          	srl	a2,a1,0x1
f8002cbc:	00c5e6b3          	or	a3,a1,a2
f8002cc0:	0026d713          	srl	a4,a3,0x2
f8002cc4:	00e6e6b3          	or	a3,a3,a4
f8002cc8:	0046d713          	srl	a4,a3,0x4
f8002ccc:	00e6e6b3          	or	a3,a3,a4
f8002cd0:	0086d713          	srl	a4,a3,0x8
f8002cd4:	00e6e6b3          	or	a3,a3,a4
f8002cd8:	0106d713          	srl	a4,a3,0x10
f8002cdc:	00e6e6b3          	or	a3,a3,a4
f8002ce0:	fff6c693          	not	a3,a3
f8002ce4:	0016d713          	srl	a4,a3,0x1
f8002ce8:	555557b7          	lui	a5,0x55555
f8002cec:	55578793          	add	a5,a5,1365 # 55555555 <__stack_ptr+0x4d555555>
f8002cf0:	00f77733          	and	a4,a4,a5
f8002cf4:	40e686b3          	sub	a3,a3,a4
f8002cf8:	33333737          	lui	a4,0x33333
f8002cfc:	33370713          	add	a4,a4,819 # 33333333 <__stack_ptr+0x2b333333>
f8002d00:	00e6f7b3          	and	a5,a3,a4
f8002d04:	0026d693          	srl	a3,a3,0x2
f8002d08:	00e6f6b3          	and	a3,a3,a4
f8002d0c:	00d786b3          	add	a3,a5,a3
f8002d10:	0046d713          	srl	a4,a3,0x4
f8002d14:	00e686b3          	add	a3,a3,a4
f8002d18:	0f0f1737          	lui	a4,0xf0f1
f8002d1c:	f0f70713          	add	a4,a4,-241 # f0f0f0f <__stack_ptr+0x70f0f0f>
f8002d20:	00e6f6b3          	and	a3,a3,a4
f8002d24:	01010737          	lui	a4,0x1010
f8002d28:	10170713          	add	a4,a4,257 # 1010101 <__global_pointer+0x100f901>
f8002d2c:	02e686b3          	mul	a3,a3,a4
f8002d30:	0186d813          	srl	a6,a3,0x18
f8002d34:	38900693          	li	a3,905
f8002d38:	410686b3          	sub	a3,a3,a6
f8002d3c:	ff580713          	add	a4,a6,-11
f8002d40:	01580793          	add	a5,a6,21
f8002d44:	00074a63          	bltz	a4,f8002d58 <__extendsfdf2+0xf0>
f8002d48:	00e59833          	sll	a6,a1,a4
f8002d4c:	0180006f          	j	f8002d64 <__extendsfdf2+0xfc>
f8002d50:	00000613          	li	a2,0
f8002d54:	02c0006f          	j	f8002d80 <__extendsfdf2+0x118>
f8002d58:	00a00893          	li	a7,10
f8002d5c:	41088833          	sub	a6,a7,a6
f8002d60:	01065833          	srl	a6,a2,a6
f8002d64:	00f595b3          	sll	a1,a1,a5
f8002d68:	41f75613          	sra	a2,a4,0x1f
f8002d6c:	00b67633          	and	a2,a2,a1
f8002d70:	001005b7          	lui	a1,0x100
f8002d74:	00b845b3          	xor	a1,a6,a1
f8002d78:	01469693          	sll	a3,a3,0x14
f8002d7c:	00d5e5b3          	or	a1,a1,a3
f8002d80:	800006b7          	lui	a3,0x80000
f8002d84:	00d57533          	and	a0,a0,a3
f8002d88:	00a5e5b3          	or	a1,a1,a0
f8002d8c:	00060513          	mv	a0,a2
f8002d90:	00008067          	ret

f8002d94 <_ZN17compiler_builtins5float3mul8__mulsf317h70f634f41033e0baE>:
f8002d94:	00050613          	mv	a2,a0
f8002d98:	008006b7          	lui	a3,0x800
f8002d9c:	fff68693          	add	a3,a3,-1 # 7fffff <__global_pointer+0x7ff7ff>
f8002da0:	00151713          	sll	a4,a0,0x1
f8002da4:	01875713          	srl	a4,a4,0x18
f8002da8:	00159793          	sll	a5,a1,0x1
f8002dac:	0187d793          	srl	a5,a5,0x18
f8002db0:	00a5c533          	xor	a0,a1,a0
f8002db4:	800002b7          	lui	t0,0x80000
f8002db8:	00557533          	and	a0,a0,t0
f8002dbc:	00d67833          	and	a6,a2,a3
f8002dc0:	f0170393          	add	t2,a4,-255
f8002dc4:	f0200313          	li	t1,-254
f8002dc8:	00d5f8b3          	and	a7,a1,a3
f8002dcc:	0663ee63          	bltu	t2,t1,f8002e48 <_ZN17compiler_builtins5float3mul8__mulsf317h70f634f41033e0baE+0xb4>
f8002dd0:	f0178393          	add	t2,a5,-255
f8002dd4:	0663ea63          	bltu	t2,t1,f8002e48 <_ZN17compiler_builtins5float3mul8__mulsf317h70f634f41033e0baE+0xb4>
f8002dd8:	00000593          	li	a1,0
f8002ddc:	00800637          	lui	a2,0x800
f8002de0:	00c86833          	or	a6,a6,a2
f8002de4:	00889893          	sll	a7,a7,0x8
f8002de8:	80000637          	lui	a2,0x80000
f8002dec:	00c8e8b3          	or	a7,a7,a2
f8002df0:	03088633          	mul	a2,a7,a6
f8002df4:	0308b833          	mulhu	a6,a7,a6
f8002df8:	00e78733          	add	a4,a5,a4
f8002dfc:	00881793          	sll	a5,a6,0x8
f8002e00:	00b705b3          	add	a1,a4,a1
f8002e04:	0607c063          	bltz	a5,f8002e64 <_ZN17compiler_builtins5float3mul8__mulsf317h70f634f41033e0baE+0xd0>
f8002e08:	f8158593          	add	a1,a1,-127 # fff81 <__global_pointer+0xff781>
f8002e0c:	01f65713          	srl	a4,a2,0x1f
f8002e10:	00181813          	sll	a6,a6,0x1
f8002e14:	00e86833          	or	a6,a6,a4
f8002e18:	00161613          	sll	a2,a2,0x1
f8002e1c:	0fe00713          	li	a4,254
f8002e20:	04b74863          	blt	a4,a1,f8002e70 <_ZN17compiler_builtins5float3mul8__mulsf317h70f634f41033e0baE+0xdc>
f8002e24:	08b05063          	blez	a1,f8002ea4 <_ZN17compiler_builtins5float3mul8__mulsf317h70f634f41033e0baE+0x110>
f8002e28:	00d876b3          	and	a3,a6,a3
f8002e2c:	01759593          	sll	a1,a1,0x17
f8002e30:	00d5e5b3          	or	a1,a1,a3
f8002e34:	800006b7          	lui	a3,0x80000
f8002e38:	00a5e533          	or	a0,a1,a0
f8002e3c:	08c6fe63          	bgeu	a3,a2,f8002ed8 <_ZN17compiler_builtins5float3mul8__mulsf317h70f634f41033e0baE+0x144>
f8002e40:	00150513          	add	a0,a0,1
f8002e44:	00008067          	ret
f8002e48:	fff28313          	add	t1,t0,-1 # 7fffffff <__stack_ptr+0x77ffffff>
f8002e4c:	006672b3          	and	t0,a2,t1
f8002e50:	7f8003b7          	lui	t2,0x7f800
f8002e54:	0253f463          	bgeu	t2,t0,f8002e7c <_ZN17compiler_builtins5float3mul8__mulsf317h70f634f41033e0baE+0xe8>
f8002e58:	00400537          	lui	a0,0x400
f8002e5c:	00a66533          	or	a0,a2,a0
f8002e60:	00008067          	ret
f8002e64:	f8258593          	add	a1,a1,-126
f8002e68:	0fe00713          	li	a4,254
f8002e6c:	fab75ce3          	bge	a4,a1,f8002e24 <_ZN17compiler_builtins5float3mul8__mulsf317h70f634f41033e0baE+0x90>
f8002e70:	7f8005b7          	lui	a1,0x7f800
f8002e74:	00b56533          	or	a0,a0,a1
f8002e78:	00008067          	ret
f8002e7c:	0065f633          	and	a2,a1,t1
f8002e80:	00c3f863          	bgeu	t2,a2,f8002e90 <_ZN17compiler_builtins5float3mul8__mulsf317h70f634f41033e0baE+0xfc>
f8002e84:	00400537          	lui	a0,0x400
f8002e88:	00a5e533          	or	a0,a1,a0
f8002e8c:	00008067          	ret
f8002e90:	7f8005b7          	lui	a1,0x7f800
f8002e94:	04b29a63          	bne	t0,a1,f8002ee8 <_ZN17compiler_builtins5float3mul8__mulsf317h70f634f41033e0baE+0x154>
f8002e98:	fc061ee3          	bnez	a2,f8002e74 <_ZN17compiler_builtins5float3mul8__mulsf317h70f634f41033e0baE+0xe0>
f8002e9c:	7fc00537          	lui	a0,0x7fc00
f8002ea0:	00008067          	ret
f8002ea4:	00100693          	li	a3,1
f8002ea8:	40b686b3          	sub	a3,a3,a1
f8002eac:	01f00713          	li	a4,31
f8002eb0:	02d76a63          	bltu	a4,a3,f8002ee4 <_ZN17compiler_builtins5float3mul8__mulsf317h70f634f41033e0baE+0x150>
f8002eb4:	01f58593          	add	a1,a1,31 # 7f80001f <__stack_ptr+0x7780001f>
f8002eb8:	00d65733          	srl	a4,a2,a3
f8002ebc:	00c86633          	or	a2,a6,a2
f8002ec0:	00b61633          	sll	a2,a2,a1
f8002ec4:	00e66633          	or	a2,a2,a4
f8002ec8:	00d855b3          	srl	a1,a6,a3
f8002ecc:	800006b7          	lui	a3,0x80000
f8002ed0:	00a5e533          	or	a0,a1,a0
f8002ed4:	f6c6e6e3          	bltu	a3,a2,f8002e40 <_ZN17compiler_builtins5float3mul8__mulsf317h70f634f41033e0baE+0xac>
f8002ed8:	00d61663          	bne	a2,a3,f8002ee4 <_ZN17compiler_builtins5float3mul8__mulsf317h70f634f41033e0baE+0x150>
f8002edc:	0015f593          	and	a1,a1,1
f8002ee0:	00b50533          	add	a0,a0,a1
f8002ee4:	00008067          	ret
f8002ee8:	00b61863          	bne	a2,a1,f8002ef8 <_ZN17compiler_builtins5float3mul8__mulsf317h70f634f41033e0baE+0x164>
f8002eec:	f80294e3          	bnez	t0,f8002e74 <_ZN17compiler_builtins5float3mul8__mulsf317h70f634f41033e0baE+0xe0>
f8002ef0:	7fc00537          	lui	a0,0x7fc00
f8002ef4:	00008067          	ret
f8002ef8:	fe0286e3          	beqz	t0,f8002ee4 <_ZN17compiler_builtins5float3mul8__mulsf317h70f634f41033e0baE+0x150>
f8002efc:	fe0604e3          	beqz	a2,f8002ee4 <_ZN17compiler_builtins5float3mul8__mulsf317h70f634f41033e0baE+0x150>
f8002f00:	0172d593          	srl	a1,t0,0x17
f8002f04:	08059463          	bnez	a1,f8002f8c <_ZN17compiler_builtins5float3mul8__mulsf317h70f634f41033e0baE+0x1f8>
f8002f08:	08080663          	beqz	a6,f8002f94 <_ZN17compiler_builtins5float3mul8__mulsf317h70f634f41033e0baE+0x200>
f8002f0c:	00185593          	srl	a1,a6,0x1
f8002f10:	00b865b3          	or	a1,a6,a1
f8002f14:	0025d293          	srl	t0,a1,0x2
f8002f18:	0055e5b3          	or	a1,a1,t0
f8002f1c:	0045d293          	srl	t0,a1,0x4
f8002f20:	0055e5b3          	or	a1,a1,t0
f8002f24:	0085d293          	srl	t0,a1,0x8
f8002f28:	0055e5b3          	or	a1,a1,t0
f8002f2c:	0105d293          	srl	t0,a1,0x10
f8002f30:	0055e5b3          	or	a1,a1,t0
f8002f34:	fff5c593          	not	a1,a1
f8002f38:	0015d293          	srl	t0,a1,0x1
f8002f3c:	55555337          	lui	t1,0x55555
f8002f40:	55530313          	add	t1,t1,1365 # 55555555 <__stack_ptr+0x4d555555>
f8002f44:	0062f2b3          	and	t0,t0,t1
f8002f48:	405585b3          	sub	a1,a1,t0
f8002f4c:	333332b7          	lui	t0,0x33333
f8002f50:	33328293          	add	t0,t0,819 # 33333333 <__stack_ptr+0x2b333333>
f8002f54:	0055f333          	and	t1,a1,t0
f8002f58:	0025d593          	srl	a1,a1,0x2
f8002f5c:	0055f5b3          	and	a1,a1,t0
f8002f60:	00b305b3          	add	a1,t1,a1
f8002f64:	0045d293          	srl	t0,a1,0x4
f8002f68:	005585b3          	add	a1,a1,t0
f8002f6c:	0f0f12b7          	lui	t0,0xf0f1
f8002f70:	f0f28293          	add	t0,t0,-241 # f0f0f0f <__stack_ptr+0x70f0f0f>
f8002f74:	0055f5b3          	and	a1,a1,t0
f8002f78:	010102b7          	lui	t0,0x1010
f8002f7c:	10128293          	add	t0,t0,257 # 1010101 <__global_pointer+0x100f901>
f8002f80:	025585b3          	mul	a1,a1,t0
f8002f84:	0185d593          	srl	a1,a1,0x18
f8002f88:	0100006f          	j	f8002f98 <_ZN17compiler_builtins5float3mul8__mulsf317h70f634f41033e0baE+0x204>
f8002f8c:	00000593          	li	a1,0
f8002f90:	0180006f          	j	f8002fa8 <_ZN17compiler_builtins5float3mul8__mulsf317h70f634f41033e0baE+0x214>
f8002f94:	02000593          	li	a1,32
f8002f98:	01858293          	add	t0,a1,24
f8002f9c:	00900313          	li	t1,9
f8002fa0:	40b305b3          	sub	a1,t1,a1
f8002fa4:	00581833          	sll	a6,a6,t0
f8002fa8:	01765613          	srl	a2,a2,0x17
f8002fac:	e20618e3          	bnez	a2,f8002ddc <_ZN17compiler_builtins5float3mul8__mulsf317h70f634f41033e0baE+0x48>
f8002fb0:	08088263          	beqz	a7,f8003034 <_ZN17compiler_builtins5float3mul8__mulsf317h70f634f41033e0baE+0x2a0>
f8002fb4:	0018d613          	srl	a2,a7,0x1
f8002fb8:	00c8e633          	or	a2,a7,a2
f8002fbc:	00265293          	srl	t0,a2,0x2
f8002fc0:	00566633          	or	a2,a2,t0
f8002fc4:	00465293          	srl	t0,a2,0x4
f8002fc8:	00566633          	or	a2,a2,t0
f8002fcc:	00865293          	srl	t0,a2,0x8
f8002fd0:	00566633          	or	a2,a2,t0
f8002fd4:	01065293          	srl	t0,a2,0x10
f8002fd8:	00566633          	or	a2,a2,t0
f8002fdc:	fff64613          	not	a2,a2
f8002fe0:	00165293          	srl	t0,a2,0x1
f8002fe4:	55555337          	lui	t1,0x55555
f8002fe8:	55530313          	add	t1,t1,1365 # 55555555 <__stack_ptr+0x4d555555>
f8002fec:	0062f2b3          	and	t0,t0,t1
f8002ff0:	40560633          	sub	a2,a2,t0
f8002ff4:	333332b7          	lui	t0,0x33333
f8002ff8:	33328293          	add	t0,t0,819 # 33333333 <__stack_ptr+0x2b333333>
f8002ffc:	00567333          	and	t1,a2,t0
f8003000:	00265613          	srl	a2,a2,0x2
f8003004:	00567633          	and	a2,a2,t0
f8003008:	00c30633          	add	a2,t1,a2
f800300c:	00465293          	srl	t0,a2,0x4
f8003010:	00560633          	add	a2,a2,t0
f8003014:	0f0f12b7          	lui	t0,0xf0f1
f8003018:	f0f28293          	add	t0,t0,-241 # f0f0f0f <__stack_ptr+0x70f0f0f>
f800301c:	00567633          	and	a2,a2,t0
f8003020:	010102b7          	lui	t0,0x1010
f8003024:	10128293          	add	t0,t0,257 # 1010101 <__global_pointer+0x100f901>
f8003028:	02560633          	mul	a2,a2,t0
f800302c:	01865613          	srl	a2,a2,0x18
f8003030:	0080006f          	j	f8003038 <_ZN17compiler_builtins5float3mul8__mulsf317h70f634f41033e0baE+0x2a4>
f8003034:	02000613          	li	a2,32
f8003038:	01860293          	add	t0,a2,24 # 80000018 <__stack_ptr+0x78000018>
f800303c:	005898b3          	sll	a7,a7,t0
f8003040:	40c585b3          	sub	a1,a1,a2
f8003044:	00958593          	add	a1,a1,9
f8003048:	d95ff06f          	j	f8002ddc <_ZN17compiler_builtins5float3mul8__mulsf317h70f634f41033e0baE+0x48>

f800304c <_ZN17compiler_builtins5float3mul8__muldf317h9c96990b14960675E>:
f800304c:	ff010113          	add	sp,sp,-16
f8003050:	00812623          	sw	s0,12(sp)
f8003054:	00912423          	sw	s1,8(sp)
f8003058:	00058713          	mv	a4,a1
f800305c:	800002b7          	lui	t0,0x80000
f8003060:	001007b7          	lui	a5,0x100
f8003064:	fff78793          	add	a5,a5,-1 # fffff <__global_pointer+0xff7ff>
f8003068:	00159593          	sll	a1,a1,0x1
f800306c:	0155d813          	srl	a6,a1,0x15
f8003070:	00169593          	sll	a1,a3,0x1
f8003074:	0155d893          	srl	a7,a1,0x15
f8003078:	00e6c5b3          	xor	a1,a3,a4
f800307c:	0055f5b3          	and	a1,a1,t0
f8003080:	00f77333          	and	t1,a4,a5
f8003084:	80180393          	add	t2,a6,-2047
f8003088:	0103be33          	sltu	t3,t2,a6
f800308c:	8023b393          	sltiu	t2,t2,-2046
f8003090:	01c3ee33          	or	t3,t2,t3
f8003094:	00f6f3b3          	and	t2,a3,a5
f8003098:	0c0e1463          	bnez	t3,f8003160 <_ZN17compiler_builtins5float3mul8__muldf317h9c96990b14960675E+0x114>
f800309c:	80188e13          	add	t3,a7,-2047
f80030a0:	011e3eb3          	sltu	t4,t3,a7
f80030a4:	fffe8e93          	add	t4,t4,-1
f80030a8:	802e3e13          	sltiu	t3,t3,-2046
f80030ac:	fffebe93          	sltiu	t4,t4,-1
f80030b0:	01de6e33          	or	t3,t3,t4
f80030b4:	0a0e1663          	bnez	t3,f8003160 <_ZN17compiler_builtins5float3mul8__muldf317h9c96990b14960675E+0x114>
f80030b8:	00000693          	li	a3,0
f80030bc:	fff00e13          	li	t3,-1
f80030c0:	001e0e93          	add	t4,t3,1
f80030c4:	001eb713          	seqz	a4,t4
f80030c8:	00e78f33          	add	t5,a5,a4
f80030cc:	01e36733          	or	a4,t1,t5
f80030d0:	01d56333          	or	t1,a0,t4
f80030d4:	01565513          	srl	a0,a2,0x15
f80030d8:	00b39393          	sll	t2,t2,0xb
f80030dc:	00b61f93          	sll	t6,a2,0xb
f80030e0:	00556533          	or	a0,a0,t0
f80030e4:	00a3e533          	or	a0,t2,a0
f80030e8:	02650633          	mul	a2,a0,t1
f80030ec:	026fb2b3          	mulhu	t0,t6,t1
f80030f0:	005602b3          	add	t0,a2,t0
f80030f4:	00c2b633          	sltu	a2,t0,a2
f80030f8:	026533b3          	mulhu	t2,a0,t1
f80030fc:	00c383b3          	add	t2,t2,a2
f8003100:	02ef8433          	mul	s0,t6,a4
f8003104:	00540633          	add	a2,s0,t0
f8003108:	008632b3          	sltu	t0,a2,s0
f800310c:	02efb433          	mulhu	s0,t6,a4
f8003110:	005402b3          	add	t0,s0,t0
f8003114:	005382b3          	add	t0,t2,t0
f8003118:	0072b3b3          	sltu	t2,t0,t2
f800311c:	02e53433          	mulhu	s0,a0,a4
f8003120:	007403b3          	add	t2,s0,t2
f8003124:	02e50733          	mul	a4,a0,a4
f8003128:	00570533          	add	a0,a4,t0
f800312c:	00e532b3          	sltu	t0,a0,a4
f8003130:	005382b3          	add	t0,t2,t0
f8003134:	026f8733          	mul	a4,t6,t1
f8003138:	01088833          	add	a6,a7,a6
f800313c:	01e2f8b3          	and	a7,t0,t5
f8003140:	01d57333          	and	t1,a0,t4
f8003144:	011368b3          	or	a7,t1,a7
f8003148:	00d806b3          	add	a3,a6,a3
f800314c:	08088263          	beqz	a7,f80031d0 <_ZN17compiler_builtins5float3mul8__muldf317h9c96990b14960675E+0x184>
f8003150:	c0268693          	add	a3,a3,-1022 # 7ffffc02 <__stack_ptr+0x77fffc02>
f8003154:	7fe00813          	li	a6,2046
f8003158:	0cd85463          	bge	a6,a3,f8003220 <_ZN17compiler_builtins5float3mul8__muldf317h9c96990b14960675E+0x1d4>
f800315c:	0a80006f          	j	f8003204 <_ZN17compiler_builtins5float3mul8__muldf317h9c96990b14960675E+0x1b8>
f8003160:	fff28e93          	add	t4,t0,-1 # 7fffffff <__stack_ptr+0x77ffffff>
f8003164:	01d77e33          	and	t3,a4,t4
f8003168:	7ff00f37          	lui	t5,0x7ff00
f800316c:	05ee0263          	beq	t3,t5,f80031b0 <_ZN17compiler_builtins5float3mul8__muldf317h9c96990b14960675E+0x164>
f8003170:	01cf3f33          	sltu	t5,t5,t3
f8003174:	040f1263          	bnez	t5,f80031b8 <_ZN17compiler_builtins5float3mul8__muldf317h9c96990b14960675E+0x16c>
f8003178:	01d6f733          	and	a4,a3,t4
f800317c:	7ff00eb7          	lui	t4,0x7ff00
f8003180:	0fd70e63          	beq	a4,t4,f800327c <_ZN17compiler_builtins5float3mul8__muldf317h9c96990b14960675E+0x230>
f8003184:	00eebeb3          	sltu	t4,t4,a4
f8003188:	0e0e9e63          	bnez	t4,f8003284 <_ZN17compiler_builtins5float3mul8__muldf317h9c96990b14960675E+0x238>
f800318c:	7ff006b7          	lui	a3,0x7ff00
f8003190:	00de4eb3          	xor	t4,t3,a3
f8003194:	01d56eb3          	or	t4,a0,t4
f8003198:	120e9663          	bnez	t4,f80032c4 <_ZN17compiler_builtins5float3mul8__muldf317h9c96990b14960675E+0x278>
f800319c:	00e66633          	or	a2,a2,a4
f80031a0:	06061263          	bnez	a2,f8003204 <_ZN17compiler_builtins5float3mul8__muldf317h9c96990b14960675E+0x1b8>
f80031a4:	00000513          	li	a0,0
f80031a8:	7ff805b7          	lui	a1,0x7ff80
f80031ac:	0c00006f          	j	f800326c <_ZN17compiler_builtins5float3mul8__muldf317h9c96990b14960675E+0x220>
f80031b0:	00a03f33          	snez	t5,a0
f80031b4:	fc0f02e3          	beqz	t5,f8003178 <_ZN17compiler_builtins5float3mul8__muldf317h9c96990b14960675E+0x12c>
f80031b8:	000805b7          	lui	a1,0x80
f80031bc:	00b765b3          	or	a1,a4,a1
f80031c0:	00c12403          	lw	s0,12(sp)
f80031c4:	00812483          	lw	s1,8(sp)
f80031c8:	01010113          	add	sp,sp,16
f80031cc:	00008067          	ret
f80031d0:	c0168693          	add	a3,a3,-1023 # 7feffc01 <__stack_ptr+0x77effc01>
f80031d4:	01f55813          	srl	a6,a0,0x1f
f80031d8:	00129293          	sll	t0,t0,0x1
f80031dc:	0102e2b3          	or	t0,t0,a6
f80031e0:	00151513          	sll	a0,a0,0x1
f80031e4:	01f65813          	srl	a6,a2,0x1f
f80031e8:	01056533          	or	a0,a0,a6
f80031ec:	01f75813          	srl	a6,a4,0x1f
f80031f0:	00161613          	sll	a2,a2,0x1
f80031f4:	01066633          	or	a2,a2,a6
f80031f8:	00171713          	sll	a4,a4,0x1
f80031fc:	7fe00813          	li	a6,2046
f8003200:	02d85063          	bge	a6,a3,f8003220 <_ZN17compiler_builtins5float3mul8__muldf317h9c96990b14960675E+0x1d4>
f8003204:	00000513          	li	a0,0
f8003208:	7ff00637          	lui	a2,0x7ff00
f800320c:	00c5e5b3          	or	a1,a1,a2
f8003210:	00c12403          	lw	s0,12(sp)
f8003214:	00812483          	lw	s1,8(sp)
f8003218:	01010113          	add	sp,sp,16
f800321c:	00008067          	ret
f8003220:	08d05063          	blez	a3,f80032a0 <_ZN17compiler_builtins5float3mul8__muldf317h9c96990b14960675E+0x254>
f8003224:	01c57533          	and	a0,a0,t3
f8003228:	00f2f7b3          	and	a5,t0,a5
f800322c:	01469693          	sll	a3,a3,0x14
f8003230:	00f6e6b3          	or	a3,a3,a5
f8003234:	800007b7          	lui	a5,0x80000
f8003238:	1ef60a63          	beq	a2,a5,f800342c <_ZN17compiler_builtins5float3mul8__muldf317h9c96990b14960675E+0x3e0>
f800323c:	00c7b7b3          	sltu	a5,a5,a2
f8003240:	00b6e5b3          	or	a1,a3,a1
f8003244:	1e079a63          	bnez	a5,f8003438 <_ZN17compiler_builtins5float3mul8__muldf317h9c96990b14960675E+0x3ec>
f8003248:	800006b7          	lui	a3,0x80000
f800324c:	00d64633          	xor	a2,a2,a3
f8003250:	00c76633          	or	a2,a4,a2
f8003254:	00061c63          	bnez	a2,f800326c <_ZN17compiler_builtins5float3mul8__muldf317h9c96990b14960675E+0x220>
f8003258:	00157613          	and	a2,a0,1
f800325c:	00c50633          	add	a2,a0,a2
f8003260:	00a63533          	sltu	a0,a2,a0
f8003264:	00a585b3          	add	a1,a1,a0
f8003268:	0240006f          	j	f800328c <_ZN17compiler_builtins5float3mul8__muldf317h9c96990b14960675E+0x240>
f800326c:	00c12403          	lw	s0,12(sp)
f8003270:	00812483          	lw	s1,8(sp)
f8003274:	01010113          	add	sp,sp,16
f8003278:	00008067          	ret
f800327c:	00c03eb3          	snez	t4,a2
f8003280:	f00e86e3          	beqz	t4,f800318c <_ZN17compiler_builtins5float3mul8__muldf317h9c96990b14960675E+0x140>
f8003284:	000805b7          	lui	a1,0x80
f8003288:	00b6e5b3          	or	a1,a3,a1
f800328c:	00060513          	mv	a0,a2
f8003290:	00c12403          	lw	s0,12(sp)
f8003294:	00812483          	lw	s1,8(sp)
f8003298:	01010113          	add	sp,sp,16
f800329c:	00008067          	ret
f80032a0:	00100793          	li	a5,1
f80032a4:	40d787b3          	sub	a5,a5,a3
f80032a8:	03f00813          	li	a6,63
f80032ac:	04f87063          	bgeu	a6,a5,f80032ec <_ZN17compiler_builtins5float3mul8__muldf317h9c96990b14960675E+0x2a0>
f80032b0:	00000513          	li	a0,0
f80032b4:	00c12403          	lw	s0,12(sp)
f80032b8:	00812483          	lw	s1,8(sp)
f80032bc:	01010113          	add	sp,sp,16
f80032c0:	00008067          	ret
f80032c4:	00d746b3          	xor	a3,a4,a3
f80032c8:	00d666b3          	or	a3,a2,a3
f80032cc:	02069c63          	bnez	a3,f8003304 <_ZN17compiler_builtins5float3mul8__muldf317h9c96990b14960675E+0x2b8>
f80032d0:	01c56533          	or	a0,a0,t3
f80032d4:	f20518e3          	bnez	a0,f8003204 <_ZN17compiler_builtins5float3mul8__muldf317h9c96990b14960675E+0x1b8>
f80032d8:	7ff805b7          	lui	a1,0x7ff80
f80032dc:	00c12403          	lw	s0,12(sp)
f80032e0:	00812483          	lw	s1,8(sp)
f80032e4:	01010113          	add	sp,sp,16
f80032e8:	00008067          	ret
f80032ec:	fff7c813          	not	a6,a5
f80032f0:	fe078313          	add	t1,a5,-32 # 7fffffe0 <__stack_ptr+0x77ffffe0>
f80032f4:	00f65e33          	srl	t3,a2,a5
f80032f8:	0a034663          	bltz	t1,f80033a4 <_ZN17compiler_builtins5float3mul8__muldf317h9c96990b14960675E+0x358>
f80032fc:	000e0893          	mv	a7,t3
f8003300:	0b40006f          	j	f80033b4 <_ZN17compiler_builtins5float3mul8__muldf317h9c96990b14960675E+0x368>
f8003304:	01c566b3          	or	a3,a0,t3
f8003308:	fa0684e3          	beqz	a3,f80032b0 <_ZN17compiler_builtins5float3mul8__muldf317h9c96990b14960675E+0x264>
f800330c:	00e666b3          	or	a3,a2,a4
f8003310:	fa0680e3          	beqz	a3,f80032b0 <_ZN17compiler_builtins5float3mul8__muldf317h9c96990b14960675E+0x264>
f8003314:	014e5693          	srl	a3,t3,0x14
f8003318:	12069e63          	bnez	a3,f8003454 <_ZN17compiler_builtins5float3mul8__muldf317h9c96990b14960675E+0x408>
f800331c:	00155693          	srl	a3,a0,0x1
f8003320:	55555e37          	lui	t3,0x55555
f8003324:	555e0f93          	add	t6,t3,1365 # 55555555 <__stack_ptr+0x4d555555>
f8003328:	33333e37          	lui	t3,0x33333
f800332c:	333e0f13          	add	t5,t3,819 # 33333333 <__stack_ptr+0x2b333333>
f8003330:	0f0f1e37          	lui	t3,0xf0f1
f8003334:	f0fe0e13          	add	t3,t3,-241 # f0f0f0f <__stack_ptr+0x70f0f0f>
f8003338:	01010eb7          	lui	t4,0x1010
f800333c:	101e8e93          	add	t4,t4,257 # 1010101 <__global_pointer+0x100f901>
f8003340:	10031e63          	bnez	t1,f800345c <_ZN17compiler_builtins5float3mul8__muldf317h9c96990b14960675E+0x410>
f8003344:	00d56433          	or	s0,a0,a3
f8003348:	00245493          	srl	s1,s0,0x2
f800334c:	00946433          	or	s0,s0,s1
f8003350:	00445493          	srl	s1,s0,0x4
f8003354:	00946433          	or	s0,s0,s1
f8003358:	00845493          	srl	s1,s0,0x8
f800335c:	00946433          	or	s0,s0,s1
f8003360:	01045493          	srl	s1,s0,0x10
f8003364:	00946433          	or	s0,s0,s1
f8003368:	fff44413          	not	s0,s0
f800336c:	00145493          	srl	s1,s0,0x1
f8003370:	01f4ffb3          	and	t6,s1,t6
f8003374:	41f40fb3          	sub	t6,s0,t6
f8003378:	01eff433          	and	s0,t6,t5
f800337c:	002fdf93          	srl	t6,t6,0x2
f8003380:	01efff33          	and	t5,t6,t5
f8003384:	01e40f33          	add	t5,s0,t5
f8003388:	004f5f93          	srl	t6,t5,0x4
f800338c:	01ff0f33          	add	t5,t5,t6
f8003390:	01cf7e33          	and	t3,t5,t3
f8003394:	03de0e33          	mul	t3,t3,t4
f8003398:	018e5e13          	srl	t3,t3,0x18
f800339c:	020e0e13          	add	t3,t3,32
f80033a0:	1180006f          	j	f80034b8 <_ZN17compiler_builtins5float3mul8__muldf317h9c96990b14960675E+0x46c>
f80033a4:	00f758b3          	srl	a7,a4,a5
f80033a8:	00161393          	sll	t2,a2,0x1
f80033ac:	010393b3          	sll	t2,t2,a6
f80033b0:	0078e8b3          	or	a7,a7,t2
f80033b4:	03f68e93          	add	t4,a3,63 # 8000003f <__stack_ptr+0x7800003f>
f80033b8:	41f35393          	sra	t2,t1,0x1f
f80033bc:	01f68f13          	add	t5,a3,31
f80033c0:	00e56733          	or	a4,a0,a4
f80033c4:	000f4663          	bltz	t5,f80033d0 <_ZN17compiler_builtins5float3mul8__muldf317h9c96990b14960675E+0x384>
f80033c8:	01e71633          	sll	a2,a4,t5
f80033cc:	01c0006f          	j	f80033e8 <_ZN17compiler_builtins5float3mul8__muldf317h9c96990b14960675E+0x39c>
f80033d0:	00175f93          	srl	t6,a4,0x1
f80033d4:	40d006b3          	neg	a3,a3
f80033d8:	00dfd6b3          	srl	a3,t6,a3
f80033dc:	00c2e633          	or	a2,t0,a2
f80033e0:	01d61633          	sll	a2,a2,t4
f80033e4:	00d66633          	or	a2,a2,a3
f80033e8:	01c3f6b3          	and	a3,t2,t3
f80033ec:	01d71733          	sll	a4,a4,t4
f80033f0:	41ff5e13          	sra	t3,t5,0x1f
f80033f4:	00ee7733          	and	a4,t3,a4
f80033f8:	00f2de33          	srl	t3,t0,a5
f80033fc:	00034663          	bltz	t1,f8003408 <_ZN17compiler_builtins5float3mul8__muldf317h9c96990b14960675E+0x3bc>
f8003400:	000e0513          	mv	a0,t3
f8003404:	0140006f          	j	f8003418 <_ZN17compiler_builtins5float3mul8__muldf317h9c96990b14960675E+0x3cc>
f8003408:	00f55533          	srl	a0,a0,a5
f800340c:	00129293          	sll	t0,t0,0x1
f8003410:	010297b3          	sll	a5,t0,a6
f8003414:	00f56533          	or	a0,a0,a5
f8003418:	00d66633          	or	a2,a2,a3
f800341c:	01176733          	or	a4,a4,a7
f8003420:	01c3f6b3          	and	a3,t2,t3
f8003424:	800007b7          	lui	a5,0x80000
f8003428:	e0f61ae3          	bne	a2,a5,f800323c <_ZN17compiler_builtins5float3mul8__muldf317h9c96990b14960675E+0x1f0>
f800342c:	00e037b3          	snez	a5,a4
f8003430:	00b6e5b3          	or	a1,a3,a1
f8003434:	e0078ae3          	beqz	a5,f8003248 <_ZN17compiler_builtins5float3mul8__muldf317h9c96990b14960675E+0x1fc>
f8003438:	00150513          	add	a0,a0,1 # 7fc00001 <__stack_ptr+0x77c00001>
f800343c:	00153613          	seqz	a2,a0
f8003440:	00c585b3          	add	a1,a1,a2
f8003444:	00c12403          	lw	s0,12(sp)
f8003448:	00812483          	lw	s1,8(sp)
f800344c:	01010113          	add	sp,sp,16
f8003450:	00008067          	ret
f8003454:	00000693          	li	a3,0
f8003458:	09c0006f          	j	f80034f4 <_ZN17compiler_builtins5float3mul8__muldf317h9c96990b14960675E+0x4a8>
f800345c:	00135413          	srl	s0,t1,0x1
f8003460:	00836433          	or	s0,t1,s0
f8003464:	00245493          	srl	s1,s0,0x2
f8003468:	00946433          	or	s0,s0,s1
f800346c:	00445493          	srl	s1,s0,0x4
f8003470:	00946433          	or	s0,s0,s1
f8003474:	00845493          	srl	s1,s0,0x8
f8003478:	00946433          	or	s0,s0,s1
f800347c:	01045493          	srl	s1,s0,0x10
f8003480:	00946433          	or	s0,s0,s1
f8003484:	fff44413          	not	s0,s0
f8003488:	00145493          	srl	s1,s0,0x1
f800348c:	01f4ffb3          	and	t6,s1,t6
f8003490:	41f40fb3          	sub	t6,s0,t6
f8003494:	01eff433          	and	s0,t6,t5
f8003498:	002fdf93          	srl	t6,t6,0x2
f800349c:	01efff33          	and	t5,t6,t5
f80034a0:	01e40f33          	add	t5,s0,t5
f80034a4:	004f5f93          	srl	t6,t5,0x4
f80034a8:	01ff0f33          	add	t5,t5,t6
f80034ac:	01cf7e33          	and	t3,t5,t3
f80034b0:	03de0e33          	mul	t3,t3,t4
f80034b4:	018e5e13          	srl	t3,t3,0x18
f80034b8:	035e0e93          	add	t4,t3,53
f80034bc:	03fef413          	and	s0,t4,63
f80034c0:	fe040f13          	add	t5,s0,-32
f80034c4:	00c00f93          	li	t6,12
f80034c8:	000f4663          	bltz	t5,f80034d4 <_ZN17compiler_builtins5float3mul8__muldf317h9c96990b14960675E+0x488>
f80034cc:	00851333          	sll	t1,a0,s0
f80034d0:	0140006f          	j	f80034e4 <_ZN17compiler_builtins5float3mul8__muldf317h9c96990b14960675E+0x498>
f80034d4:	01d31333          	sll	t1,t1,t4
f80034d8:	fff44413          	not	s0,s0
f80034dc:	0086d6b3          	srl	a3,a3,s0
f80034e0:	00d36333          	or	t1,t1,a3
f80034e4:	41cf86b3          	sub	a3,t6,t3
f80034e8:	01d51533          	sll	a0,a0,t4
f80034ec:	41ff5e13          	sra	t3,t5,0x1f
f80034f0:	00ae7533          	and	a0,t3,a0
f80034f4:	01475713          	srl	a4,a4,0x14
f80034f8:	bc0712e3          	bnez	a4,f80030bc <_ZN17compiler_builtins5float3mul8__muldf317h9c96990b14960675E+0x70>
f80034fc:	00165713          	srl	a4,a2,0x1
f8003500:	55555e37          	lui	t3,0x55555
f8003504:	555e0f93          	add	t6,t3,1365 # 55555555 <__stack_ptr+0x4d555555>
f8003508:	33333e37          	lui	t3,0x33333
f800350c:	333e0f13          	add	t5,t3,819 # 33333333 <__stack_ptr+0x2b333333>
f8003510:	0f0f1e37          	lui	t3,0xf0f1
f8003514:	f0fe0e13          	add	t3,t3,-241 # f0f0f0f <__stack_ptr+0x70f0f0f>
f8003518:	01010eb7          	lui	t4,0x1010
f800351c:	101e8e93          	add	t4,t4,257 # 1010101 <__global_pointer+0x100f901>
f8003520:	06039263          	bnez	t2,f8003584 <_ZN17compiler_builtins5float3mul8__muldf317h9c96990b14960675E+0x538>
f8003524:	00e66433          	or	s0,a2,a4
f8003528:	00245493          	srl	s1,s0,0x2
f800352c:	00946433          	or	s0,s0,s1
f8003530:	00445493          	srl	s1,s0,0x4
f8003534:	00946433          	or	s0,s0,s1
f8003538:	00845493          	srl	s1,s0,0x8
f800353c:	00946433          	or	s0,s0,s1
f8003540:	01045493          	srl	s1,s0,0x10
f8003544:	00946433          	or	s0,s0,s1
f8003548:	fff44413          	not	s0,s0
f800354c:	00145493          	srl	s1,s0,0x1
f8003550:	01f4ffb3          	and	t6,s1,t6
f8003554:	41f40fb3          	sub	t6,s0,t6
f8003558:	01eff433          	and	s0,t6,t5
f800355c:	002fdf93          	srl	t6,t6,0x2
f8003560:	01efff33          	and	t5,t6,t5
f8003564:	01e40f33          	add	t5,s0,t5
f8003568:	004f5f93          	srl	t6,t5,0x4
f800356c:	01ff0f33          	add	t5,t5,t6
f8003570:	01cf7e33          	and	t3,t5,t3
f8003574:	03de0e33          	mul	t3,t3,t4
f8003578:	018e5e13          	srl	t3,t3,0x18
f800357c:	020e0e13          	add	t3,t3,32
f8003580:	0600006f          	j	f80035e0 <_ZN17compiler_builtins5float3mul8__muldf317h9c96990b14960675E+0x594>
f8003584:	0013d413          	srl	s0,t2,0x1
f8003588:	0083e433          	or	s0,t2,s0
f800358c:	00245493          	srl	s1,s0,0x2
f8003590:	00946433          	or	s0,s0,s1
f8003594:	00445493          	srl	s1,s0,0x4
f8003598:	00946433          	or	s0,s0,s1
f800359c:	00845493          	srl	s1,s0,0x8
f80035a0:	00946433          	or	s0,s0,s1
f80035a4:	01045493          	srl	s1,s0,0x10
f80035a8:	00946433          	or	s0,s0,s1
f80035ac:	fff44413          	not	s0,s0
f80035b0:	00145493          	srl	s1,s0,0x1
f80035b4:	01f4ffb3          	and	t6,s1,t6
f80035b8:	41f40fb3          	sub	t6,s0,t6
f80035bc:	01eff433          	and	s0,t6,t5
f80035c0:	002fdf93          	srl	t6,t6,0x2
f80035c4:	01efff33          	and	t5,t6,t5
f80035c8:	01e40f33          	add	t5,s0,t5
f80035cc:	004f5f93          	srl	t6,t5,0x4
f80035d0:	01ff0f33          	add	t5,t5,t6
f80035d4:	01cf7e33          	and	t3,t5,t3
f80035d8:	03de0e33          	mul	t3,t3,t4
f80035dc:	018e5e13          	srl	t3,t3,0x18
f80035e0:	035e0e93          	add	t4,t3,53
f80035e4:	03feff93          	and	t6,t4,63
f80035e8:	fe0f8f13          	add	t5,t6,-32
f80035ec:	000f4663          	bltz	t5,f80035f8 <_ZN17compiler_builtins5float3mul8__muldf317h9c96990b14960675E+0x5ac>
f80035f0:	01f613b3          	sll	t2,a2,t6
f80035f4:	0140006f          	j	f8003608 <_ZN17compiler_builtins5float3mul8__muldf317h9c96990b14960675E+0x5bc>
f80035f8:	01d393b3          	sll	t2,t2,t4
f80035fc:	ffffcf93          	not	t6,t6
f8003600:	01f75733          	srl	a4,a4,t6
f8003604:	00e3e3b3          	or	t2,t2,a4
f8003608:	01d61633          	sll	a2,a2,t4
f800360c:	41ff5713          	sra	a4,t5,0x1f
f8003610:	00c77633          	and	a2,a4,a2
f8003614:	41c686b3          	sub	a3,a3,t3
f8003618:	00c68693          	add	a3,a3,12
f800361c:	aa1ff06f          	j	f80030bc <_ZN17compiler_builtins5float3mul8__muldf317h9c96990b14960675E+0x70>

f8003620 <__subsf3>:
f8003620:	80000637          	lui	a2,0x80000
f8003624:	00c5c5b3          	xor	a1,a1,a2
f8003628:	00000317          	auipc	t1,0x0
f800362c:	59430067          	jr	1428(t1) # f8003bbc <_ZN17compiler_builtins5float3add8__addsf317h27f883054e64bff4E>

f8003630 <__adddf3>:
f8003630:	00001317          	auipc	t1,0x1
f8003634:	92430067          	jr	-1756(t1) # f8003f54 <_ZN17compiler_builtins5float3add8__adddf317h102d65cc23c7818bE>

f8003638 <__subdf3>:
f8003638:	80000737          	lui	a4,0x80000
f800363c:	00e6c6b3          	xor	a3,a3,a4
f8003640:	00001317          	auipc	t1,0x1
f8003644:	91430067          	jr	-1772(t1) # f8003f54 <_ZN17compiler_builtins5float3add8__adddf317h102d65cc23c7818bE>

f8003648 <__eqdf2>:
f8003648:	80000837          	lui	a6,0x80000
f800364c:	fff80813          	add	a6,a6,-1 # 7fffffff <__stack_ptr+0x77ffffff>
f8003650:	0105f7b3          	and	a5,a1,a6
f8003654:	7ff00737          	lui	a4,0x7ff00
f8003658:	00e78c63          	beq	a5,a4,f8003670 <__eqdf2+0x28>
f800365c:	00f738b3          	sltu	a7,a4,a5
f8003660:	00100713          	li	a4,1
f8003664:	00088c63          	beqz	a7,f800367c <__eqdf2+0x34>
f8003668:	00070513          	mv	a0,a4
f800366c:	00008067          	ret
f8003670:	00a038b3          	snez	a7,a0
f8003674:	00100713          	li	a4,1
f8003678:	fe0898e3          	bnez	a7,f8003668 <__eqdf2+0x20>
f800367c:	0106f833          	and	a6,a3,a6
f8003680:	7ff008b7          	lui	a7,0x7ff00
f8003684:	01180863          	beq	a6,a7,f8003694 <__eqdf2+0x4c>
f8003688:	0108b8b3          	sltu	a7,a7,a6
f800368c:	00088863          	beqz	a7,f800369c <__eqdf2+0x54>
f8003690:	fd9ff06f          	j	f8003668 <__eqdf2+0x20>
f8003694:	00c038b3          	snez	a7,a2
f8003698:	fc0898e3          	bnez	a7,f8003668 <__eqdf2+0x20>
f800369c:	00a66733          	or	a4,a2,a0
f80036a0:	00f867b3          	or	a5,a6,a5
f80036a4:	00f76733          	or	a4,a4,a5
f80036a8:	fc0700e3          	beqz	a4,f8003668 <__eqdf2+0x20>
f80036ac:	00b6f733          	and	a4,a3,a1
f80036b0:	00074c63          	bltz	a4,f80036c8 <__eqdf2+0x80>
f80036b4:	02d58463          	beq	a1,a3,f80036dc <__eqdf2+0x94>
f80036b8:	00d5a7b3          	slt	a5,a1,a3
f80036bc:	fff00713          	li	a4,-1
f80036c0:	fa0794e3          	bnez	a5,f8003668 <__eqdf2+0x20>
f80036c4:	0340006f          	j	f80036f8 <__eqdf2+0xb0>
f80036c8:	02d58263          	beq	a1,a3,f80036ec <__eqdf2+0xa4>
f80036cc:	00b6a7b3          	slt	a5,a3,a1
f80036d0:	fff00713          	li	a4,-1
f80036d4:	f8079ae3          	bnez	a5,f8003668 <__eqdf2+0x20>
f80036d8:	0200006f          	j	f80036f8 <__eqdf2+0xb0>
f80036dc:	00c537b3          	sltu	a5,a0,a2
f80036e0:	fff00713          	li	a4,-1
f80036e4:	f80792e3          	bnez	a5,f8003668 <__eqdf2+0x20>
f80036e8:	0100006f          	j	f80036f8 <__eqdf2+0xb0>
f80036ec:	00a637b3          	sltu	a5,a2,a0
f80036f0:	fff00713          	li	a4,-1
f80036f4:	f6079ae3          	bnez	a5,f8003668 <__eqdf2+0x20>
f80036f8:	00c54533          	xor	a0,a0,a2
f80036fc:	00d5c5b3          	xor	a1,a1,a3
f8003700:	00b56533          	or	a0,a0,a1
f8003704:	00a03733          	snez	a4,a0
f8003708:	00070513          	mv	a0,a4
f800370c:	00008067          	ret

f8003710 <memset>:
f8003710:	00000317          	auipc	t1,0x0
f8003714:	1dc30067          	jr	476(t1) # f80038ec <_ZN17compiler_builtins3mem6memset17ha85cfcfa6b526c2bE>

f8003718 <_ZN17compiler_builtins5float3cmp7__gedf217h971779a7d9c7f274E>:
f8003718:	80000837          	lui	a6,0x80000
f800371c:	fff80813          	add	a6,a6,-1 # 7fffffff <__stack_ptr+0x77ffffff>
f8003720:	0105f7b3          	and	a5,a1,a6
f8003724:	7ff008b7          	lui	a7,0x7ff00
f8003728:	00050713          	mv	a4,a0
f800372c:	01178a63          	beq	a5,a7,f8003740 <_ZN17compiler_builtins5float3cmp7__gedf217h971779a7d9c7f274E+0x28>
f8003730:	00f8b8b3          	sltu	a7,a7,a5
f8003734:	fff00513          	li	a0,-1
f8003738:	00088a63          	beqz	a7,f800374c <_ZN17compiler_builtins5float3cmp7__gedf217h971779a7d9c7f274E+0x34>
f800373c:	00008067          	ret
f8003740:	00e038b3          	snez	a7,a4
f8003744:	fff00513          	li	a0,-1
f8003748:	fe089ae3          	bnez	a7,f800373c <_ZN17compiler_builtins5float3cmp7__gedf217h971779a7d9c7f274E+0x24>
f800374c:	0106f833          	and	a6,a3,a6
f8003750:	7ff008b7          	lui	a7,0x7ff00
f8003754:	01180863          	beq	a6,a7,f8003764 <_ZN17compiler_builtins5float3cmp7__gedf217h971779a7d9c7f274E+0x4c>
f8003758:	0108b8b3          	sltu	a7,a7,a6
f800375c:	00088863          	beqz	a7,f800376c <_ZN17compiler_builtins5float3cmp7__gedf217h971779a7d9c7f274E+0x54>
f8003760:	fddff06f          	j	f800373c <_ZN17compiler_builtins5float3cmp7__gedf217h971779a7d9c7f274E+0x24>
f8003764:	00c038b3          	snez	a7,a2
f8003768:	fc089ae3          	bnez	a7,f800373c <_ZN17compiler_builtins5float3cmp7__gedf217h971779a7d9c7f274E+0x24>
f800376c:	00e668b3          	or	a7,a2,a4
f8003770:	00f867b3          	or	a5,a6,a5
f8003774:	00f8e7b3          	or	a5,a7,a5
f8003778:	00078e63          	beqz	a5,f8003794 <_ZN17compiler_builtins5float3cmp7__gedf217h971779a7d9c7f274E+0x7c>
f800377c:	00b6f7b3          	and	a5,a3,a1
f8003780:	0007ce63          	bltz	a5,f800379c <_ZN17compiler_builtins5float3cmp7__gedf217h971779a7d9c7f274E+0x84>
f8003784:	02d58463          	beq	a1,a3,f80037ac <_ZN17compiler_builtins5float3cmp7__gedf217h971779a7d9c7f274E+0x94>
f8003788:	00d5a7b3          	slt	a5,a1,a3
f800378c:	fa0798e3          	bnez	a5,f800373c <_ZN17compiler_builtins5float3cmp7__gedf217h971779a7d9c7f274E+0x24>
f8003790:	0300006f          	j	f80037c0 <_ZN17compiler_builtins5float3cmp7__gedf217h971779a7d9c7f274E+0xa8>
f8003794:	00000513          	li	a0,0
f8003798:	00008067          	ret
f800379c:	00d58e63          	beq	a1,a3,f80037b8 <_ZN17compiler_builtins5float3cmp7__gedf217h971779a7d9c7f274E+0xa0>
f80037a0:	00b6a7b3          	slt	a5,a3,a1
f80037a4:	f8079ce3          	bnez	a5,f800373c <_ZN17compiler_builtins5float3cmp7__gedf217h971779a7d9c7f274E+0x24>
f80037a8:	0180006f          	j	f80037c0 <_ZN17compiler_builtins5float3cmp7__gedf217h971779a7d9c7f274E+0xa8>
f80037ac:	00c737b3          	sltu	a5,a4,a2
f80037b0:	f80796e3          	bnez	a5,f800373c <_ZN17compiler_builtins5float3cmp7__gedf217h971779a7d9c7f274E+0x24>
f80037b4:	00c0006f          	j	f80037c0 <_ZN17compiler_builtins5float3cmp7__gedf217h971779a7d9c7f274E+0xa8>
f80037b8:	00e637b3          	sltu	a5,a2,a4
f80037bc:	f80790e3          	bnez	a5,f800373c <_ZN17compiler_builtins5float3cmp7__gedf217h971779a7d9c7f274E+0x24>
f80037c0:	00c74633          	xor	a2,a4,a2
f80037c4:	00d5c5b3          	xor	a1,a1,a3
f80037c8:	00b665b3          	or	a1,a2,a1
f80037cc:	00b03533          	snez	a0,a1
f80037d0:	00008067          	ret

f80037d4 <__mulsf3>:
f80037d4:	fffff317          	auipc	t1,0xfffff
f80037d8:	5c030067          	jr	1472(t1) # f8002d94 <_ZN17compiler_builtins5float3mul8__mulsf317h70f634f41033e0baE>

f80037dc <__gtdf2>:
f80037dc:	80000837          	lui	a6,0x80000
f80037e0:	fff80813          	add	a6,a6,-1 # 7fffffff <__stack_ptr+0x77ffffff>
f80037e4:	0105f7b3          	and	a5,a1,a6
f80037e8:	7ff008b7          	lui	a7,0x7ff00
f80037ec:	00050713          	mv	a4,a0
f80037f0:	01178a63          	beq	a5,a7,f8003804 <__gtdf2+0x28>
f80037f4:	00f8b8b3          	sltu	a7,a7,a5
f80037f8:	fff00513          	li	a0,-1
f80037fc:	00088a63          	beqz	a7,f8003810 <__gtdf2+0x34>
f8003800:	00008067          	ret
f8003804:	00e038b3          	snez	a7,a4
f8003808:	fff00513          	li	a0,-1
f800380c:	fe089ae3          	bnez	a7,f8003800 <__gtdf2+0x24>
f8003810:	0106f833          	and	a6,a3,a6
f8003814:	7ff008b7          	lui	a7,0x7ff00
f8003818:	01180863          	beq	a6,a7,f8003828 <__gtdf2+0x4c>
f800381c:	0108b8b3          	sltu	a7,a7,a6
f8003820:	00088863          	beqz	a7,f8003830 <__gtdf2+0x54>
f8003824:	fddff06f          	j	f8003800 <__gtdf2+0x24>
f8003828:	00c038b3          	snez	a7,a2
f800382c:	fc089ae3          	bnez	a7,f8003800 <__gtdf2+0x24>
f8003830:	00e668b3          	or	a7,a2,a4
f8003834:	00f867b3          	or	a5,a6,a5
f8003838:	00f8e7b3          	or	a5,a7,a5
f800383c:	00078e63          	beqz	a5,f8003858 <__gtdf2+0x7c>
f8003840:	00b6f7b3          	and	a5,a3,a1
f8003844:	0007ce63          	bltz	a5,f8003860 <__gtdf2+0x84>
f8003848:	02d58463          	beq	a1,a3,f8003870 <__gtdf2+0x94>
f800384c:	00d5a7b3          	slt	a5,a1,a3
f8003850:	fa0798e3          	bnez	a5,f8003800 <__gtdf2+0x24>
f8003854:	0300006f          	j	f8003884 <__gtdf2+0xa8>
f8003858:	00000513          	li	a0,0
f800385c:	00008067          	ret
f8003860:	00d58e63          	beq	a1,a3,f800387c <__gtdf2+0xa0>
f8003864:	00b6a7b3          	slt	a5,a3,a1
f8003868:	f8079ce3          	bnez	a5,f8003800 <__gtdf2+0x24>
f800386c:	0180006f          	j	f8003884 <__gtdf2+0xa8>
f8003870:	00c737b3          	sltu	a5,a4,a2
f8003874:	f80796e3          	bnez	a5,f8003800 <__gtdf2+0x24>
f8003878:	00c0006f          	j	f8003884 <__gtdf2+0xa8>
f800387c:	00e637b3          	sltu	a5,a2,a4
f8003880:	f80790e3          	bnez	a5,f8003800 <__gtdf2+0x24>
f8003884:	00c74633          	xor	a2,a4,a2
f8003888:	00d5c5b3          	xor	a1,a1,a3
f800388c:	00b665b3          	or	a1,a2,a1
f8003890:	00b03533          	snez	a0,a1
f8003894:	00008067          	ret

f8003898 <__addsf3>:
f8003898:	00000317          	auipc	t1,0x0
f800389c:	32430067          	jr	804(t1) # f8003bbc <_ZN17compiler_builtins5float3add8__addsf317h27f883054e64bff4E>

f80038a0 <__unorddf2>:
f80038a0:	00159593          	sll	a1,a1,0x1
f80038a4:	0015d593          	srl	a1,a1,0x1
f80038a8:	7ff00737          	lui	a4,0x7ff00
f80038ac:	00e58a63          	beq	a1,a4,f80038c0 <__unorddf2+0x20>
f80038b0:	00b735b3          	sltu	a1,a4,a1
f80038b4:	00100513          	li	a0,1
f80038b8:	00058a63          	beqz	a1,f80038cc <__unorddf2+0x2c>
f80038bc:	00008067          	ret
f80038c0:	00a035b3          	snez	a1,a0
f80038c4:	00100513          	li	a0,1
f80038c8:	fe059ae3          	bnez	a1,f80038bc <__unorddf2+0x1c>
f80038cc:	00169513          	sll	a0,a3,0x1
f80038d0:	00155513          	srl	a0,a0,0x1
f80038d4:	7ff005b7          	lui	a1,0x7ff00
f80038d8:	00b50663          	beq	a0,a1,f80038e4 <__unorddf2+0x44>
f80038dc:	00a5b533          	sltu	a0,a1,a0
f80038e0:	00008067          	ret
f80038e4:	00c03533          	snez	a0,a2
f80038e8:	00008067          	ret

f80038ec <_ZN17compiler_builtins3mem6memset17ha85cfcfa6b526c2bE>:
f80038ec:	01000693          	li	a3,16
f80038f0:	04d66e63          	bltu	a2,a3,f800394c <_ZN17compiler_builtins3mem6memset17ha85cfcfa6b526c2bE+0x60>
f80038f4:	40a006b3          	neg	a3,a0
f80038f8:	0036f693          	and	a3,a3,3
f80038fc:	00d50733          	add	a4,a0,a3
f8003900:	00068a63          	beqz	a3,f8003914 <_ZN17compiler_builtins3mem6memset17ha85cfcfa6b526c2bE+0x28>
f8003904:	00050793          	mv	a5,a0
f8003908:	00b78023          	sb	a1,0(a5) # 80000000 <__stack_ptr+0x78000000>
f800390c:	00178793          	add	a5,a5,1
f8003910:	fee7ece3          	bltu	a5,a4,f8003908 <_ZN17compiler_builtins3mem6memset17ha85cfcfa6b526c2bE+0x1c>
f8003914:	40d60633          	sub	a2,a2,a3
f8003918:	ffc67793          	and	a5,a2,-4
f800391c:	00f706b3          	add	a3,a4,a5
f8003920:	02f05063          	blez	a5,f8003940 <_ZN17compiler_builtins3mem6memset17ha85cfcfa6b526c2bE+0x54>
f8003924:	0ff5f793          	zext.b	a5,a1
f8003928:	01010837          	lui	a6,0x1010
f800392c:	10180813          	add	a6,a6,257 # 1010101 <__global_pointer+0x100f901>
f8003930:	030787b3          	mul	a5,a5,a6
f8003934:	00f72023          	sw	a5,0(a4) # 7ff00000 <__stack_ptr+0x77f00000>
f8003938:	00470713          	add	a4,a4,4
f800393c:	fed76ce3          	bltu	a4,a3,f8003934 <_ZN17compiler_builtins3mem6memset17ha85cfcfa6b526c2bE+0x48>
f8003940:	00367613          	and	a2,a2,3
f8003944:	00061863          	bnez	a2,f8003954 <_ZN17compiler_builtins3mem6memset17ha85cfcfa6b526c2bE+0x68>
f8003948:	01c0006f          	j	f8003964 <_ZN17compiler_builtins3mem6memset17ha85cfcfa6b526c2bE+0x78>
f800394c:	00050693          	mv	a3,a0
f8003950:	00060a63          	beqz	a2,f8003964 <_ZN17compiler_builtins3mem6memset17ha85cfcfa6b526c2bE+0x78>
f8003954:	00c68633          	add	a2,a3,a2
f8003958:	00b68023          	sb	a1,0(a3)
f800395c:	00168693          	add	a3,a3,1
f8003960:	fec6ece3          	bltu	a3,a2,f8003958 <_ZN17compiler_builtins3mem6memset17ha85cfcfa6b526c2bE+0x6c>
f8003964:	00008067          	ret

f8003968 <__truncdfsf2>:
f8003968:	00159613          	sll	a2,a1,0x1
f800396c:	00165613          	srl	a2,a2,0x1
f8003970:	c7f006b7          	lui	a3,0xc7f00
f8003974:	00d606b3          	add	a3,a2,a3
f8003978:	b8100737          	lui	a4,0xb8100
f800397c:	00e60733          	add	a4,a2,a4
f8003980:	02e6fe63          	bgeu	a3,a4,f80039bc <__truncdfsf2+0x54>
f8003984:	01d55693          	srl	a3,a0,0x1d
f8003988:	00361613          	sll	a2,a2,0x3
f800398c:	00c6e6b3          	or	a3,a3,a2
f8003990:	00351513          	sll	a0,a0,0x3
f8003994:	00355513          	srl	a0,a0,0x3
f8003998:	10000737          	lui	a4,0x10000
f800399c:	40000637          	lui	a2,0x40000
f80039a0:	04a77e63          	bgeu	a4,a0,f80039fc <__truncdfsf2+0x94>
f80039a4:	00160613          	add	a2,a2,1 # 40000001 <__stack_ptr+0x38000001>
f80039a8:	00c68633          	add	a2,a3,a2
f80039ac:	80000537          	lui	a0,0x80000
f80039b0:	00a5f533          	and	a0,a1,a0
f80039b4:	00a66533          	or	a0,a2,a0
f80039b8:	00008067          	ret
f80039bc:	7ff006b7          	lui	a3,0x7ff00
f80039c0:	04d60e63          	beq	a2,a3,f8003a1c <__truncdfsf2+0xb4>
f80039c4:	00c6b6b3          	sltu	a3,a3,a2
f80039c8:	04069e63          	bnez	a3,f8003a24 <__truncdfsf2+0xbc>
f80039cc:	01465693          	srl	a3,a2,0x14
f80039d0:	47e00713          	li	a4,1150
f80039d4:	7f800637          	lui	a2,0x7f800
f80039d8:	fcd76ae3          	bltu	a4,a3,f80039ac <__truncdfsf2+0x44>
f80039dc:	38100613          	li	a2,897
f80039e0:	40d60633          	sub	a2,a2,a3
f80039e4:	03400713          	li	a4,52
f80039e8:	06c77463          	bgeu	a4,a2,f8003a50 <__truncdfsf2+0xe8>
f80039ec:	80000537          	lui	a0,0x80000
f80039f0:	00a5f533          	and	a0,a1,a0
f80039f4:	00a06533          	or	a0,zero,a0
f80039f8:	00008067          	ret
f80039fc:	00c68633          	add	a2,a3,a2
f8003a00:	fae516e3          	bne	a0,a4,f80039ac <__truncdfsf2+0x44>
f8003a04:	0016f693          	and	a3,a3,1
f8003a08:	00d60633          	add	a2,a2,a3
f8003a0c:	80000537          	lui	a0,0x80000
f8003a10:	00a5f533          	and	a0,a1,a0
f8003a14:	00a66533          	or	a0,a2,a0
f8003a18:	00008067          	ret
f8003a1c:	00a036b3          	snez	a3,a0
f8003a20:	fa0686e3          	beqz	a3,f80039cc <__truncdfsf2+0x64>
f8003a24:	01d55513          	srl	a0,a0,0x1d
f8003a28:	00361613          	sll	a2,a2,0x3
f8003a2c:	00c56533          	or	a0,a0,a2
f8003a30:	00a51513          	sll	a0,a0,0xa
f8003a34:	00a55513          	srl	a0,a0,0xa
f8003a38:	7fc00637          	lui	a2,0x7fc00
f8003a3c:	00c56633          	or	a2,a0,a2
f8003a40:	80000537          	lui	a0,0x80000
f8003a44:	00a5f533          	and	a0,a1,a0
f8003a48:	00a66533          	or	a0,a2,a0
f8003a4c:	00008067          	ret
f8003a50:	00100737          	lui	a4,0x100
f8003a54:	fff70713          	add	a4,a4,-1 # fffff <__global_pointer+0xff7ff>
f8003a58:	00e5f7b3          	and	a5,a1,a4
f8003a5c:	00a03833          	snez	a6,a0
f8003a60:	010788b3          	add	a7,a5,a6
f8003a64:	fff50513          	add	a0,a0,-1 # 7fffffff <__stack_ptr+0x77ffffff>
f8003a68:	00150513          	add	a0,a0,1
f8003a6c:	00153793          	seqz	a5,a0
f8003a70:	00e782b3          	add	t0,a5,a4
f8003a74:	fff68713          	add	a4,a3,-1 # 7fefffff <__stack_ptr+0x77efffff>
f8003a78:	03f77813          	and	a6,a4,63
f8003a7c:	fe080793          	add	a5,a6,-32
f8003a80:	005886b3          	add	a3,a7,t0
f8003a84:	0007c663          	bltz	a5,f8003a90 <__truncdfsf2+0x128>
f8003a88:	01051833          	sll	a6,a0,a6
f8003a8c:	0180006f          	j	f8003aa4 <__truncdfsf2+0x13c>
f8003a90:	fff84813          	not	a6,a6
f8003a94:	00155893          	srl	a7,a0,0x1
f8003a98:	0108d833          	srl	a6,a7,a6
f8003a9c:	00e698b3          	sll	a7,a3,a4
f8003aa0:	0108e833          	or	a6,a7,a6
f8003aa4:	00e51733          	sll	a4,a0,a4
f8003aa8:	41f7d793          	sra	a5,a5,0x1f
f8003aac:	00e7f733          	and	a4,a5,a4
f8003ab0:	01076733          	or	a4,a4,a6
f8003ab4:	00e03733          	snez	a4,a4
f8003ab8:	fe060813          	add	a6,a2,-32 # 7fbfffe0 <__stack_ptr+0x77bfffe0>
f8003abc:	00c6d7b3          	srl	a5,a3,a2
f8003ac0:	00084663          	bltz	a6,f8003acc <__truncdfsf2+0x164>
f8003ac4:	00078513          	mv	a0,a5
f8003ac8:	0180006f          	j	f8003ae0 <__truncdfsf2+0x178>
f8003acc:	00c55533          	srl	a0,a0,a2
f8003ad0:	00169693          	sll	a3,a3,0x1
f8003ad4:	fff64613          	not	a2,a2
f8003ad8:	00c69633          	sll	a2,a3,a2
f8003adc:	00c56533          	or	a0,a0,a2
f8003ae0:	41f85613          	sra	a2,a6,0x1f
f8003ae4:	00f67633          	and	a2,a2,a5
f8003ae8:	01d55793          	srl	a5,a0,0x1d
f8003aec:	00361613          	sll	a2,a2,0x3
f8003af0:	00351513          	sll	a0,a0,0x3
f8003af4:	00355513          	srl	a0,a0,0x3
f8003af8:	00e56533          	or	a0,a0,a4
f8003afc:	100006b7          	lui	a3,0x10000
f8003b00:	00c7e633          	or	a2,a5,a2
f8003b04:	00a6fc63          	bgeu	a3,a0,f8003b1c <__truncdfsf2+0x1b4>
f8003b08:	00160613          	add	a2,a2,1
f8003b0c:	80000537          	lui	a0,0x80000
f8003b10:	00a5f533          	and	a0,a1,a0
f8003b14:	00a66533          	or	a0,a2,a0
f8003b18:	00008067          	ret
f8003b1c:	e8d518e3          	bne	a0,a3,f80039ac <__truncdfsf2+0x44>
f8003b20:	00167513          	and	a0,a2,1
f8003b24:	00c50633          	add	a2,a0,a2
f8003b28:	80000537          	lui	a0,0x80000
f8003b2c:	00a5f533          	and	a0,a1,a0
f8003b30:	00a66533          	or	a0,a2,a0
f8003b34:	00008067          	ret

f8003b38 <__fixdfsi>:
f8003b38:	00159693          	sll	a3,a1,0x1
f8003b3c:	0016d693          	srl	a3,a3,0x1
f8003b40:	0146d613          	srl	a2,a3,0x14
f8003b44:	3ff00713          	li	a4,1023
f8003b48:	00e67663          	bgeu	a2,a4,f8003b54 <__fixdfsi+0x1c>
f8003b4c:	00000513          	li	a0,0
f8003b50:	00008067          	ret
f8003b54:	0156d713          	srl	a4,a3,0x15
f8003b58:	20f00793          	li	a5,527
f8003b5c:	02f77863          	bgeu	a4,a5,f8003b8c <__fixdfsi+0x54>
f8003b60:	01555513          	srl	a0,a0,0x15
f8003b64:	00b69693          	sll	a3,a3,0xb
f8003b68:	80000737          	lui	a4,0x80000
f8003b6c:	00e56533          	or	a0,a0,a4
f8003b70:	00d56533          	or	a0,a0,a3
f8003b74:	01e00693          	li	a3,30
f8003b78:	40c686b3          	sub	a3,a3,a2
f8003b7c:	00d55533          	srl	a0,a0,a3
f8003b80:	0005de63          	bgez	a1,f8003b9c <__fixdfsi+0x64>
f8003b84:	40a00533          	neg	a0,a0
f8003b88:	00008067          	ret
f8003b8c:	7ff00737          	lui	a4,0x7ff00
f8003b90:	00e68863          	beq	a3,a4,f8003ba0 <__fixdfsi+0x68>
f8003b94:	7ff63513          	sltiu	a0,a2,2047
f8003b98:	00051863          	bnez	a0,f8003ba8 <__fixdfsi+0x70>
f8003b9c:	00008067          	ret
f8003ba0:	00153513          	seqz	a0,a0
f8003ba4:	fe050ce3          	beqz	a0,f8003b9c <__fixdfsi+0x64>
f8003ba8:	0005a513          	slti	a0,a1,0
f8003bac:	00154513          	xor	a0,a0,1
f8003bb0:	800005b7          	lui	a1,0x80000
f8003bb4:	40a58533          	sub	a0,a1,a0
f8003bb8:	00008067          	ret

f8003bbc <_ZN17compiler_builtins5float3add8__addsf317h27f883054e64bff4E>:
f8003bbc:	80000637          	lui	a2,0x80000
f8003bc0:	fff60713          	add	a4,a2,-1 # 7fffffff <__stack_ptr+0x77ffffff>
f8003bc4:	00e576b3          	and	a3,a0,a4
f8003bc8:	80800637          	lui	a2,0x80800
f8003bcc:	00c68833          	add	a6,a3,a2
f8003bd0:	00160793          	add	a5,a2,1 # 80800001 <__stack_ptr+0x78800001>
f8003bd4:	00e5f733          	and	a4,a1,a4
f8003bd8:	02f86263          	bltu	a6,a5,f8003bfc <_ZN17compiler_builtins5float3add8__addsf317h27f883054e64bff4E+0x40>
f8003bdc:	00c70633          	add	a2,a4,a2
f8003be0:	00f66e63          	bltu	a2,a5,f8003bfc <_ZN17compiler_builtins5float3add8__addsf317h27f883054e64bff4E+0x40>
f8003be4:	00800637          	lui	a2,0x800
f8003be8:	fff60613          	add	a2,a2,-1 # 7fffff <__global_pointer+0x7ff7ff>
f8003bec:	02e6e263          	bltu	a3,a4,f8003c10 <_ZN17compiler_builtins5float3add8__addsf317h27f883054e64bff4E+0x54>
f8003bf0:	00058893          	mv	a7,a1
f8003bf4:	00050713          	mv	a4,a0
f8003bf8:	0200006f          	j	f8003c18 <_ZN17compiler_builtins5float3add8__addsf317h27f883054e64bff4E+0x5c>
f8003bfc:	7f800637          	lui	a2,0x7f800
f8003c00:	02d67e63          	bgeu	a2,a3,f8003c3c <_ZN17compiler_builtins5float3add8__addsf317h27f883054e64bff4E+0x80>
f8003c04:	00400637          	lui	a2,0x400
f8003c08:	00c6e533          	or	a0,a3,a2
f8003c0c:	00008067          	ret
f8003c10:	00050893          	mv	a7,a0
f8003c14:	00058713          	mv	a4,a1
f8003c18:	00171693          	sll	a3,a4,0x1
f8003c1c:	0186d693          	srl	a3,a3,0x18
f8003c20:	00189793          	sll	a5,a7,0x1
f8003c24:	0187d813          	srl	a6,a5,0x18
f8003c28:	00c777b3          	and	a5,a4,a2
f8003c2c:	02068063          	beqz	a3,f8003c4c <_ZN17compiler_builtins5float3add8__addsf317h27f883054e64bff4E+0x90>
f8003c30:	00c8f8b3          	and	a7,a7,a2
f8003c34:	16081463          	bnez	a6,f8003d9c <_ZN17compiler_builtins5float3add8__addsf317h27f883054e64bff4E+0x1e0>
f8003c38:	0cc0006f          	j	f8003d04 <_ZN17compiler_builtins5float3add8__addsf317h27f883054e64bff4E+0x148>
f8003c3c:	08e67a63          	bgeu	a2,a4,f8003cd0 <_ZN17compiler_builtins5float3add8__addsf317h27f883054e64bff4E+0x114>
f8003c40:	00400637          	lui	a2,0x400
f8003c44:	00c76533          	or	a0,a4,a2
f8003c48:	00008067          	ret
f8003c4c:	08078e63          	beqz	a5,f8003ce8 <_ZN17compiler_builtins5float3add8__addsf317h27f883054e64bff4E+0x12c>
f8003c50:	0017d693          	srl	a3,a5,0x1
f8003c54:	00d7e6b3          	or	a3,a5,a3
f8003c58:	0026d293          	srl	t0,a3,0x2
f8003c5c:	0056e6b3          	or	a3,a3,t0
f8003c60:	0046d293          	srl	t0,a3,0x4
f8003c64:	0056e6b3          	or	a3,a3,t0
f8003c68:	0086d293          	srl	t0,a3,0x8
f8003c6c:	0056e6b3          	or	a3,a3,t0
f8003c70:	0106d293          	srl	t0,a3,0x10
f8003c74:	0056e6b3          	or	a3,a3,t0
f8003c78:	fff6c693          	not	a3,a3
f8003c7c:	0016d293          	srl	t0,a3,0x1
f8003c80:	55555337          	lui	t1,0x55555
f8003c84:	55530313          	add	t1,t1,1365 # 55555555 <__stack_ptr+0x4d555555>
f8003c88:	0062f2b3          	and	t0,t0,t1
f8003c8c:	405686b3          	sub	a3,a3,t0
f8003c90:	333332b7          	lui	t0,0x33333
f8003c94:	33328293          	add	t0,t0,819 # 33333333 <__stack_ptr+0x2b333333>
f8003c98:	0056f333          	and	t1,a3,t0
f8003c9c:	0026d693          	srl	a3,a3,0x2
f8003ca0:	0056f6b3          	and	a3,a3,t0
f8003ca4:	00d306b3          	add	a3,t1,a3
f8003ca8:	0046d293          	srl	t0,a3,0x4
f8003cac:	005686b3          	add	a3,a3,t0
f8003cb0:	0f0f12b7          	lui	t0,0xf0f1
f8003cb4:	f0f28293          	add	t0,t0,-241 # f0f0f0f <__stack_ptr+0x70f0f0f>
f8003cb8:	0056f6b3          	and	a3,a3,t0
f8003cbc:	010102b7          	lui	t0,0x1010
f8003cc0:	10128293          	add	t0,t0,257 # 1010101 <__global_pointer+0x100f901>
f8003cc4:	025686b3          	mul	a3,a3,t0
f8003cc8:	0186d693          	srl	a3,a3,0x18
f8003ccc:	0200006f          	j	f8003cec <_ZN17compiler_builtins5float3add8__addsf317h27f883054e64bff4E+0x130>
f8003cd0:	24c69a63          	bne	a3,a2,f8003f24 <_ZN17compiler_builtins5float3add8__addsf317h27f883054e64bff4E+0x368>
f8003cd4:	00a5c5b3          	xor	a1,a1,a0
f8003cd8:	80000637          	lui	a2,0x80000
f8003cdc:	00c59463          	bne	a1,a2,f8003ce4 <_ZN17compiler_builtins5float3add8__addsf317h27f883054e64bff4E+0x128>
f8003ce0:	7fc00537          	lui	a0,0x7fc00
f8003ce4:	00008067          	ret
f8003ce8:	02000693          	li	a3,32
f8003cec:	01868293          	add	t0,a3,24 # 10000018 <__stack_ptr+0x8000018>
f8003cf0:	00900313          	li	t1,9
f8003cf4:	40d306b3          	sub	a3,t1,a3
f8003cf8:	005797b3          	sll	a5,a5,t0
f8003cfc:	00c8f8b3          	and	a7,a7,a2
f8003d00:	08081e63          	bnez	a6,f8003d9c <_ZN17compiler_builtins5float3add8__addsf317h27f883054e64bff4E+0x1e0>
f8003d04:	08088263          	beqz	a7,f8003d88 <_ZN17compiler_builtins5float3add8__addsf317h27f883054e64bff4E+0x1cc>
f8003d08:	0018d813          	srl	a6,a7,0x1
f8003d0c:	0108e833          	or	a6,a7,a6
f8003d10:	00285293          	srl	t0,a6,0x2
f8003d14:	00586833          	or	a6,a6,t0
f8003d18:	00485293          	srl	t0,a6,0x4
f8003d1c:	00586833          	or	a6,a6,t0
f8003d20:	00885293          	srl	t0,a6,0x8
f8003d24:	00586833          	or	a6,a6,t0
f8003d28:	01085293          	srl	t0,a6,0x10
f8003d2c:	00586833          	or	a6,a6,t0
f8003d30:	fff84813          	not	a6,a6
f8003d34:	00185293          	srl	t0,a6,0x1
f8003d38:	55555337          	lui	t1,0x55555
f8003d3c:	55530313          	add	t1,t1,1365 # 55555555 <__stack_ptr+0x4d555555>
f8003d40:	0062f2b3          	and	t0,t0,t1
f8003d44:	40580833          	sub	a6,a6,t0
f8003d48:	333332b7          	lui	t0,0x33333
f8003d4c:	33328293          	add	t0,t0,819 # 33333333 <__stack_ptr+0x2b333333>
f8003d50:	00587333          	and	t1,a6,t0
f8003d54:	00285813          	srl	a6,a6,0x2
f8003d58:	00587833          	and	a6,a6,t0
f8003d5c:	01030833          	add	a6,t1,a6
f8003d60:	00485293          	srl	t0,a6,0x4
f8003d64:	00580833          	add	a6,a6,t0
f8003d68:	0f0f12b7          	lui	t0,0xf0f1
f8003d6c:	f0f28293          	add	t0,t0,-241 # f0f0f0f <__stack_ptr+0x70f0f0f>
f8003d70:	00587833          	and	a6,a6,t0
f8003d74:	010102b7          	lui	t0,0x1010
f8003d78:	10128293          	add	t0,t0,257 # 1010101 <__global_pointer+0x100f901>
f8003d7c:	02580833          	mul	a6,a6,t0
f8003d80:	01885813          	srl	a6,a6,0x18
f8003d84:	0080006f          	j	f8003d8c <_ZN17compiler_builtins5float3add8__addsf317h27f883054e64bff4E+0x1d0>
f8003d88:	02000813          	li	a6,32
f8003d8c:	01880293          	add	t0,a6,24
f8003d90:	00900313          	li	t1,9
f8003d94:	41030833          	sub	a6,t1,a6
f8003d98:	005898b3          	sll	a7,a7,t0
f8003d9c:	800002b7          	lui	t0,0x80000
f8003da0:	00a5c5b3          	xor	a1,a1,a0
f8003da4:	00379793          	sll	a5,a5,0x3
f8003da8:	04000337          	lui	t1,0x4000
f8003dac:	00389893          	sll	a7,a7,0x3
f8003db0:	0068e533          	or	a0,a7,t1
f8003db4:	01069663          	bne	a3,a6,f8003dc0 <_ZN17compiler_builtins5float3add8__addsf317h27f883054e64bff4E+0x204>
f8003db8:	00050813          	mv	a6,a0
f8003dbc:	0280006f          	j	f8003de4 <_ZN17compiler_builtins5float3add8__addsf317h27f883054e64bff4E+0x228>
f8003dc0:	410688b3          	sub	a7,a3,a6
f8003dc4:	02000393          	li	t2,32
f8003dc8:	00100813          	li	a6,1
f8003dcc:	0078fc63          	bgeu	a7,t2,f8003de4 <_ZN17compiler_builtins5float3add8__addsf317h27f883054e64bff4E+0x228>
f8003dd0:	41100833          	neg	a6,a7
f8003dd4:	01051833          	sll	a6,a0,a6
f8003dd8:	01003833          	snez	a6,a6
f8003ddc:	01155533          	srl	a0,a0,a7
f8003de0:	01056833          	or	a6,a0,a6
f8003de4:	00577533          	and	a0,a4,t0
f8003de8:	0067e733          	or	a4,a5,t1
f8003dec:	0205c263          	bltz	a1,f8003e10 <_ZN17compiler_builtins5float3add8__addsf317h27f883054e64bff4E+0x254>
f8003df0:	00e805b3          	add	a1,a6,a4
f8003df4:	00459713          	sll	a4,a1,0x4
f8003df8:	0a075a63          	bgez	a4,f8003eac <_ZN17compiler_builtins5float3add8__addsf317h27f883054e64bff4E+0x2f0>
f8003dfc:	00187713          	and	a4,a6,1
f8003e00:	0015d593          	srl	a1,a1,0x1
f8003e04:	00e5e5b3          	or	a1,a1,a4
f8003e08:	00168693          	add	a3,a3,1
f8003e0c:	0a00006f          	j	f8003eac <_ZN17compiler_builtins5float3add8__addsf317h27f883054e64bff4E+0x2f0>
f8003e10:	410705b3          	sub	a1,a4,a6
f8003e14:	10058463          	beqz	a1,f8003f1c <_ZN17compiler_builtins5float3add8__addsf317h27f883054e64bff4E+0x360>
f8003e18:	01a5d713          	srl	a4,a1,0x1a
f8003e1c:	08071863          	bnez	a4,f8003eac <_ZN17compiler_builtins5float3add8__addsf317h27f883054e64bff4E+0x2f0>
f8003e20:	0015d713          	srl	a4,a1,0x1
f8003e24:	00e5e733          	or	a4,a1,a4
f8003e28:	00275793          	srl	a5,a4,0x2
f8003e2c:	00f76733          	or	a4,a4,a5
f8003e30:	00475793          	srl	a5,a4,0x4
f8003e34:	00f76733          	or	a4,a4,a5
f8003e38:	00875793          	srl	a5,a4,0x8
f8003e3c:	00f76733          	or	a4,a4,a5
f8003e40:	01075793          	srl	a5,a4,0x10
f8003e44:	00f76733          	or	a4,a4,a5
f8003e48:	fff74713          	not	a4,a4
f8003e4c:	00175793          	srl	a5,a4,0x1
f8003e50:	55555837          	lui	a6,0x55555
f8003e54:	55580813          	add	a6,a6,1365 # 55555555 <__stack_ptr+0x4d555555>
f8003e58:	0107f7b3          	and	a5,a5,a6
f8003e5c:	40f70733          	sub	a4,a4,a5
f8003e60:	333337b7          	lui	a5,0x33333
f8003e64:	33378793          	add	a5,a5,819 # 33333333 <__stack_ptr+0x2b333333>
f8003e68:	00f77833          	and	a6,a4,a5
f8003e6c:	00275713          	srl	a4,a4,0x2
f8003e70:	00f77733          	and	a4,a4,a5
f8003e74:	00e80733          	add	a4,a6,a4
f8003e78:	00475793          	srl	a5,a4,0x4
f8003e7c:	00f70733          	add	a4,a4,a5
f8003e80:	0f0f17b7          	lui	a5,0xf0f1
f8003e84:	f0f78793          	add	a5,a5,-241 # f0f0f0f <__stack_ptr+0x70f0f0f>
f8003e88:	00f77733          	and	a4,a4,a5
f8003e8c:	010107b7          	lui	a5,0x1010
f8003e90:	10178793          	add	a5,a5,257 # 1010101 <__global_pointer+0x100f901>
f8003e94:	02f70733          	mul	a4,a4,a5
f8003e98:	01875713          	srl	a4,a4,0x18
f8003e9c:	ffb70713          	add	a4,a4,-5 # 7feffffb <__stack_ptr+0x77effffb>
f8003ea0:	00e595b3          	sll	a1,a1,a4
f8003ea4:	40e686b3          	sub	a3,a3,a4
f8003ea8:	0180006f          	j	f8003ec0 <_ZN17compiler_builtins5float3add8__addsf317h27f883054e64bff4E+0x304>
f8003eac:	0fe00713          	li	a4,254
f8003eb0:	00d75863          	bge	a4,a3,f8003ec0 <_ZN17compiler_builtins5float3add8__addsf317h27f883054e64bff4E+0x304>
f8003eb4:	7f800637          	lui	a2,0x7f800
f8003eb8:	00c56533          	or	a0,a0,a2
f8003ebc:	00008067          	ret
f8003ec0:	02d04263          	bgtz	a3,f8003ee4 <_ZN17compiler_builtins5float3add8__addsf317h27f883054e64bff4E+0x328>
f8003ec4:	00100713          	li	a4,1
f8003ec8:	40d70733          	sub	a4,a4,a3
f8003ecc:	fff68693          	add	a3,a3,-1
f8003ed0:	00d596b3          	sll	a3,a1,a3
f8003ed4:	00d036b3          	snez	a3,a3
f8003ed8:	00e5d5b3          	srl	a1,a1,a4
f8003edc:	00d5e5b3          	or	a1,a1,a3
f8003ee0:	00000693          	li	a3,0
f8003ee4:	0075f713          	and	a4,a1,7
f8003ee8:	0035d593          	srl	a1,a1,0x3
f8003eec:	00c5f633          	and	a2,a1,a2
f8003ef0:	01769693          	sll	a3,a3,0x17
f8003ef4:	00a6e6b3          	or	a3,a3,a0
f8003ef8:	00400513          	li	a0,4
f8003efc:	00d66633          	or	a2,a2,a3
f8003f00:	00e57663          	bgeu	a0,a4,f8003f0c <_ZN17compiler_builtins5float3add8__addsf317h27f883054e64bff4E+0x350>
f8003f04:	00160513          	add	a0,a2,1 # 7f800001 <__stack_ptr+0x77800001>
f8003f08:	00008067          	ret
f8003f0c:	04a71063          	bne	a4,a0,f8003f4c <_ZN17compiler_builtins5float3add8__addsf317h27f883054e64bff4E+0x390>
f8003f10:	0015f593          	and	a1,a1,1
f8003f14:	00b60533          	add	a0,a2,a1
f8003f18:	00008067          	ret
f8003f1c:	00000513          	li	a0,0
f8003f20:	00008067          	ret
f8003f24:	00c71663          	bne	a4,a2,f8003f30 <_ZN17compiler_builtins5float3add8__addsf317h27f883054e64bff4E+0x374>
f8003f28:	00058513          	mv	a0,a1
f8003f2c:	00008067          	ret
f8003f30:	00068863          	beqz	a3,f8003f40 <_ZN17compiler_builtins5float3add8__addsf317h27f883054e64bff4E+0x384>
f8003f34:	00050613          	mv	a2,a0
f8003f38:	ca0716e3          	bnez	a4,f8003be4 <_ZN17compiler_builtins5float3add8__addsf317h27f883054e64bff4E+0x28>
f8003f3c:	0100006f          	j	f8003f4c <_ZN17compiler_builtins5float3add8__addsf317h27f883054e64bff4E+0x390>
f8003f40:	00058613          	mv	a2,a1
f8003f44:	00071463          	bnez	a4,f8003f4c <_ZN17compiler_builtins5float3add8__addsf317h27f883054e64bff4E+0x390>
f8003f48:	00a5f633          	and	a2,a1,a0
f8003f4c:	00060513          	mv	a0,a2
f8003f50:	00008067          	ret

f8003f54 <_ZN17compiler_builtins5float3add8__adddf317h102d65cc23c7818bE>:
f8003f54:	800007b7          	lui	a5,0x80000
f8003f58:	fff78793          	add	a5,a5,-1 # 7fffffff <__stack_ptr+0x77ffffff>
f8003f5c:	00f5f733          	and	a4,a1,a5
f8003f60:	80100837          	lui	a6,0x80100
f8003f64:	00070c63          	beqz	a4,f8003f7c <_ZN17compiler_builtins5float3add8__adddf317h102d65cc23c7818bE+0x28>
f8003f68:	010708b3          	add	a7,a4,a6
f8003f6c:	0108b8b3          	sltu	a7,a7,a6
f8003f70:	00f6f7b3          	and	a5,a3,a5
f8003f74:	00088a63          	beqz	a7,f8003f88 <_ZN17compiler_builtins5float3add8__adddf317h102d65cc23c7818bE+0x34>
f8003f78:	0580006f          	j	f8003fd0 <_ZN17compiler_builtins5float3add8__adddf317h102d65cc23c7818bE+0x7c>
f8003f7c:	00153893          	seqz	a7,a0
f8003f80:	00f6f7b3          	and	a5,a3,a5
f8003f84:	04089663          	bnez	a7,f8003fd0 <_ZN17compiler_builtins5float3add8__adddf317h102d65cc23c7818bE+0x7c>
f8003f88:	01078833          	add	a6,a5,a6
f8003f8c:	801008b7          	lui	a7,0x80100
f8003f90:	01180863          	beq	a6,a7,f8003fa0 <_ZN17compiler_builtins5float3add8__adddf317h102d65cc23c7818bE+0x4c>
f8003f94:	01183833          	sltu	a6,a6,a7
f8003f98:	00080863          	beqz	a6,f8003fa8 <_ZN17compiler_builtins5float3add8__adddf317h102d65cc23c7818bE+0x54>
f8003f9c:	0340006f          	j	f8003fd0 <_ZN17compiler_builtins5float3add8__adddf317h102d65cc23c7818bE+0x7c>
f8003fa0:	00163813          	seqz	a6,a2
f8003fa4:	02081663          	bnez	a6,f8003fd0 <_ZN17compiler_builtins5float3add8__adddf317h102d65cc23c7818bE+0x7c>
f8003fa8:	00100837          	lui	a6,0x100
f8003fac:	08e78663          	beq	a5,a4,f8004038 <_ZN17compiler_builtins5float3add8__adddf317h102d65cc23c7818bE+0xe4>
f8003fb0:	00f737b3          	sltu	a5,a4,a5
f8003fb4:	fff80713          	add	a4,a6,-1 # fffff <__global_pointer+0xff7ff>
f8003fb8:	08078663          	beqz	a5,f8004044 <_ZN17compiler_builtins5float3add8__adddf317h102d65cc23c7818bE+0xf0>
f8003fbc:	00050813          	mv	a6,a0
f8003fc0:	00058313          	mv	t1,a1
f8003fc4:	00060513          	mv	a0,a2
f8003fc8:	00068613          	mv	a2,a3
f8003fcc:	0840006f          	j	f8004050 <_ZN17compiler_builtins5float3add8__adddf317h102d65cc23c7818bE+0xfc>
f8003fd0:	7ff00837          	lui	a6,0x7ff00
f8003fd4:	0b070463          	beq	a4,a6,f800407c <_ZN17compiler_builtins5float3add8__adddf317h102d65cc23c7818bE+0x128>
f8003fd8:	00e83833          	sltu	a6,a6,a4
f8003fdc:	0a081463          	bnez	a6,f8004084 <_ZN17compiler_builtins5float3add8__adddf317h102d65cc23c7818bE+0x130>
f8003fe0:	7ff00837          	lui	a6,0x7ff00
f8003fe4:	13078c63          	beq	a5,a6,f800411c <_ZN17compiler_builtins5float3add8__adddf317h102d65cc23c7818bE+0x1c8>
f8003fe8:	00f83833          	sltu	a6,a6,a5
f8003fec:	12081c63          	bnez	a6,f8004124 <_ZN17compiler_builtins5float3add8__adddf317h102d65cc23c7818bE+0x1d0>
f8003ff0:	7ff00837          	lui	a6,0x7ff00
f8003ff4:	010748b3          	xor	a7,a4,a6
f8003ff8:	011568b3          	or	a7,a0,a7
f8003ffc:	50089063          	bnez	a7,f80044fc <_ZN17compiler_builtins5float3add8__adddf317h102d65cc23c7818bE+0x5a8>
f8004000:	00a64633          	xor	a2,a2,a0
f8004004:	00b6c6b3          	xor	a3,a3,a1
f8004008:	80000737          	lui	a4,0x80000
f800400c:	00e6c6b3          	xor	a3,a3,a4
f8004010:	00d666b3          	or	a3,a2,a3
f8004014:	0016b613          	seqz	a2,a3
f8004018:	00069463          	bnez	a3,f8004020 <_ZN17compiler_builtins5float3add8__adddf317h102d65cc23c7818bE+0xcc>
f800401c:	7ff805b7          	lui	a1,0x7ff80
f8004020:	fff60613          	add	a2,a2,-1
f8004024:	00a67633          	and	a2,a2,a0
f8004028:	00058693          	mv	a3,a1
f800402c:	00060513          	mv	a0,a2
f8004030:	00068593          	mv	a1,a3
f8004034:	00008067          	ret
f8004038:	00c537b3          	sltu	a5,a0,a2
f800403c:	fff80713          	add	a4,a6,-1 # 7fefffff <__stack_ptr+0x77efffff>
f8004040:	f6079ee3          	bnez	a5,f8003fbc <_ZN17compiler_builtins5float3add8__adddf317h102d65cc23c7818bE+0x68>
f8004044:	00060813          	mv	a6,a2
f8004048:	00068313          	mv	t1,a3
f800404c:	00058613          	mv	a2,a1
f8004050:	ff010113          	add	sp,sp,-16
f8004054:	00812623          	sw	s0,12(sp)
f8004058:	00161793          	sll	a5,a2,0x1
f800405c:	0157d793          	srl	a5,a5,0x15
f8004060:	00131893          	sll	a7,t1,0x1
f8004064:	0158d293          	srl	t0,a7,0x15
f8004068:	00e678b3          	and	a7,a2,a4
f800406c:	02078463          	beqz	a5,f8004094 <_ZN17compiler_builtins5float3add8__adddf317h102d65cc23c7818bE+0x140>
f8004070:	00e37333          	and	t1,t1,a4
f8004074:	28029263          	bnez	t0,f80042f8 <_ZN17compiler_builtins5float3add8__adddf317h102d65cc23c7818bE+0x3a4>
f8004078:	1600006f          	j	f80041d8 <_ZN17compiler_builtins5float3add8__adddf317h102d65cc23c7818bE+0x284>
f800407c:	00a03833          	snez	a6,a0
f8004080:	f60800e3          	beqz	a6,f8003fe0 <_ZN17compiler_builtins5float3add8__adddf317h102d65cc23c7818bE+0x8c>
f8004084:	000806b7          	lui	a3,0x80
f8004088:	00d766b3          	or	a3,a4,a3
f800408c:	00068593          	mv	a1,a3
f8004090:	00008067          	ret
f8004094:	00155793          	srl	a5,a0,0x1
f8004098:	555553b7          	lui	t2,0x55555
f800409c:	55538f13          	add	t5,t2,1365 # 55555555 <__stack_ptr+0x4d555555>
f80040a0:	333333b7          	lui	t2,0x33333
f80040a4:	33338e93          	add	t4,t2,819 # 33333333 <__stack_ptr+0x2b333333>
f80040a8:	0f0f13b7          	lui	t2,0xf0f1
f80040ac:	f0f38393          	add	t2,t2,-241 # f0f0f0f <__stack_ptr+0x70f0f0f>
f80040b0:	01010e37          	lui	t3,0x1010
f80040b4:	101e0e13          	add	t3,t3,257 # 1010101 <__global_pointer+0x100f901>
f80040b8:	08089063          	bnez	a7,f8004138 <_ZN17compiler_builtins5float3add8__adddf317h102d65cc23c7818bE+0x1e4>
f80040bc:	00f56fb3          	or	t6,a0,a5
f80040c0:	002fd413          	srl	s0,t6,0x2
f80040c4:	008fefb3          	or	t6,t6,s0
f80040c8:	004fd413          	srl	s0,t6,0x4
f80040cc:	008fefb3          	or	t6,t6,s0
f80040d0:	008fd413          	srl	s0,t6,0x8
f80040d4:	008fefb3          	or	t6,t6,s0
f80040d8:	010fd413          	srl	s0,t6,0x10
f80040dc:	008fefb3          	or	t6,t6,s0
f80040e0:	ffffcf93          	not	t6,t6
f80040e4:	001fd413          	srl	s0,t6,0x1
f80040e8:	01e47f33          	and	t5,s0,t5
f80040ec:	41ef8f33          	sub	t5,t6,t5
f80040f0:	01df7fb3          	and	t6,t5,t4
f80040f4:	002f5f13          	srl	t5,t5,0x2
f80040f8:	01df7eb3          	and	t4,t5,t4
f80040fc:	01df8eb3          	add	t4,t6,t4
f8004100:	004edf13          	srl	t5,t4,0x4
f8004104:	01ee8eb3          	add	t4,t4,t5
f8004108:	007ef3b3          	and	t2,t4,t2
f800410c:	03c383b3          	mul	t2,t2,t3
f8004110:	0183d393          	srl	t2,t2,0x18
f8004114:	02038393          	add	t2,t2,32
f8004118:	07c0006f          	j	f8004194 <_ZN17compiler_builtins5float3add8__adddf317h102d65cc23c7818bE+0x240>
f800411c:	00c03833          	snez	a6,a2
f8004120:	ec0808e3          	beqz	a6,f8003ff0 <_ZN17compiler_builtins5float3add8__adddf317h102d65cc23c7818bE+0x9c>
f8004124:	000806b7          	lui	a3,0x80
f8004128:	00d7e6b3          	or	a3,a5,a3
f800412c:	00060513          	mv	a0,a2
f8004130:	00068593          	mv	a1,a3
f8004134:	00008067          	ret
f8004138:	0018df93          	srl	t6,a7,0x1
f800413c:	01f8efb3          	or	t6,a7,t6
f8004140:	002fd413          	srl	s0,t6,0x2
f8004144:	008fefb3          	or	t6,t6,s0
f8004148:	004fd413          	srl	s0,t6,0x4
f800414c:	008fefb3          	or	t6,t6,s0
f8004150:	008fd413          	srl	s0,t6,0x8
f8004154:	008fefb3          	or	t6,t6,s0
f8004158:	010fd413          	srl	s0,t6,0x10
f800415c:	008fefb3          	or	t6,t6,s0
f8004160:	ffffcf93          	not	t6,t6
f8004164:	001fd413          	srl	s0,t6,0x1
f8004168:	01e47f33          	and	t5,s0,t5
f800416c:	41ef8f33          	sub	t5,t6,t5
f8004170:	01df7fb3          	and	t6,t5,t4
f8004174:	002f5f13          	srl	t5,t5,0x2
f8004178:	01df7eb3          	and	t4,t5,t4
f800417c:	01df8eb3          	add	t4,t6,t4
f8004180:	004edf13          	srl	t5,t4,0x4
f8004184:	01ee8eb3          	add	t4,t4,t5
f8004188:	007ef3b3          	and	t2,t4,t2
f800418c:	03c383b3          	mul	t2,t2,t3
f8004190:	0183d393          	srl	t2,t2,0x18
f8004194:	03538e13          	add	t3,t2,53
f8004198:	03fe7f93          	and	t6,t3,63
f800419c:	fe0f8e93          	add	t4,t6,-32
f80041a0:	00c00f13          	li	t5,12
f80041a4:	000ec663          	bltz	t4,f80041b0 <_ZN17compiler_builtins5float3add8__adddf317h102d65cc23c7818bE+0x25c>
f80041a8:	01f518b3          	sll	a7,a0,t6
f80041ac:	0140006f          	j	f80041c0 <_ZN17compiler_builtins5float3add8__adddf317h102d65cc23c7818bE+0x26c>
f80041b0:	01c898b3          	sll	a7,a7,t3
f80041b4:	ffffcf93          	not	t6,t6
f80041b8:	01f7d7b3          	srl	a5,a5,t6
f80041bc:	00f8e8b3          	or	a7,a7,a5
f80041c0:	407f07b3          	sub	a5,t5,t2
f80041c4:	01c51533          	sll	a0,a0,t3
f80041c8:	41fed393          	sra	t2,t4,0x1f
f80041cc:	00a3f533          	and	a0,t2,a0
f80041d0:	00e37333          	and	t1,t1,a4
f80041d4:	12029263          	bnez	t0,f80042f8 <_ZN17compiler_builtins5float3add8__adddf317h102d65cc23c7818bE+0x3a4>
f80041d8:	00185293          	srl	t0,a6,0x1
f80041dc:	555553b7          	lui	t2,0x55555
f80041e0:	55538f13          	add	t5,t2,1365 # 55555555 <__stack_ptr+0x4d555555>
f80041e4:	333333b7          	lui	t2,0x33333
f80041e8:	33338e93          	add	t4,t2,819 # 33333333 <__stack_ptr+0x2b333333>
f80041ec:	0f0f13b7          	lui	t2,0xf0f1
f80041f0:	f0f38393          	add	t2,t2,-241 # f0f0f0f <__stack_ptr+0x70f0f0f>
f80041f4:	01010e37          	lui	t3,0x1010
f80041f8:	101e0e13          	add	t3,t3,257 # 1010101 <__global_pointer+0x100f901>
f80041fc:	06031263          	bnez	t1,f8004260 <_ZN17compiler_builtins5float3add8__adddf317h102d65cc23c7818bE+0x30c>
f8004200:	00586fb3          	or	t6,a6,t0
f8004204:	002fd413          	srl	s0,t6,0x2
f8004208:	008fefb3          	or	t6,t6,s0
f800420c:	004fd413          	srl	s0,t6,0x4
f8004210:	008fefb3          	or	t6,t6,s0
f8004214:	008fd413          	srl	s0,t6,0x8
f8004218:	008fefb3          	or	t6,t6,s0
f800421c:	010fd413          	srl	s0,t6,0x10
f8004220:	008fefb3          	or	t6,t6,s0
f8004224:	ffffcf93          	not	t6,t6
f8004228:	001fd413          	srl	s0,t6,0x1
f800422c:	01e47f33          	and	t5,s0,t5
f8004230:	41ef8f33          	sub	t5,t6,t5
f8004234:	01df7fb3          	and	t6,t5,t4
f8004238:	002f5f13          	srl	t5,t5,0x2
f800423c:	01df7eb3          	and	t4,t5,t4
f8004240:	01df8eb3          	add	t4,t6,t4
f8004244:	004edf13          	srl	t5,t4,0x4
f8004248:	01ee8eb3          	add	t4,t4,t5
f800424c:	007ef3b3          	and	t2,t4,t2
f8004250:	03c383b3          	mul	t2,t2,t3
f8004254:	0183d393          	srl	t2,t2,0x18
f8004258:	02038393          	add	t2,t2,32
f800425c:	0600006f          	j	f80042bc <_ZN17compiler_builtins5float3add8__adddf317h102d65cc23c7818bE+0x368>
f8004260:	00135f93          	srl	t6,t1,0x1
f8004264:	01f36fb3          	or	t6,t1,t6
f8004268:	002fd413          	srl	s0,t6,0x2
f800426c:	008fefb3          	or	t6,t6,s0
f8004270:	004fd413          	srl	s0,t6,0x4
f8004274:	008fefb3          	or	t6,t6,s0
f8004278:	008fd413          	srl	s0,t6,0x8
f800427c:	008fefb3          	or	t6,t6,s0
f8004280:	010fd413          	srl	s0,t6,0x10
f8004284:	008fefb3          	or	t6,t6,s0
f8004288:	ffffcf93          	not	t6,t6
f800428c:	001fd413          	srl	s0,t6,0x1
f8004290:	01e47f33          	and	t5,s0,t5
f8004294:	41ef8f33          	sub	t5,t6,t5
f8004298:	01df7fb3          	and	t6,t5,t4
f800429c:	002f5f13          	srl	t5,t5,0x2
f80042a0:	01df7eb3          	and	t4,t5,t4
f80042a4:	01df8eb3          	add	t4,t6,t4
f80042a8:	004edf13          	srl	t5,t4,0x4
f80042ac:	01ee8eb3          	add	t4,t4,t5
f80042b0:	007ef3b3          	and	t2,t4,t2
f80042b4:	03c383b3          	mul	t2,t2,t3
f80042b8:	0183d393          	srl	t2,t2,0x18
f80042bc:	03538e13          	add	t3,t2,53
f80042c0:	03fe7f93          	and	t6,t3,63
f80042c4:	fe0f8e93          	add	t4,t6,-32
f80042c8:	00c00f13          	li	t5,12
f80042cc:	000ec663          	bltz	t4,f80042d8 <_ZN17compiler_builtins5float3add8__adddf317h102d65cc23c7818bE+0x384>
f80042d0:	01f81333          	sll	t1,a6,t6
f80042d4:	0140006f          	j	f80042e8 <_ZN17compiler_builtins5float3add8__adddf317h102d65cc23c7818bE+0x394>
f80042d8:	01c31333          	sll	t1,t1,t3
f80042dc:	ffffcf93          	not	t6,t6
f80042e0:	01f2d2b3          	srl	t0,t0,t6
f80042e4:	00536333          	or	t1,t1,t0
f80042e8:	407f02b3          	sub	t0,t5,t2
f80042ec:	01c81833          	sll	a6,a6,t3
f80042f0:	41fed393          	sra	t2,t4,0x1f
f80042f4:	0103f833          	and	a6,t2,a6
f80042f8:	800003b7          	lui	t2,0x80000
f80042fc:	00b6c6b3          	xor	a3,a3,a1
f8004300:	01d55593          	srl	a1,a0,0x1d
f8004304:	00389893          	sll	a7,a7,0x3
f8004308:	00b8e8b3          	or	a7,a7,a1
f800430c:	00800e37          	lui	t3,0x800
f8004310:	01d85593          	srl	a1,a6,0x1d
f8004314:	00331313          	sll	t1,t1,0x3
f8004318:	00381813          	sll	a6,a6,0x3
f800431c:	01c5e5b3          	or	a1,a1,t3
f8004320:	00b36333          	or	t1,t1,a1
f8004324:	08578863          	beq	a5,t0,f80043b4 <_ZN17compiler_builtins5float3add8__adddf317h102d65cc23c7818bE+0x460>
f8004328:	405785b3          	sub	a1,a5,t0
f800432c:	04000293          	li	t0,64
f8004330:	0055fe63          	bgeu	a1,t0,f800434c <_ZN17compiler_builtins5float3add8__adddf317h102d65cc23c7818bE+0x3f8>
f8004334:	40b002b3          	neg	t0,a1
f8004338:	03f2ff13          	and	t5,t0,63
f800433c:	fe0f0e93          	add	t4,t5,-32 # 7fefffe0 <__stack_ptr+0x77efffe0>
f8004340:	000ecc63          	bltz	t4,f8004358 <_ZN17compiler_builtins5float3add8__adddf317h102d65cc23c7818bE+0x404>
f8004344:	01e81f33          	sll	t5,a6,t5
f8004348:	0240006f          	j	f800436c <_ZN17compiler_builtins5float3add8__adddf317h102d65cc23c7818bE+0x418>
f800434c:	00000313          	li	t1,0
f8004350:	00100813          	li	a6,1
f8004354:	0600006f          	j	f80043b4 <_ZN17compiler_builtins5float3add8__adddf317h102d65cc23c7818bE+0x460>
f8004358:	00531fb3          	sll	t6,t1,t0
f800435c:	ffff4f13          	not	t5,t5
f8004360:	00185413          	srl	s0,a6,0x1
f8004364:	01e45f33          	srl	t5,s0,t5
f8004368:	01efef33          	or	t5,t6,t5
f800436c:	005812b3          	sll	t0,a6,t0
f8004370:	41fede93          	sra	t4,t4,0x1f
f8004374:	005ef2b3          	and	t0,t4,t0
f8004378:	01e2e2b3          	or	t0,t0,t5
f800437c:	005032b3          	snez	t0,t0
f8004380:	fe058f13          	add	t5,a1,-32 # 7ff7ffe0 <__stack_ptr+0x77f7ffe0>
f8004384:	00b35eb3          	srl	t4,t1,a1
f8004388:	000f4663          	bltz	t5,f8004394 <_ZN17compiler_builtins5float3add8__adddf317h102d65cc23c7818bE+0x440>
f800438c:	000e8593          	mv	a1,t4
f8004390:	0180006f          	j	f80043a8 <_ZN17compiler_builtins5float3add8__adddf317h102d65cc23c7818bE+0x454>
f8004394:	00b85833          	srl	a6,a6,a1
f8004398:	fff5c593          	not	a1,a1
f800439c:	00131313          	sll	t1,t1,0x1
f80043a0:	00b315b3          	sll	a1,t1,a1
f80043a4:	00b865b3          	or	a1,a6,a1
f80043a8:	41ff5813          	sra	a6,t5,0x1f
f80043ac:	01d87333          	and	t1,a6,t4
f80043b0:	0055e833          	or	a6,a1,t0
f80043b4:	007675b3          	and	a1,a2,t2
f80043b8:	00351613          	sll	a2,a0,0x3
f80043bc:	01c8e533          	or	a0,a7,t3
f80043c0:	00c12403          	lw	s0,12(sp)
f80043c4:	01010113          	add	sp,sp,16
f80043c8:	0206ce63          	bltz	a3,f8004404 <_ZN17compiler_builtins5float3add8__adddf317h102d65cc23c7818bE+0x4b0>
f80043cc:	00c80633          	add	a2,a6,a2
f80043d0:	010636b3          	sltu	a3,a2,a6
f80043d4:	00a30533          	add	a0,t1,a0
f80043d8:	00d50533          	add	a0,a0,a3
f80043dc:	00751693          	sll	a3,a0,0x7
f80043e0:	0e06d663          	bgez	a3,f80044cc <_ZN17compiler_builtins5float3add8__adddf317h102d65cc23c7818bE+0x578>
f80043e4:	00187693          	and	a3,a6,1
f80043e8:	00165613          	srl	a2,a2,0x1
f80043ec:	01f51813          	sll	a6,a0,0x1f
f80043f0:	00155513          	srl	a0,a0,0x1
f80043f4:	00d66633          	or	a2,a2,a3
f80043f8:	01066633          	or	a2,a2,a6
f80043fc:	00178793          	add	a5,a5,1
f8004400:	0cc0006f          	j	f80044cc <_ZN17compiler_builtins5float3add8__adddf317h102d65cc23c7818bE+0x578>
f8004404:	010636b3          	sltu	a3,a2,a6
f8004408:	40650533          	sub	a0,a0,t1
f800440c:	40d50533          	sub	a0,a0,a3
f8004410:	41060633          	sub	a2,a2,a6
f8004414:	00a666b3          	or	a3,a2,a0
f8004418:	0c068a63          	beqz	a3,f80044ec <_ZN17compiler_builtins5float3add8__adddf317h102d65cc23c7818bE+0x598>
f800441c:	01755693          	srl	a3,a0,0x17
f8004420:	0a069663          	bnez	a3,f80044cc <_ZN17compiler_builtins5float3add8__adddf317h102d65cc23c7818bE+0x578>
f8004424:	00165693          	srl	a3,a2,0x1
f8004428:	55555837          	lui	a6,0x55555
f800442c:	55580313          	add	t1,a6,1365 # 55555555 <__stack_ptr+0x4d555555>
f8004430:	33333837          	lui	a6,0x33333
f8004434:	33380293          	add	t0,a6,819 # 33333333 <__stack_ptr+0x2b333333>
f8004438:	0f0f1837          	lui	a6,0xf0f1
f800443c:	f0f80813          	add	a6,a6,-241 # f0f0f0f <__stack_ptr+0x70f0f0f>
f8004440:	010108b7          	lui	a7,0x1010
f8004444:	10188893          	add	a7,a7,257 # 1010101 <__global_pointer+0x100f901>
f8004448:	0c051a63          	bnez	a0,f800451c <_ZN17compiler_builtins5float3add8__adddf317h102d65cc23c7818bE+0x5c8>
f800444c:	00d663b3          	or	t2,a2,a3
f8004450:	0023de13          	srl	t3,t2,0x2
f8004454:	01c3e3b3          	or	t2,t2,t3
f8004458:	0043de13          	srl	t3,t2,0x4
f800445c:	01c3e3b3          	or	t2,t2,t3
f8004460:	0083de13          	srl	t3,t2,0x8
f8004464:	01c3e3b3          	or	t2,t2,t3
f8004468:	0103de13          	srl	t3,t2,0x10
f800446c:	01c3e3b3          	or	t2,t2,t3
f8004470:	fff3c393          	not	t2,t2
f8004474:	0013de13          	srl	t3,t2,0x1
f8004478:	006e7333          	and	t1,t3,t1
f800447c:	40638333          	sub	t1,t2,t1
f8004480:	005373b3          	and	t2,t1,t0
f8004484:	00235313          	srl	t1,t1,0x2
f8004488:	005372b3          	and	t0,t1,t0
f800448c:	005382b3          	add	t0,t2,t0
f8004490:	0042d313          	srl	t1,t0,0x4
f8004494:	006282b3          	add	t0,t0,t1
f8004498:	0102f833          	and	a6,t0,a6
f800449c:	03180833          	mul	a6,a6,a7
f80044a0:	01885813          	srl	a6,a6,0x18
f80044a4:	02080293          	add	t0,a6,32
f80044a8:	fd828893          	add	a7,t0,-40 # 7fffffd8 <__stack_ptr+0x77ffffd8>
f80044ac:	ff828813          	add	a6,t0,-8
f80044b0:	0c08da63          	bgez	a7,f8004584 <_ZN17compiler_builtins5float3add8__adddf317h102d65cc23c7818bE+0x630>
f80044b4:	02700313          	li	t1,39
f80044b8:	405302b3          	sub	t0,t1,t0
f80044bc:	0056d6b3          	srl	a3,a3,t0
f80044c0:	01051533          	sll	a0,a0,a6
f80044c4:	00d56533          	or	a0,a0,a3
f80044c8:	0c00006f          	j	f8004588 <_ZN17compiler_builtins5float3add8__adddf317h102d65cc23c7818bE+0x634>
f80044cc:	7fe00693          	li	a3,2046
f80044d0:	0cf6d463          	bge	a3,a5,f8004598 <_ZN17compiler_builtins5float3add8__adddf317h102d65cc23c7818bE+0x644>
f80044d4:	00000613          	li	a2,0
f80044d8:	7ff006b7          	lui	a3,0x7ff00
f80044dc:	00d5e6b3          	or	a3,a1,a3
f80044e0:	00060513          	mv	a0,a2
f80044e4:	00068593          	mv	a1,a3
f80044e8:	00008067          	ret
f80044ec:	00000613          	li	a2,0
f80044f0:	00060513          	mv	a0,a2
f80044f4:	00068593          	mv	a1,a3
f80044f8:	00008067          	ret
f80044fc:	0107c833          	xor	a6,a5,a6
f8004500:	01066833          	or	a6,a2,a6
f8004504:	b20804e3          	beqz	a6,f800402c <_ZN17compiler_builtins5float3add8__adddf317h102d65cc23c7818bE+0xd8>
f8004508:	00e56833          	or	a6,a0,a4
f800450c:	16080e63          	beqz	a6,f8004688 <_ZN17compiler_builtins5float3add8__adddf317h102d65cc23c7818bE+0x734>
f8004510:	00f66833          	or	a6,a2,a5
f8004514:	a8081ae3          	bnez	a6,f8003fa8 <_ZN17compiler_builtins5float3add8__adddf317h102d65cc23c7818bE+0x54>
f8004518:	00008067          	ret
f800451c:	00155393          	srl	t2,a0,0x1
f8004520:	007563b3          	or	t2,a0,t2
f8004524:	0023de13          	srl	t3,t2,0x2
f8004528:	01c3e3b3          	or	t2,t2,t3
f800452c:	0043de13          	srl	t3,t2,0x4
f8004530:	01c3e3b3          	or	t2,t2,t3
f8004534:	0083de13          	srl	t3,t2,0x8
f8004538:	01c3e3b3          	or	t2,t2,t3
f800453c:	0103de13          	srl	t3,t2,0x10
f8004540:	01c3e3b3          	or	t2,t2,t3
f8004544:	fff3c393          	not	t2,t2
f8004548:	0013de13          	srl	t3,t2,0x1
f800454c:	006e7333          	and	t1,t3,t1
f8004550:	40638333          	sub	t1,t2,t1
f8004554:	005373b3          	and	t2,t1,t0
f8004558:	00235313          	srl	t1,t1,0x2
f800455c:	005372b3          	and	t0,t1,t0
f8004560:	005382b3          	add	t0,t2,t0
f8004564:	0042d313          	srl	t1,t0,0x4
f8004568:	006282b3          	add	t0,t0,t1
f800456c:	0102f833          	and	a6,t0,a6
f8004570:	03180833          	mul	a6,a6,a7
f8004574:	01885293          	srl	t0,a6,0x18
f8004578:	fd828893          	add	a7,t0,-40
f800457c:	ff828813          	add	a6,t0,-8
f8004580:	f208cae3          	bltz	a7,f80044b4 <_ZN17compiler_builtins5float3add8__adddf317h102d65cc23c7818bE+0x560>
f8004584:	01161533          	sll	a0,a2,a7
f8004588:	01061633          	sll	a2,a2,a6
f800458c:	41f8d693          	sra	a3,a7,0x1f
f8004590:	00c6f633          	and	a2,a3,a2
f8004594:	410787b3          	sub	a5,a5,a6
f8004598:	fff00693          	li	a3,-1
f800459c:	08f04463          	bgtz	a5,f8004624 <_ZN17compiler_builtins5float3add8__adddf317h102d65cc23c7818bE+0x6d0>
f80045a0:	00100313          	li	t1,1
f80045a4:	fff78813          	add	a6,a5,-1
f80045a8:	03f87293          	and	t0,a6,63
f80045ac:	fe028893          	add	a7,t0,-32
f80045b0:	40f307b3          	sub	a5,t1,a5
f80045b4:	0008c663          	bltz	a7,f80045c0 <_ZN17compiler_builtins5float3add8__adddf317h102d65cc23c7818bE+0x66c>
f80045b8:	005612b3          	sll	t0,a2,t0
f80045bc:	0180006f          	j	f80045d4 <_ZN17compiler_builtins5float3add8__adddf317h102d65cc23c7818bE+0x680>
f80045c0:	01051333          	sll	t1,a0,a6
f80045c4:	00165393          	srl	t2,a2,0x1
f80045c8:	fff2c293          	not	t0,t0
f80045cc:	0053d2b3          	srl	t0,t2,t0
f80045d0:	005362b3          	or	t0,t1,t0
f80045d4:	01061833          	sll	a6,a2,a6
f80045d8:	41f8d893          	sra	a7,a7,0x1f
f80045dc:	0108f833          	and	a6,a7,a6
f80045e0:	00586833          	or	a6,a6,t0
f80045e4:	01003833          	snez	a6,a6
f80045e8:	03f7f313          	and	t1,a5,63
f80045ec:	00f558b3          	srl	a7,a0,a5
f80045f0:	fe030393          	add	t2,t1,-32 # 3ffffe0 <__global_pointer+0x3fff7e0>
f80045f4:	41f3d293          	sra	t0,t2,0x1f
f80045f8:	0003c663          	bltz	t2,f8004604 <_ZN17compiler_builtins5float3add8__adddf317h102d65cc23c7818bE+0x6b0>
f80045fc:	00655633          	srl	a2,a0,t1
f8004600:	0180006f          	j	f8004618 <_ZN17compiler_builtins5float3add8__adddf317h102d65cc23c7818bE+0x6c4>
f8004604:	00f65633          	srl	a2,a2,a5
f8004608:	fff34793          	not	a5,t1
f800460c:	00151513          	sll	a0,a0,0x1
f8004610:	00f51533          	sll	a0,a0,a5
f8004614:	00a66633          	or	a2,a2,a0
f8004618:	00000793          	li	a5,0
f800461c:	0112f533          	and	a0,t0,a7
f8004620:	01066633          	or	a2,a2,a6
f8004624:	00767813          	and	a6,a2,7
f8004628:	00365613          	srl	a2,a2,0x3
f800462c:	01d51893          	sll	a7,a0,0x1d
f8004630:	011668b3          	or	a7,a2,a7
f8004634:	00355513          	srl	a0,a0,0x3
f8004638:	00d8f633          	and	a2,a7,a3
f800463c:	00e57733          	and	a4,a0,a4
f8004640:	01479793          	sll	a5,a5,0x14
f8004644:	00b7e5b3          	or	a1,a5,a1
f8004648:	00400513          	li	a0,4
f800464c:	00e5e6b3          	or	a3,a1,a4
f8004650:	01057e63          	bgeu	a0,a6,f800466c <_ZN17compiler_builtins5float3add8__adddf317h102d65cc23c7818bE+0x718>
f8004654:	00160613          	add	a2,a2,1
f8004658:	00163513          	seqz	a0,a2
f800465c:	00a686b3          	add	a3,a3,a0
f8004660:	00060513          	mv	a0,a2
f8004664:	00068593          	mv	a1,a3
f8004668:	00008067          	ret
f800466c:	9ca810e3          	bne	a6,a0,f800402c <_ZN17compiler_builtins5float3add8__adddf317h102d65cc23c7818bE+0xd8>
f8004670:	0018f513          	and	a0,a7,1
f8004674:	00a60533          	add	a0,a2,a0
f8004678:	00c535b3          	sltu	a1,a0,a2
f800467c:	00b686b3          	add	a3,a3,a1
f8004680:	00068593          	mv	a1,a3
f8004684:	00008067          	ret
f8004688:	00f667b3          	or	a5,a2,a5
f800468c:	9a0790e3          	bnez	a5,f800402c <_ZN17compiler_builtins5float3add8__adddf317h102d65cc23c7818bE+0xd8>
f8004690:	00a67633          	and	a2,a2,a0
f8004694:	00b6f6b3          	and	a3,a3,a1
f8004698:	00060513          	mv	a0,a2
f800469c:	00068593          	mv	a1,a3
f80046a0:	00008067          	ret

f80046a4 <__muldf3>:
f80046a4:	fffff317          	auipc	t1,0xfffff
f80046a8:	9a830067          	jr	-1624(t1) # f800304c <_ZN17compiler_builtins5float3mul8__muldf317h9c96990b14960675E>

f80046ac <.Lanon.fad58de7366495db4650cfefac2fcd61.0>:
f80046ac:	0000                	.2byte	0x0
f80046ae:	0000                	.2byte	0x0
f80046b0:	0000                	.2byte	0x0
f80046b2:	bf00                	.2byte	0xbf00
f80046b4:	0000                	.2byte	0x0
f80046b6:	0000                	.2byte	0x0
f80046b8:	0000                	.2byte	0x0
f80046ba:	3f80                	.2byte	0x3f80
f80046bc:	0000                	.2byte	0x0
f80046be:	0000                	.2byte	0x0
f80046c0:	0000                	.2byte	0x0
f80046c2:	3f80                	.2byte	0x3f80
f80046c4:	0000                	.2byte	0x0
f80046c6:	bf00                	.2byte	0xbf00
f80046c8:	0000                	.2byte	0x0
f80046ca:	3f00                	.2byte	0x3f00
f80046cc:	0000                	.2byte	0x0
f80046ce:	0000                	.2byte	0x0
f80046d0:	0000                	.2byte	0x0
f80046d2:	3f80                	.2byte	0x3f80
f80046d4:	0000                	.2byte	0x0
f80046d6:	3f80                	.2byte	0x3f80
f80046d8:	0000                	.2byte	0x0
f80046da:	0000                	.2byte	0x0
f80046dc:	0000                	.2byte	0x0
f80046de:	3f00                	.2byte	0x3f00
f80046e0:	0000                	.2byte	0x0
f80046e2:	3f00                	.2byte	0x3f00
	...
f80046ec:	0000                	.2byte	0x0
f80046ee:	3f80                	.2byte	0x3f80
f80046f0:	0000                	.2byte	0x0
f80046f2:	3f80                	.2byte	0x3f80

f80046f4 <.Lanon.fad58de7366495db4650cfefac2fcd61.1>:
f80046f4:	0212                	.2byte	0x212
f80046f6:	0300                	.2byte	0x300
f80046f8:	0301                	.2byte	0x301
f80046fa:	0302                	.2byte	0x302
f80046fc:	01040303          	lb	t1,16(s0)
f8004700:	0410                	.2byte	0x410
f8004702:	1002                	.2byte	0x1002
f8004704:	1101                	.2byte	0x1101
f8004706:	0006                	.2byte	0x6
f8004708:	0300                	.2byte	0x300
f800470a:	0300                	.2byte	0x300
f800470c:	03100207          	.4byte	0x3100207
	...

f8004712 <.Lanon.fad58de7366495db4650cfefac2fcd61.2>:
f8004712:	0204                	.2byte	0x204
f8004714:	0110                	.2byte	0x110
f8004716:	0610                	.2byte	0x610
f8004718:	0000                	.2byte	0x0
f800471a:	1001                	.2byte	0x1001
f800471c:	0600                	.2byte	0x600
f800471e:	0100                	.2byte	0x100
f8004720:	06020003          	lb	zero,96(tp) # 60 <_bss+0x60>
f8004724:	0200                	.2byte	0x200
f8004726:	0c000003          	lb	zero,192(zero) # c0 <_bss+0xc0>
f800472a:	0000                	.2byte	0x0
f800472c:	0100                	.2byte	0x100
f800472e:	0000                	.2byte	0x0
f8004730:	0b02                	.2byte	0xb02
f8004732:	0000                	.2byte	0x0
f8004734:	1002                	.2byte	0x1002
f8004736:	0000                	.2byte	0x0
f8004738:	0002                	.2byte	0x2
	...

f800473c <.Lanon.fad58de7366495db4650cfefac2fcd61.3>:
f800473c:	0010                	.2byte	0x10
f800473e:	0212                	.2byte	0x212
f8004740:	0000                	.2byte	0x0
f8004742:	0000                	.2byte	0x0
f8004744:	0018                	.2byte	0x18
f8004746:	0000                	.2byte	0x0
f8004748:	0011                	.2byte	0x11
f800474a:	0212                	.2byte	0x212
f800474c:	000c                	.2byte	0xc
f800474e:	0000                	.2byte	0x0
f8004750:	0018                	.2byte	0x18
	...

f8004754 <.Lanon.fad58de7366495db4650cfefac2fcd61.4>:
f8004754:	473c                	.2byte	0x473c
f8004756:	f800                	.2byte	0xf800
f8004758:	0002                	.2byte	0x2
	...

f800475c <.Lanon.fad58de7366495db4650cfefac2fcd61.5>:
f800475c:	0010                	.2byte	0x10
f800475e:	0304                	.2byte	0x304
	...

f8004768 <.Lanon.fad58de7366495db4650cfefac2fcd61.6>:
f8004768:	0000                	.2byte	0x0
f800476a:	0000                	.2byte	0x0
f800476c:	475c                	.2byte	0x475c
f800476e:	f800                	.2byte	0xf800
f8004770:	0001                	.2byte	0x1
f8004772:	0000                	.2byte	0x0
f8004774:	00100203          	lb	tp,1(zero) # 1 <_bss+0x1>

f8004778 <.Lanon.fad58de7366495db4650cfefac2fcd61.8>:
f8004778:	0000                	.2byte	0x0
f800477a:	0000                	.2byte	0x0
f800477c:	0100                	.2byte	0x100
f800477e:	00101203          	lh	tp,1(zero) # 1 <_bss+0x1>
f8004782:	0000                	.2byte	0x0
f8004784:	0101                	.2byte	0x101
f8004786:	00201203          	lh	tp,2(zero) # 2 <_bss+0x2>
f800478a:	0000                	.2byte	0x0
f800478c:	0102                	.2byte	0x102
f800478e:	00301203          	lh	tp,3(zero) # 3 <_bss+0x3>
f8004792:	0000                	.2byte	0x0
f8004794:	12030103          	lb	sp,288(t1)
f8004798:	0040                	.2byte	0x40
f800479a:	0000                	.2byte	0x0
f800479c:	0104                	.2byte	0x104
f800479e:	          	lh	tp,16(zero) # 10 <_bss+0x10>

f80047a0 <.Lanon.fad58de7366495db4650cfefac2fcd61.9>:
f80047a0:	0100                	.2byte	0x100

f80047a2 <.Lanon.fad58de7366495db4650cfefac2fcd61.10>:
	...

f80047a4 <.Lanon.fad58de7366495db4650cfefac2fcd61.11>:
f80047a4:	4774                	.2byte	0x4774
f80047a6:	f800                	.2byte	0xf800
f80047a8:	4778                	.2byte	0x4778
f80047aa:	f800                	.2byte	0xf800
f80047ac:	47a0                	.2byte	0x47a0
f80047ae:	f800                	.2byte	0xf800
f80047b0:	47a2                	.2byte	0x47a2
f80047b2:	f800                	.2byte	0xf800
f80047b4:	0501                	.2byte	0x501
f80047b6:	0102                	.2byte	0x102

f80047b8 <.Lanon.fad58de7366495db4650cfefac2fcd61.12>:
f80047b8:	4754                	.2byte	0x4754
f80047ba:	f800                	.2byte	0xf800
f80047bc:	4768                	.2byte	0x4768
f80047be:	f800                	.2byte	0xf800
f80047c0:	47a4                	.2byte	0x47a4
f80047c2:	f800                	.2byte	0xf800
f80047c4:	00000003          	lb	zero,0(zero) # 0 <_bss>
f80047c8:	0004                	.2byte	0x4
f80047ca:	0000                	.2byte	0x0
f80047cc:	0004                	.2byte	0x4
f80047ce:	0000                	.2byte	0x0
f80047d0:	0006                	.2byte	0x6
	...

f80047d4 <.Lanon.1d99c4919ee1f97df7d753d2a2e76a27.1>:
f80047d4:	00a2f983          	.4byte	0xa2f983
f80047d8:	4e44                	.2byte	0x4e44
f80047da:	006e                	.2byte	0x6e
f80047dc:	29fc                	.2byte	0x29fc
f80047de:	0015                	.2byte	0x15
f80047e0:	57d1                	.2byte	0x57d1
f80047e2:	34dd0027          	.4byte	0x34dd0027
f80047e6:	00f5                	.2byte	0xf5
f80047e8:	db62                	.2byte	0xdb62
f80047ea:	00c0                	.2byte	0xc0
f80047ec:	993c                	.2byte	0x993c
f80047ee:	0095                	.2byte	0x95
f80047f0:	9041                	.2byte	0x9041
f80047f2:	51630043          	.4byte	0x51630043
f80047f6:	00fe                	.2byte	0xfe
f80047f8:	00abdebb          	.4byte	0xabdebb
f80047fc:	00c561b7          	lui	gp,0xc56
f8004800:	6e3a                	.2byte	0x6e3a
f8004802:	0024                	.2byte	0x24
f8004804:	4dd2                	.2byte	0x4dd2
f8004806:	0042                	.2byte	0x42
f8004808:	0649                	.2byte	0x649
f800480a:	00e0                	.2byte	0xe0
f800480c:	ea09                	.2byte	0xea09
f800480e:	002e                	.2byte	0x2e
f8004810:	921c                	.2byte	0x921c
f8004812:	00d1                	.2byte	0xd1
f8004814:	00fe1deb          	.4byte	0xfe1deb
f8004818:	b129                	.2byte	0xb129
f800481a:	001c                	.2byte	0x1c
f800481c:	3ee8                	.2byte	0x3ee8
f800481e:	35f500a7          	.4byte	0x35f500a7
f8004822:	0082                	.2byte	0x82
f8004824:	bb44                	.2byte	0xbb44
f8004826:	002e                	.2byte	0x2e
f8004828:	e99c                	.2byte	0xe99c
f800482a:	0084                	.2byte	0x84
f800482c:	26b4                	.2byte	0x26b4
f800482e:	0070                	.2byte	0x70
f8004830:	7e41                	.2byte	0x7e41
f8004832:	005f 91d6 0039      	.byte	0x5f, 0x00, 0xd6, 0x91, 0x39, 0x00
f8004838:	00398353          	.4byte	0x398353
f800483c:	f49c                	.2byte	0xf49c
f800483e:	0039                	.2byte	0x39
f8004840:	00845f8b          	.4byte	0x845f8b
f8004844:	f928                	.2byte	0xf928
f8004846:	00bd                	.2byte	0xbd
f8004848:	1ff8                	.2byte	0x1ff8
f800484a:	ffde003b          	.4byte	0xffde003b
f800484e:	980f0097          	auipc	ra,0x980f0
f8004852:	0005                	.2byte	0x5
f8004854:	2f11                	.2byte	0x2f11
f8004856:	5a0a00ef          	jal	f80a4df6 <_etext+0xa04d6>
f800485a:	1f6d008b          	.4byte	0x1f6d008b
f800485e:	006d                	.2byte	0x6d
f8004860:	00367ecf          	.4byte	0x367ecf
f8004864:	cb09                	.2byte	0xcb09
f8004866:	4f460027          	.4byte	0x4f460027
f800486a:	669e00b7          	lui	ra,0x669e0
f800486e:	ea2d003f 27ba005f 	.8byte	0x27ba005fea2d003f
f8004876:	0075                	.2byte	0x75
f8004878:	ebe5                	.2byte	0xebe5
f800487a:	7b3d00c7          	.4byte	0x7b3d00c7
f800487e:	00f1                	.2byte	0xf1
f8004880:	000739f7          	.4byte	0x739f7
f8004884:	5292                	.2byte	0x5292
f8004886:	008a                	.2byte	0x8a
f8004888:	00ea6bfb          	.4byte	0xea6bfb
f800488c:	b11f 005f 5d08      	.byte	0x1f, 0xb1, 0x5f, 0x00, 0x08, 0x5d
f8004892:	008d                	.2byte	0x8d
f8004894:	0330                	.2byte	0x330
f8004896:	0056                	.2byte	0x56
f8004898:	0046fc7b          	.4byte	0x46fc7b
f800489c:	abf0                	.2byte	0xabf0
f800489e:	bc20006b          	.4byte	0xbc20006b
f80048a2:	f43600cf          	.4byte	0xf43600cf
f80048a6:	009a                	.2byte	0x9a
f80048a8:	001da9e3          	.4byte	0x1da9e3
f80048ac:	615e                	.2byte	0x615e
f80048ae:	0091                	.2byte	0x91
f80048b0:	1b08                	.2byte	0x1b08
f80048b2:	00e6                	.2byte	0xe6
f80048b4:	9985                	.2byte	0x9985
f80048b6:	0065                	.2byte	0x65
f80048b8:	14a0                	.2byte	0x14a0
f80048ba:	005f 408d 0068      	.byte	0x5f, 0x00, 0x8d, 0x40, 0x68, 0x00
f80048c0:	d880                	.2byte	0xd880
f80048c2:	00ff 7327 004d 0606 	.byte	0xff, 0x00, 0x27, 0x73, 0x4d, 0x00, 0x06, 0x06, 0x31, 0x00
f80048ca:	0031 
f80048cc:	56ca                	.2byte	0x56ca
f80048ce:	0015                	.2byte	0x15
f80048d0:	a8c9                	.2byte	0xa8c9
f80048d2:	e27b0073          	.4byte	0xe27b0073
f80048d6:	0060                	.2byte	0x60
f80048d8:	00c08c6b          	.4byte	0xc08c6b
f80048dc:	0000                	.2byte	0x0
	...

f80048e0 <.Lanon.1d99c4919ee1f97df7d753d2a2e76a27.2>:
f80048e0:	0000                	.2byte	0x0
f80048e2:	4000                	.2byte	0x4000
f80048e4:	3ff921fb          	.4byte	0x3ff921fb
f80048e8:	0000                	.2byte	0x0
f80048ea:	0000                	.2byte	0x0
f80048ec:	442d                	.2byte	0x442d
f80048ee:	3e74                	.2byte	0x3e74
f80048f0:	0000                	.2byte	0x0
f80048f2:	8000                	.2byte	0x8000
f80048f4:	4698                	.2byte	0x4698
f80048f6:	3cf8                	.2byte	0x3cf8
f80048f8:	0000                	.2byte	0x0
f80048fa:	6000                	.2byte	0x6000
f80048fc:	cc51                	.2byte	0xcc51
f80048fe:	3b78                	.2byte	0x3b78
f8004900:	0000                	.2byte	0x0
f8004902:	8000                	.2byte	0x8000
f8004904:	39f01b83          	lh	s7,927(zero) # 39f <_bss+0x39f>
f8004908:	0000                	.2byte	0x0
f800490a:	4000                	.2byte	0x4000
f800490c:	2520                	.2byte	0x2520
f800490e:	387a                	.2byte	0x387a
f8004910:	0000                	.2byte	0x0
f8004912:	8000                	.2byte	0x8000
f8004914:	8222                	.2byte	0x8222
f8004916:	000036e3          	.4byte	0x36e3
f800491a:	0000                	.2byte	0x0
f800491c:	f31d                	.2byte	0xf31d
f800491e:	3569                	.2byte	0x3569

Disassembly of section .eh_frame:

f8004920 <.eh_frame>:
f8004920:	0010                	.2byte	0x10
f8004922:	0000                	.2byte	0x0
f8004924:	0000                	.2byte	0x0
f8004926:	0000                	.2byte	0x0
f8004928:	7a01                	.2byte	0x7a01
f800492a:	0052                	.2byte	0x52
f800492c:	7c01                	.2byte	0x7c01
f800492e:	0101                	.2byte	0x101
f8004930:	00020c1b          	.4byte	0x20c1b
f8004934:	0014                	.2byte	0x14
f8004936:	0000                	.2byte	0x0
f8004938:	0018                	.2byte	0x18
f800493a:	0000                	.2byte	0x0
f800493c:	b6c4                	.2byte	0xb6c4
f800493e:	ffff                	.2byte	0xffff
f8004940:	0098                	.2byte	0x98
f8004942:	0000                	.2byte	0x0
f8004944:	0700                	.2byte	0x700
f8004946:	0701                	.2byte	0x701
f8004948:	00000003          	lb	zero,0(zero) # 0 <_bss>
f800494c:	0000                	.2byte	0x0
	...

Disassembly of section .comment:

00000000 <.comment>:
   0:	694c                	.2byte	0x694c
   2:	6b6e                	.2byte	0x6b6e
   4:	7265                	.2byte	0x7265
   6:	203a                	.2byte	0x203a
   8:	4c4c                	.2byte	0x4c4c
   a:	2044                	.2byte	0x2044
   c:	3831                	.2byte	0x3831
   e:	312e                	.2byte	0x312e
  10:	372e                	.2byte	0x372e
  12:	0000                	.2byte	0x0
  14:	7572                	.2byte	0x7572
  16:	20637473          	.4byte	0x20637473
  1a:	6576                	.2byte	0x6576
  1c:	7372                	.2byte	0x7372
  1e:	6f69                	.2byte	0x6f69
  20:	206e                	.2byte	0x206e
  22:	2e31                	.2byte	0x2e31
  24:	3138                	.2byte	0x3138
  26:	302e                	.2byte	0x302e
  28:	6e2d                	.2byte	0x6e2d
  2a:	6769                	.2byte	0x6769
  2c:	7468                	.2byte	0x7468
  2e:	796c                	.2byte	0x796c
  30:	2820                	.2byte	0x2820
  32:	3039                	.2byte	0x3039
  34:	3735                	.2byte	0x3735
  36:	66663363          	.4byte	0x66663363
  3a:	2065                	.2byte	0x2065
  3c:	3032                	.2byte	0x3032
  3e:	3432                	.2byte	0x3432
  40:	302d                	.2byte	0x302d
  42:	39312d37          	lui	s10,0x39312
  46:	0029                	.2byte	0x29

Disassembly of section .riscv.attributes:

00000000 <.riscv.attributes>:
   0:	2541                	.2byte	0x2541
   2:	0000                	.2byte	0x0
   4:	7200                	.2byte	0x7200
   6:	7369                	.2byte	0x7369
   8:	01007663          	bgeu	zero,a6,14 <_bss+0x14>
   c:	0000001b          	.4byte	0x1b
  10:	1004                	.2byte	0x1004
  12:	7205                	.2byte	0x7205
  14:	3376                	.2byte	0x3376
  16:	6932                	.2byte	0x6932
  18:	7032                	.2byte	0x7032
  1a:	5f31                	.2byte	0x5f31
  1c:	326d                	.2byte	0x326d
  1e:	3070                	.2byte	0x3070
  20:	615f 7032 0031      	.byte	0x5f, 0x61, 0x32, 0x70, 0x31, 0x00
