
./target/riscv32i-unknown-none-elf/release/main:     file format elf32-littleriscv


Disassembly of section .text:

f8000000 <_start>:
f8000000:	00000093          	li	ra,0
f8000004:	00000113          	li	sp,0
f8000008:	00000193          	li	gp,0
f800000c:	00000213          	li	tp,0
f8000010:	00000293          	li	t0,0
f8000014:	00000313          	li	t1,0
f8000018:	00000393          	li	t2,0
f800001c:	00000413          	li	s0,0
f8000020:	00000493          	li	s1,0
f8000024:	00000513          	li	a0,0
f8000028:	00000593          	li	a1,0
f800002c:	00000613          	li	a2,0
f8000030:	00000693          	li	a3,0
f8000034:	00000713          	li	a4,0
f8000038:	00000793          	li	a5,0
f800003c:	00000813          	li	a6,0
f8000040:	00000893          	li	a7,0
f8000044:	00000913          	li	s2,0
f8000048:	00000993          	li	s3,0
f800004c:	00000a13          	li	s4,0
f8000050:	00000a93          	li	s5,0
f8000054:	00000b13          	li	s6,0
f8000058:	00000b93          	li	s7,0
f800005c:	00000c13          	li	s8,0
f8000060:	00000c93          	li	s9,0
f8000064:	00000d13          	li	s10,0
f8000068:	00000d93          	li	s11,0
f800006c:	00000e13          	li	t3,0
f8000070:	00000e93          	li	t4,0
f8000074:	00000f13          	li	t5,0
f8000078:	00000f93          	li	t6,0
f800007c:	000011b7          	lui	gp,0x1
f8000080:	80018193          	add	gp,gp,-2048 # 800 <__global_pointer>
f8000084:	08000137          	lui	sp,0x8000
f8000088:	00010113          	mv	sp,sp
f800008c:	028000ef          	jal	f80000b4 <main>

f8000090 <wfi_loop>:
f8000090:	10500073          	wfi
f8000094:	ffdff06f          	j	f8000090 <wfi_loop>

f8000098 <_ZN45_$LT$$LP$$RP$$u20$as$u20$core..fmt..Debug$GT$3fmt17hbd62b6bf94697ecdE>:
f8000098:	f8002537          	lui	a0,0xf8002
f800009c:	1fc50693          	add	a3,a0,508 # f80021fc <.Lanon.fad58de7366495db4650cfefac2fcd61.0>
f80000a0:	00200613          	li	a2,2
f80000a4:	00058513          	mv	a0,a1
f80000a8:	00068593          	mv	a1,a3
f80000ac:	00001317          	auipc	t1,0x1
f80000b0:	61430067          	jr	1556(t1) # f80016c0 <_ZN4core3fmt9Formatter3pad17hf58a3ce2f8d352a7E>

f80000b4 <main>:
f80000b4:	a9010113          	add	sp,sp,-1392 # 7fffa90 <.Lline_table_start1+0x7ffefa0>
f80000b8:	56112623          	sw	ra,1388(sp)
f80000bc:	56812423          	sw	s0,1384(sp)
f80000c0:	56912223          	sw	s1,1380(sp)
f80000c4:	00012623          	sw	zero,12(sp)
f80000c8:	00012823          	sw	zero,16(sp)
f80000cc:	01610413          	add	s0,sp,22
f80000d0:	01610513          	add	a0,sp,22
f80000d4:	40000613          	li	a2,1024
f80000d8:	40000493          	li	s1,1024
f80000dc:	00000593          	li	a1,0
f80000e0:	00002097          	auipc	ra,0x2
f80000e4:	00c080e7          	jalr	12(ra) # f80020ec <memset>
f80000e8:	00200513          	li	a0,2
f80000ec:	40a11d23          	sh	a0,1050(sp)
f80000f0:	20000513          	li	a0,512
f80000f4:	40a11b23          	sh	a0,1046(sp)
f80000f8:	18000593          	li	a1,384
f80000fc:	40b11c23          	sh	a1,1048(sp)
f8000100:	40011e23          	sh	zero,1052(sp)
f8000104:	40a11f23          	sh	a0,1054(sp)
f8000108:	42011023          	sh	zero,1056(sp)
f800010c:	42b11123          	sh	a1,1058(sp)
f8000110:	4c812223          	sw	s0,1220(sp)
f8000114:	4c912423          	sw	s1,1224(sp)
f8000118:	00800513          	li	a0,8
f800011c:	4ca12623          	sw	a0,1228(sp)
f8000120:	4b810513          	add	a0,sp,1208
f8000124:	4c410593          	add	a1,sp,1220
f8000128:	00100613          	li	a2,1
f800012c:	00100693          	li	a3,1
f8000130:	00100713          	li	a4,1
f8000134:	00100793          	li	a5,1
f8000138:	00000097          	auipc	ra,0x0
f800013c:	724080e7          	jalr	1828(ra) # f800085c <_ZN138_$LT$rvfm..command_list..CommandListBuilder$LT$rvfm..gpu..command..GpuCommands$GT$$u20$as$u20$rvfm..gpu..command..GpuCommandBuilderExt$GT$14set_video_mode17h1188299069452b22E>
f8000140:	4b812503          	lw	a0,1208(sp)
f8000144:	3a050063          	beqz	a0,f80004e4 <main+0x430>
f8000148:	4c012503          	lw	a0,1216(sp)
f800014c:	4bc12583          	lw	a1,1212(sp)
f8000150:	4b812603          	lw	a2,1208(sp)
f8000154:	4ca12c23          	sw	a0,1240(sp)
f8000158:	4cb12a23          	sw	a1,1236(sp)
f800015c:	4cc12823          	sw	a2,1232(sp)
f8000160:	4ac10513          	add	a0,sp,1196
f8000164:	4d010593          	add	a1,sp,1232
f8000168:	04800693          	li	a3,72
f800016c:	00000613          	li	a2,0
f8000170:	00001097          	auipc	ra,0x1
f8000174:	84c080e7          	jalr	-1972(ra) # f80009bc <_ZN138_$LT$rvfm..command_list..CommandListBuilder$LT$rvfm..gpu..command..GpuCommands$GT$$u20$as$u20$rvfm..gpu..command..GpuCommandBuilderExt$GT$16configure_buffer17h58c49b2c25dea266E>
f8000178:	4ac12503          	lw	a0,1196(sp)
f800017c:	36050463          	beqz	a0,f80004e4 <main+0x430>
f8000180:	4b412503          	lw	a0,1204(sp)
f8000184:	4b012583          	lw	a1,1200(sp)
f8000188:	4ac12603          	lw	a2,1196(sp)
f800018c:	4ea12223          	sw	a0,1252(sp)
f8000190:	4eb12023          	sw	a1,1248(sp)
f8000194:	4cc12e23          	sw	a2,1244(sp)
f8000198:	f8002537          	lui	a0,0xf8002
f800019c:	24450693          	add	a3,a0,580 # f8002244 <.Lanon.fad58de7366495db4650cfefac2fcd61.3>
f80001a0:	4a010513          	add	a0,sp,1184
f80001a4:	4dc10593          	add	a1,sp,1244
f80001a8:	00000613          	li	a2,0
f80001ac:	00001097          	auipc	ra,0x1
f80001b0:	8b4080e7          	jalr	-1868(ra) # f8000a60 <_ZN138_$LT$rvfm..command_list..CommandListBuilder$LT$rvfm..gpu..command..GpuCommands$GT$$u20$as$u20$rvfm..gpu..command..GpuCommandBuilderExt$GT$13upload_buffer17h500714608189438cE>
f80001b4:	4a012503          	lw	a0,1184(sp)
f80001b8:	32050663          	beqz	a0,f80004e4 <main+0x430>
f80001bc:	4a812503          	lw	a0,1192(sp)
f80001c0:	4a412583          	lw	a1,1188(sp)
f80001c4:	4a012603          	lw	a2,1184(sp)
f80001c8:	4ea12823          	sw	a0,1264(sp)
f80001cc:	4eb12623          	sw	a1,1260(sp)
f80001d0:	4ec12423          	sw	a2,1256(sp)
f80001d4:	49410513          	add	a0,sp,1172
f80001d8:	4e810593          	add	a1,sp,1256
f80001dc:	00100613          	li	a2,1
f80001e0:	01000693          	li	a3,16
f80001e4:	00000097          	auipc	ra,0x0
f80001e8:	7d8080e7          	jalr	2008(ra) # f80009bc <_ZN138_$LT$rvfm..command_list..CommandListBuilder$LT$rvfm..gpu..command..GpuCommands$GT$$u20$as$u20$rvfm..gpu..command..GpuCommandBuilderExt$GT$16configure_buffer17h58c49b2c25dea266E>
f80001ec:	49412503          	lw	a0,1172(sp)
f80001f0:	2e050a63          	beqz	a0,f80004e4 <main+0x430>
f80001f4:	49c12503          	lw	a0,1180(sp)
f80001f8:	49812583          	lw	a1,1176(sp)
f80001fc:	49412603          	lw	a2,1172(sp)
f8000200:	4ea12e23          	sw	a0,1276(sp)
f8000204:	4eb12c23          	sw	a1,1272(sp)
f8000208:	4ec12a23          	sw	a2,1268(sp)
f800020c:	f8002537          	lui	a0,0xf8002
f8000210:	29c50693          	add	a3,a0,668 # f800229c <.Lanon.fad58de7366495db4650cfefac2fcd61.3+0x58>
f8000214:	48810513          	add	a0,sp,1160
f8000218:	4f410593          	add	a1,sp,1268
f800021c:	00100613          	li	a2,1
f8000220:	00001097          	auipc	ra,0x1
f8000224:	840080e7          	jalr	-1984(ra) # f8000a60 <_ZN138_$LT$rvfm..command_list..CommandListBuilder$LT$rvfm..gpu..command..GpuCommands$GT$$u20$as$u20$rvfm..gpu..command..GpuCommandBuilderExt$GT$13upload_buffer17h500714608189438cE>
f8000228:	48812503          	lw	a0,1160(sp)
f800022c:	2a050c63          	beqz	a0,f80004e4 <main+0x430>
f8000230:	49012503          	lw	a0,1168(sp)
f8000234:	48c12583          	lw	a1,1164(sp)
f8000238:	48812603          	lw	a2,1160(sp)
f800023c:	50a12423          	sw	a0,1288(sp)
f8000240:	50b12223          	sw	a1,1284(sp)
f8000244:	50c12023          	sw	a2,1280(sp)
f8000248:	47c10513          	add	a0,sp,1148
f800024c:	50010593          	add	a1,sp,1280
f8000250:	41610693          	add	a3,sp,1046
f8000254:	00000613          	li	a2,0
f8000258:	00000097          	auipc	ra,0x0
f800025c:	6a4080e7          	jalr	1700(ra) # f80008fc <_ZN138_$LT$rvfm..command_list..CommandListBuilder$LT$rvfm..gpu..command..GpuCommands$GT$$u20$as$u20$rvfm..gpu..command..GpuCommandBuilderExt$GT$17configure_texture17hf217f5bcca2dd3cbE>
f8000260:	47c12503          	lw	a0,1148(sp)
f8000264:	28050063          	beqz	a0,f80004e4 <main+0x430>
f8000268:	48412503          	lw	a0,1156(sp)
f800026c:	48012583          	lw	a1,1152(sp)
f8000270:	47c12603          	lw	a2,1148(sp)
f8000274:	50a12a23          	sw	a0,1300(sp)
f8000278:	50b12823          	sw	a1,1296(sp)
f800027c:	50c12623          	sw	a2,1292(sp)
f8000280:	f8002537          	lui	a0,0xf8002
f8000284:	2ac50713          	add	a4,a0,684 # f80022ac <.Lanon.fad58de7366495db4650cfefac2fcd61.5>
f8000288:	47010513          	add	a0,sp,1136
f800028c:	50c10593          	add	a1,sp,1292
f8000290:	01600793          	li	a5,22
f8000294:	00000613          	li	a2,0
f8000298:	00000693          	li	a3,0
f800029c:	00001097          	auipc	ra,0x1
f80002a0:	868080e7          	jalr	-1944(ra) # f8000b04 <_ZN138_$LT$rvfm..command_list..CommandListBuilder$LT$rvfm..gpu..command..GpuCommands$GT$$u20$as$u20$rvfm..gpu..command..GpuCommandBuilderExt$GT$13upload_shader17h60b4a67fad9a5125E>
f80002a4:	47012503          	lw	a0,1136(sp)
f80002a8:	22050e63          	beqz	a0,f80004e4 <main+0x430>
f80002ac:	47812503          	lw	a0,1144(sp)
f80002b0:	47412583          	lw	a1,1140(sp)
f80002b4:	47012603          	lw	a2,1136(sp)
f80002b8:	52a12023          	sw	a0,1312(sp)
f80002bc:	50b12e23          	sw	a1,1308(sp)
f80002c0:	50c12c23          	sw	a2,1304(sp)
f80002c4:	f8002537          	lui	a0,0xf8002
f80002c8:	2c250713          	add	a4,a0,706 # f80022c2 <.Lanon.fad58de7366495db4650cfefac2fcd61.6>
f80002cc:	46410513          	add	a0,sp,1124
f80002d0:	51810593          	add	a1,sp,1304
f80002d4:	00100613          	li	a2,1
f80002d8:	00100693          	li	a3,1
f80002dc:	00500793          	li	a5,5
f80002e0:	00001097          	auipc	ra,0x1
f80002e4:	824080e7          	jalr	-2012(ra) # f8000b04 <_ZN138_$LT$rvfm..command_list..CommandListBuilder$LT$rvfm..gpu..command..GpuCommands$GT$$u20$as$u20$rvfm..gpu..command..GpuCommandBuilderExt$GT$13upload_shader17h60b4a67fad9a5125E>
f80002e8:	46412503          	lw	a0,1124(sp)
f80002ec:	1e050c63          	beqz	a0,f80004e4 <main+0x430>
f80002f0:	46c12503          	lw	a0,1132(sp)
f80002f4:	46812583          	lw	a1,1128(sp)
f80002f8:	46412603          	lw	a2,1124(sp)
f80002fc:	52a12623          	sw	a0,1324(sp)
f8000300:	52b12423          	sw	a1,1320(sp)
f8000304:	52c12223          	sw	a2,1316(sp)
f8000308:	f8002537          	lui	a0,0xf8002
f800030c:	32450693          	add	a3,a0,804 # f8002324 <.Lanon.fad58de7366495db4650cfefac2fcd61.16>
f8000310:	45810513          	add	a0,sp,1112
f8000314:	52410593          	add	a1,sp,1316
f8000318:	00000613          	li	a2,0
f800031c:	00001097          	auipc	ra,0x1
f8000320:	8a0080e7          	jalr	-1888(ra) # f8000bbc <_ZN138_$LT$rvfm..command_list..CommandListBuilder$LT$rvfm..gpu..command..GpuCommands$GT$$u20$as$u20$rvfm..gpu..command..GpuCommandBuilderExt$GT$30upload_graphics_pipeline_state17h37b9e28ad3f0a3b4E>
f8000324:	45812503          	lw	a0,1112(sp)
f8000328:	1a050e63          	beqz	a0,f80004e4 <main+0x430>
f800032c:	46012503          	lw	a0,1120(sp)
f8000330:	45c12583          	lw	a1,1116(sp)
f8000334:	45812603          	lw	a2,1112(sp)
f8000338:	52a12c23          	sw	a0,1336(sp)
f800033c:	52b12a23          	sw	a1,1332(sp)
f8000340:	52c12823          	sw	a2,1328(sp)
f8000344:	44c10513          	add	a0,sp,1100
f8000348:	53010593          	add	a1,sp,1328
f800034c:	ff0006b7          	lui	a3,0xff000
f8000350:	00000613          	li	a2,0
f8000354:	00000097          	auipc	ra,0x0
f8000358:	418080e7          	jalr	1048(ra) # f800076c <_ZN138_$LT$rvfm..command_list..CommandListBuilder$LT$rvfm..gpu..command..GpuCommands$GT$$u20$as$u20$rvfm..gpu..command..GpuCommandBuilderExt$GT$27set_constant_sampler_unorm817h6589fbe79c81f007E>
f800035c:	44c12503          	lw	a0,1100(sp)
f8000360:	18050263          	beqz	a0,f80004e4 <main+0x430>
f8000364:	45412503          	lw	a0,1108(sp)
f8000368:	45012583          	lw	a1,1104(sp)
f800036c:	44c12603          	lw	a2,1100(sp)
f8000370:	54a12223          	sw	a0,1348(sp)
f8000374:	54b12023          	sw	a1,1344(sp)
f8000378:	52c12e23          	sw	a2,1340(sp)
f800037c:	44010513          	add	a0,sp,1088
f8000380:	53c10593          	add	a1,sp,1340
f8000384:	00000613          	li	a2,0
f8000388:	00000693          	li	a3,0
f800038c:	00000097          	auipc	ra,0x0
f8000390:	2b4080e7          	jalr	692(ra) # f8000640 <_ZN138_$LT$rvfm..command_list..CommandListBuilder$LT$rvfm..gpu..command..GpuCommands$GT$$u20$as$u20$rvfm..gpu..command..GpuCommandBuilderExt$GT$13clear_texture17h470c97843352abd9E>
f8000394:	44012503          	lw	a0,1088(sp)
f8000398:	14050663          	beqz	a0,f80004e4 <main+0x430>
f800039c:	44812503          	lw	a0,1096(sp)
f80003a0:	44412583          	lw	a1,1092(sp)
f80003a4:	44012603          	lw	a2,1088(sp)
f80003a8:	54a12823          	sw	a0,1360(sp)
f80003ac:	54b12623          	sw	a1,1356(sp)
f80003b0:	54c12423          	sw	a2,1352(sp)
f80003b4:	43410513          	add	a0,sp,1076
f80003b8:	54810593          	add	a1,sp,1352
f80003bc:	00100713          	li	a4,1
f80003c0:	00300793          	li	a5,3
f80003c4:	41c10813          	add	a6,sp,1052
f80003c8:	00000613          	li	a2,0
f80003cc:	00000693          	li	a3,0
f80003d0:	00001097          	auipc	ra,0x1
f80003d4:	890080e7          	jalr	-1904(ra) # f8000c60 <_ZN138_$LT$rvfm..command_list..CommandListBuilder$LT$rvfm..gpu..command..GpuCommands$GT$$u20$as$u20$rvfm..gpu..command..GpuCommandBuilderExt$GT$22draw_graphics_pipeline17hcb1b57f7dac4c82fE>
f80003d8:	43412503          	lw	a0,1076(sp)
f80003dc:	10050463          	beqz	a0,f80004e4 <main+0x430>
f80003e0:	43c12503          	lw	a0,1084(sp)
f80003e4:	43812583          	lw	a1,1080(sp)
f80003e8:	43412603          	lw	a2,1076(sp)
f80003ec:	54a12e23          	sw	a0,1372(sp)
f80003f0:	54b12c23          	sw	a1,1368(sp)
f80003f4:	54c12a23          	sw	a2,1364(sp)
f80003f8:	42410513          	add	a0,sp,1060
f80003fc:	55410593          	add	a1,sp,1364
f8000400:	01010693          	add	a3,sp,16
f8000404:	00000613          	li	a2,0
f8000408:	00000713          	li	a4,0
f800040c:	00000097          	auipc	ra,0x0
f8000410:	2b8080e7          	jalr	696(ra) # f80006c4 <_ZN138_$LT$rvfm..command_list..CommandListBuilder$LT$rvfm..gpu..command..GpuCommands$GT$$u20$as$u20$rvfm..gpu..command..GpuCommandBuilderExt$GT$15present_texture17ha190153e06367842E>
f8000414:	42412503          	lw	a0,1060(sp)
f8000418:	0c050663          	beqz	a0,f80004e4 <main+0x430>
f800041c:	42812583          	lw	a1,1064(sp)
f8000420:	00300613          	li	a2,3
f8000424:	0eb67463          	bgeu	a2,a1,f800050c <main+0x458>
f8000428:	42c12603          	lw	a2,1068(sp)
f800042c:	43012683          	lw	a3,1072(sp)
f8000430:	ff860613          	add	a2,a2,-8
f8000434:	00c50023          	sb	a2,0(a0)
f8000438:	01865713          	srl	a4,a2,0x18
f800043c:	00e501a3          	sb	a4,3(a0)
f8000440:	01065713          	srl	a4,a2,0x10
f8000444:	00e50123          	sb	a4,2(a0)
f8000448:	00865613          	srl	a2,a2,0x8
f800044c:	00c500a3          	sb	a2,1(a0)
f8000450:	54d12a23          	sw	a3,1364(sp)
f8000454:	00c10613          	add	a2,sp,12
f8000458:	00001097          	auipc	ra,0x1
f800045c:	934080e7          	jalr	-1740(ra) # f8000d8c <_ZN4rvfm3gpu7command10gpu_submit17ha49ad47085e245dcE>
f8000460:	42a12223          	sw	a0,1060(sp)
f8000464:	f8002537          	lui	a0,0xf8002
f8000468:	33050593          	add	a1,a0,816 # f8002330 <.Lanon.fad58de7366495db4650cfefac2fcd61.16+0xc>
f800046c:	56310513          	add	a0,sp,1379
f8000470:	02000613          	li	a2,32
f8000474:	00001097          	auipc	ra,0x1
f8000478:	984080e7          	jalr	-1660(ra) # f8000df8 <_ZN61_$LT$rvfm..debug..DebugWriter$u20$as$u20$core..fmt..Write$GT$9write_str17h3c524b7a1274db75E>
f800047c:	00001097          	auipc	ra,0x1
f8000480:	96c080e7          	jalr	-1684(ra) # f8000de8 <_ZN4rvfm5debug5flush17hff671ab7ac35057aE>
f8000484:	42410513          	add	a0,sp,1060
f8000488:	00001097          	auipc	ra,0x1
f800048c:	950080e7          	jalr	-1712(ra) # f8000dd8 <_ZN4rvfm12command_list21CommandListCompletion4wait17hd09c98980bc821d3E>
f8000490:	f8002537          	lui	a0,0xf8002
f8000494:	35050593          	add	a1,a0,848 # f8002350 <.Lanon.fad58de7366495db4650cfefac2fcd61.18>
f8000498:	56310513          	add	a0,sp,1379
f800049c:	02100613          	li	a2,33
f80004a0:	00001097          	auipc	ra,0x1
f80004a4:	958080e7          	jalr	-1704(ra) # f8000df8 <_ZN61_$LT$rvfm..debug..DebugWriter$u20$as$u20$core..fmt..Write$GT$9write_str17h3c524b7a1274db75E>
f80004a8:	00001097          	auipc	ra,0x1
f80004ac:	940080e7          	jalr	-1728(ra) # f8000de8 <_ZN4rvfm5debug5flush17hff671ab7ac35057aE>
f80004b0:	55410513          	add	a0,sp,1364
f80004b4:	00001097          	auipc	ra,0x1
f80004b8:	924080e7          	jalr	-1756(ra) # f8000dd8 <_ZN4rvfm12command_list21CommandListCompletion4wait17hd09c98980bc821d3E>
f80004bc:	f8002537          	lui	a0,0xf8002
f80004c0:	37150593          	add	a1,a0,881 # f8002371 <.Lanon.fad58de7366495db4650cfefac2fcd61.19>
f80004c4:	56310513          	add	a0,sp,1379
f80004c8:	00900613          	li	a2,9
f80004cc:	00001097          	auipc	ra,0x1
f80004d0:	92c080e7          	jalr	-1748(ra) # f8000df8 <_ZN61_$LT$rvfm..debug..DebugWriter$u20$as$u20$core..fmt..Write$GT$9write_str17h3c524b7a1274db75E>
f80004d4:	00001097          	auipc	ra,0x1
f80004d8:	914080e7          	jalr	-1772(ra) # f8000de8 <_ZN4rvfm5debug5flush17hff671ab7ac35057aE>
f80004dc:	10500073          	wfi
f80004e0:	ffdff06f          	j	f80004dc <main+0x428>
f80004e4:	f8002537          	lui	a0,0xf8002
f80004e8:	38c50513          	add	a0,a0,908 # f800238c <.Lanon.fad58de7366495db4650cfefac2fcd61.21>
f80004ec:	f80025b7          	lui	a1,0xf8002
f80004f0:	37c58693          	add	a3,a1,892 # f800237c <.Lanon.fad58de7366495db4650cfefac2fcd61.20>
f80004f4:	f80025b7          	lui	a1,0xf8002
f80004f8:	3c458713          	add	a4,a1,964 # f80023c4 <.Lanon.fad58de7366495db4650cfefac2fcd61.23>
f80004fc:	02b00593          	li	a1,43
f8000500:	56310613          	add	a2,sp,1379
f8000504:	00001097          	auipc	ra,0x1
f8000508:	ad0080e7          	jalr	-1328(ra) # f8000fd4 <_ZN4core6result13unwrap_failed17h8626ef610c8da5b6E>
f800050c:	f8002537          	lui	a0,0xf8002
f8000510:	23450613          	add	a2,a0,564 # f8002234 <.Lanon.fad58de7366495db4650cfefac2fcd61.2>
f8000514:	00400513          	li	a0,4
f8000518:	00001097          	auipc	ra,0x1
f800051c:	470080e7          	jalr	1136(ra) # f8001988 <_ZN4core5slice5index24slice_end_index_len_fail17h62eef51decd7a014E>

f8000520 <_ZN44_$LT$$RF$T$u20$as$u20$core..fmt..Display$GT$3fmt17hb24afeb8ff693845E>:
f8000520:	00052603          	lw	a2,0(a0)
f8000524:	00452683          	lw	a3,4(a0)
f8000528:	00058713          	mv	a4,a1
f800052c:	00060513          	mv	a0,a2
f8000530:	00068593          	mv	a1,a3
f8000534:	00070613          	mv	a2,a4
f8000538:	00001317          	auipc	t1,0x1
f800053c:	41c30067          	jr	1052(t1) # f8001954 <_ZN42_$LT$str$u20$as$u20$core..fmt..Display$GT$3fmt17h340fe15002b13356E>

f8000540 <_ZN4core3fmt5Write10write_char17h33ff4c6966f26517E>:
f8000540:	ff010113          	add	sp,sp,-16
f8000544:	08000513          	li	a0,128
f8000548:	00012623          	sw	zero,12(sp)
f800054c:	00a5f863          	bgeu	a1,a0,f800055c <_ZN4core3fmt5Write10write_char17h33ff4c6966f26517E+0x1c>
f8000550:	00b10623          	sb	a1,12(sp)
f8000554:	00100513          	li	a0,1
f8000558:	0a40006f          	j	f80005fc <_ZN4core3fmt5Write10write_char17h33ff4c6966f26517E+0xbc>
f800055c:	00b5d513          	srl	a0,a1,0xb
f8000560:	02051263          	bnez	a0,f8000584 <_ZN4core3fmt5Write10write_char17h33ff4c6966f26517E+0x44>
f8000564:	0065d513          	srl	a0,a1,0x6
f8000568:	0c056513          	or	a0,a0,192
f800056c:	00a10623          	sb	a0,12(sp)
f8000570:	03f5f513          	and	a0,a1,63
f8000574:	08050513          	add	a0,a0,128
f8000578:	00a106a3          	sb	a0,13(sp)
f800057c:	00200513          	li	a0,2
f8000580:	07c0006f          	j	f80005fc <_ZN4core3fmt5Write10write_char17h33ff4c6966f26517E+0xbc>
f8000584:	0105d513          	srl	a0,a1,0x10
f8000588:	02051a63          	bnez	a0,f80005bc <_ZN4core3fmt5Write10write_char17h33ff4c6966f26517E+0x7c>
f800058c:	00c5d513          	srl	a0,a1,0xc
f8000590:	0e056513          	or	a0,a0,224
f8000594:	00a10623          	sb	a0,12(sp)
f8000598:	01459513          	sll	a0,a1,0x14
f800059c:	01a55513          	srl	a0,a0,0x1a
f80005a0:	08050513          	add	a0,a0,128
f80005a4:	00a106a3          	sb	a0,13(sp)
f80005a8:	03f5f513          	and	a0,a1,63
f80005ac:	08050513          	add	a0,a0,128
f80005b0:	00a10723          	sb	a0,14(sp)
f80005b4:	00300513          	li	a0,3
f80005b8:	0440006f          	j	f80005fc <_ZN4core3fmt5Write10write_char17h33ff4c6966f26517E+0xbc>
f80005bc:	00b59513          	sll	a0,a1,0xb
f80005c0:	01d55513          	srl	a0,a0,0x1d
f80005c4:	0f050513          	add	a0,a0,240
f80005c8:	00a10623          	sb	a0,12(sp)
f80005cc:	00e59513          	sll	a0,a1,0xe
f80005d0:	01a55513          	srl	a0,a0,0x1a
f80005d4:	08050513          	add	a0,a0,128
f80005d8:	00a106a3          	sb	a0,13(sp)
f80005dc:	01459513          	sll	a0,a1,0x14
f80005e0:	01a55513          	srl	a0,a0,0x1a
f80005e4:	08050513          	add	a0,a0,128
f80005e8:	00a10723          	sb	a0,14(sp)
f80005ec:	03f5f513          	and	a0,a1,63
f80005f0:	08050513          	add	a0,a0,128
f80005f4:	00a107a3          	sb	a0,15(sp)
f80005f8:	00400513          	li	a0,4
f80005fc:	800005b7          	lui	a1,0x80000
f8000600:	00a5a223          	sw	a0,4(a1) # 80000004 <__stack_ptr+0x78000004>
f8000604:	00c10513          	add	a0,sp,12
f8000608:	00a5a023          	sw	a0,0(a1)
f800060c:	00100513          	li	a0,1
f8000610:	00a5a623          	sw	a0,12(a1)
f8000614:	0085a503          	lw	a0,8(a1)
f8000618:	00a03533          	snez	a0,a0
f800061c:	01010113          	add	sp,sp,16
f8000620:	00008067          	ret

f8000624 <_ZN4core3fmt5Write9write_fmt17he71102018162ba79E>:
f8000624:	f8002637          	lui	a2,0xf8002
f8000628:	3d460613          	add	a2,a2,980 # f80023d4 <.Lanon.ed8adcc0edac9d2cca8975dbe52d9d3b.0>
f800062c:	00058693          	mv	a3,a1
f8000630:	00060593          	mv	a1,a2
f8000634:	00068613          	mv	a2,a3
f8000638:	00001317          	auipc	t1,0x1
f800063c:	a1830067          	jr	-1512(t1) # f8001050 <_ZN4core3fmt5write17ha460a03ff3f9d6efE>

f8000640 <_ZN138_$LT$rvfm..command_list..CommandListBuilder$LT$rvfm..gpu..command..GpuCommands$GT$$u20$as$u20$rvfm..gpu..command..GpuCommandBuilderExt$GT$13clear_texture17h470c97843352abd9E>:
f8000640:	00058793          	mv	a5,a1
f8000644:	0045a583          	lw	a1,4(a1)
f8000648:	0087a703          	lw	a4,8(a5)
f800064c:	40e58833          	sub	a6,a1,a4
f8000650:	00400893          	li	a7,4
f8000654:	0308fe63          	bgeu	a7,a6,f8000690 <_ZN138_$LT$rvfm..command_list..CommandListBuilder$LT$rvfm..gpu..command..GpuCommands$GT$$u20$as$u20$rvfm..gpu..command..GpuCommandBuilderExt$GT$13clear_texture17h470c97843352abd9E+0x50>
f8000658:	ffb00893          	li	a7,-5
f800065c:	00470813          	add	a6,a4,4
f8000660:	02e8ec63          	bltu	a7,a4,f8000698 <_ZN138_$LT$rvfm..command_list..CommandListBuilder$LT$rvfm..gpu..command..GpuCommands$GT$$u20$as$u20$rvfm..gpu..command..GpuCommandBuilderExt$GT$13clear_texture17h470c97843352abd9E+0x58>
f8000664:	0505e663          	bltu	a1,a6,f80006b0 <_ZN138_$LT$rvfm..command_list..CommandListBuilder$LT$rvfm..gpu..command..GpuCommands$GT$$u20$as$u20$rvfm..gpu..command..GpuCommandBuilderExt$GT$13clear_texture17h470c97843352abd9E+0x70>
f8000668:	0007a783          	lw	a5,0(a5)
f800066c:	00e78733          	add	a4,a5,a4
f8000670:	00070023          	sb	zero,0(a4)
f8000674:	000700a3          	sb	zero,1(a4)
f8000678:	00c70123          	sb	a2,2(a4)
f800067c:	00d701a3          	sb	a3,3(a4)
f8000680:	00f52023          	sw	a5,0(a0)
f8000684:	00b52223          	sw	a1,4(a0)
f8000688:	01052423          	sw	a6,8(a0)
f800068c:	00008067          	ret
f8000690:	00052023          	sw	zero,0(a0)
f8000694:	00008067          	ret
f8000698:	f8002537          	lui	a0,0xf8002
f800069c:	4c850613          	add	a2,a0,1224 # f80024c8 <.Lanon.ed8adcc0edac9d2cca8975dbe52d9d3b.7>
f80006a0:	00070513          	mv	a0,a4
f80006a4:	00080593          	mv	a1,a6
f80006a8:	00001097          	auipc	ra,0x1
f80006ac:	34c080e7          	jalr	844(ra) # f80019f4 <_ZN4core5slice5index22slice_index_order_fail17hea267c10579e6abbE>
f80006b0:	f8002537          	lui	a0,0xf8002
f80006b4:	4c850613          	add	a2,a0,1224 # f80024c8 <.Lanon.ed8adcc0edac9d2cca8975dbe52d9d3b.7>
f80006b8:	00080513          	mv	a0,a6
f80006bc:	00001097          	auipc	ra,0x1
f80006c0:	2cc080e7          	jalr	716(ra) # f8001988 <_ZN4core5slice5index24slice_end_index_len_fail17h62eef51decd7a014E>

f80006c4 <_ZN138_$LT$rvfm..command_list..CommandListBuilder$LT$rvfm..gpu..command..GpuCommands$GT$$u20$as$u20$rvfm..gpu..command..GpuCommandBuilderExt$GT$15present_texture17ha190153e06367842E>:
f80006c4:	00058893          	mv	a7,a1
f80006c8:	0045a583          	lw	a1,4(a1)
f80006cc:	0088a783          	lw	a5,8(a7)
f80006d0:	40f58833          	sub	a6,a1,a5
f80006d4:	00900293          	li	t0,9
f80006d8:	06586063          	bltu	a6,t0,f8000738 <_ZN138_$LT$rvfm..command_list..CommandListBuilder$LT$rvfm..gpu..command..GpuCommands$GT$$u20$as$u20$rvfm..gpu..command..GpuCommandBuilderExt$GT$15present_texture17ha190153e06367842E+0x74>
f80006dc:	ff700293          	li	t0,-9
f80006e0:	00878813          	add	a6,a5,8
f80006e4:	04f2ee63          	bltu	t0,a5,f8000740 <_ZN138_$LT$rvfm..command_list..CommandListBuilder$LT$rvfm..gpu..command..GpuCommands$GT$$u20$as$u20$rvfm..gpu..command..GpuCommandBuilderExt$GT$15present_texture17ha190153e06367842E+0x7c>
f80006e8:	0705e863          	bltu	a1,a6,f8000758 <_ZN138_$LT$rvfm..command_list..CommandListBuilder$LT$rvfm..gpu..command..GpuCommands$GT$$u20$as$u20$rvfm..gpu..command..GpuCommandBuilderExt$GT$15present_texture17ha190153e06367842E+0x94>
f80006ec:	0008a883          	lw	a7,0(a7)
f80006f0:	0086d293          	srl	t0,a3,0x8
f80006f4:	0106d313          	srl	t1,a3,0x10
f80006f8:	0186d393          	srl	t2,a3,0x18
f80006fc:	00f887b3          	add	a5,a7,a5
f8000700:	00100e13          	li	t3,1
f8000704:	01c78023          	sb	t3,0(a5)
f8000708:	000780a3          	sb	zero,1(a5)
f800070c:	00c78123          	sb	a2,2(a5)
f8000710:	00e781a3          	sb	a4,3(a5)
f8000714:	00d78223          	sb	a3,4(a5)
f8000718:	005782a3          	sb	t0,5(a5)
f800071c:	00678323          	sb	t1,6(a5)
f8000720:	007783a3          	sb	t2,7(a5)
f8000724:	01152023          	sw	a7,0(a0)
f8000728:	00b52223          	sw	a1,4(a0)
f800072c:	01052423          	sw	a6,8(a0)
f8000730:	00d52623          	sw	a3,12(a0)
f8000734:	00008067          	ret
f8000738:	00052023          	sw	zero,0(a0)
f800073c:	00008067          	ret
f8000740:	f8002537          	lui	a0,0xf8002
f8000744:	4c850613          	add	a2,a0,1224 # f80024c8 <.Lanon.ed8adcc0edac9d2cca8975dbe52d9d3b.7>
f8000748:	00078513          	mv	a0,a5
f800074c:	00080593          	mv	a1,a6
f8000750:	00001097          	auipc	ra,0x1
f8000754:	2a4080e7          	jalr	676(ra) # f80019f4 <_ZN4core5slice5index22slice_index_order_fail17hea267c10579e6abbE>
f8000758:	f8002537          	lui	a0,0xf8002
f800075c:	4c850613          	add	a2,a0,1224 # f80024c8 <.Lanon.ed8adcc0edac9d2cca8975dbe52d9d3b.7>
f8000760:	00080513          	mv	a0,a6
f8000764:	00001097          	auipc	ra,0x1
f8000768:	224080e7          	jalr	548(ra) # f8001988 <_ZN4core5slice5index24slice_end_index_len_fail17h62eef51decd7a014E>

f800076c <_ZN138_$LT$rvfm..command_list..CommandListBuilder$LT$rvfm..gpu..command..GpuCommands$GT$$u20$as$u20$rvfm..gpu..command..GpuCommandBuilderExt$GT$27set_constant_sampler_unorm817h6589fbe79c81f007E>:
f800076c:	fe010113          	add	sp,sp,-32
f8000770:	00112e23          	sw	ra,28(sp)
f8000774:	00812c23          	sw	s0,24(sp)
f8000778:	00912a23          	sw	s1,20(sp)
f800077c:	01212823          	sw	s2,16(sp)
f8000780:	01312623          	sw	s3,12(sp)
f8000784:	0045a403          	lw	s0,4(a1)
f8000788:	0085a703          	lw	a4,8(a1)
f800078c:	40e407b3          	sub	a5,s0,a4
f8000790:	01400813          	li	a6,20
f8000794:	00050913          	mv	s2,a0
f8000798:	06f87a63          	bgeu	a6,a5,f800080c <_ZN138_$LT$rvfm..command_list..CommandListBuilder$LT$rvfm..gpu..command..GpuCommands$GT$$u20$as$u20$rvfm..gpu..command..GpuCommandBuilderExt$GT$27set_constant_sampler_unorm817h6589fbe79c81f007E+0xa0>
f800079c:	feb00513          	li	a0,-21
f80007a0:	01470493          	add	s1,a4,20
f80007a4:	08e56463          	bltu	a0,a4,f800082c <_ZN138_$LT$rvfm..command_list..CommandListBuilder$LT$rvfm..gpu..command..GpuCommands$GT$$u20$as$u20$rvfm..gpu..command..GpuCommandBuilderExt$GT$27set_constant_sampler_unorm817h6589fbe79c81f007E+0xc0>
f80007a8:	08946e63          	bltu	s0,s1,f8000844 <_ZN138_$LT$rvfm..command_list..CommandListBuilder$LT$rvfm..gpu..command..GpuCommands$GT$$u20$as$u20$rvfm..gpu..command..GpuCommandBuilderExt$GT$27set_constant_sampler_unorm817h6589fbe79c81f007E+0xd8>
f80007ac:	0005a983          	lw	s3,0(a1)
f80007b0:	0086d513          	srl	a0,a3,0x8
f80007b4:	0106d593          	srl	a1,a3,0x10
f80007b8:	0186d793          	srl	a5,a3,0x18
f80007bc:	00e98733          	add	a4,s3,a4
f80007c0:	00200813          	li	a6,2
f80007c4:	01070023          	sb	a6,0(a4)
f80007c8:	000700a3          	sb	zero,1(a4)
f80007cc:	00c70123          	sb	a2,2(a4)
f80007d0:	00300613          	li	a2,3
f80007d4:	00c701a3          	sb	a2,3(a4)
f80007d8:	00d70223          	sb	a3,4(a4)
f80007dc:	00a702a3          	sb	a0,5(a4)
f80007e0:	00b70323          	sb	a1,6(a4)
f80007e4:	00f703a3          	sb	a5,7(a4)
f80007e8:	00870513          	add	a0,a4,8
f80007ec:	00c00613          	li	a2,12
f80007f0:	00000593          	li	a1,0
f80007f4:	00002097          	auipc	ra,0x2
f80007f8:	8f8080e7          	jalr	-1800(ra) # f80020ec <memset>
f80007fc:	01392023          	sw	s3,0(s2)
f8000800:	00892223          	sw	s0,4(s2)
f8000804:	00992423          	sw	s1,8(s2)
f8000808:	0080006f          	j	f8000810 <_ZN138_$LT$rvfm..command_list..CommandListBuilder$LT$rvfm..gpu..command..GpuCommands$GT$$u20$as$u20$rvfm..gpu..command..GpuCommandBuilderExt$GT$27set_constant_sampler_unorm817h6589fbe79c81f007E+0xa4>
f800080c:	00092023          	sw	zero,0(s2)
f8000810:	01c12083          	lw	ra,28(sp)
f8000814:	01812403          	lw	s0,24(sp)
f8000818:	01412483          	lw	s1,20(sp)
f800081c:	01012903          	lw	s2,16(sp)
f8000820:	00c12983          	lw	s3,12(sp)
f8000824:	02010113          	add	sp,sp,32
f8000828:	00008067          	ret
f800082c:	f8002537          	lui	a0,0xf8002
f8000830:	4c850613          	add	a2,a0,1224 # f80024c8 <.Lanon.ed8adcc0edac9d2cca8975dbe52d9d3b.7>
f8000834:	00070513          	mv	a0,a4
f8000838:	00048593          	mv	a1,s1
f800083c:	00001097          	auipc	ra,0x1
f8000840:	1b8080e7          	jalr	440(ra) # f80019f4 <_ZN4core5slice5index22slice_index_order_fail17hea267c10579e6abbE>
f8000844:	f8002537          	lui	a0,0xf8002
f8000848:	4c850613          	add	a2,a0,1224 # f80024c8 <.Lanon.ed8adcc0edac9d2cca8975dbe52d9d3b.7>
f800084c:	00048513          	mv	a0,s1
f8000850:	00040593          	mv	a1,s0
f8000854:	00001097          	auipc	ra,0x1
f8000858:	134080e7          	jalr	308(ra) # f8001988 <_ZN4core5slice5index24slice_end_index_len_fail17h62eef51decd7a014E>

f800085c <_ZN138_$LT$rvfm..command_list..CommandListBuilder$LT$rvfm..gpu..command..GpuCommands$GT$$u20$as$u20$rvfm..gpu..command..GpuCommandBuilderExt$GT$14set_video_mode17h1188299069452b22E>:
f800085c:	00058893          	mv	a7,a1
f8000860:	0045a583          	lw	a1,4(a1)
f8000864:	0088a803          	lw	a6,8(a7)
f8000868:	410582b3          	sub	t0,a1,a6
f800086c:	00400313          	li	t1,4
f8000870:	04537c63          	bgeu	t1,t0,f80008c8 <_ZN138_$LT$rvfm..command_list..CommandListBuilder$LT$rvfm..gpu..command..GpuCommands$GT$$u20$as$u20$rvfm..gpu..command..GpuCommandBuilderExt$GT$14set_video_mode17h1188299069452b22E+0x6c>
f8000874:	ffb00313          	li	t1,-5
f8000878:	00480293          	add	t0,a6,4
f800087c:	05036a63          	bltu	t1,a6,f80008d0 <_ZN138_$LT$rvfm..command_list..CommandListBuilder$LT$rvfm..gpu..command..GpuCommands$GT$$u20$as$u20$rvfm..gpu..command..GpuCommandBuilderExt$GT$14set_video_mode17h1188299069452b22E+0x74>
f8000880:	0655e463          	bltu	a1,t0,f80008e8 <_ZN138_$LT$rvfm..command_list..CommandListBuilder$LT$rvfm..gpu..command..GpuCommands$GT$$u20$as$u20$rvfm..gpu..command..GpuCommandBuilderExt$GT$14set_video_mode17h1188299069452b22E+0x8c>
f8000884:	00169693          	sll	a3,a3,0x1
f8000888:	00271713          	sll	a4,a4,0x2
f800088c:	00379793          	sll	a5,a5,0x3
f8000890:	0008a883          	lw	a7,0(a7)
f8000894:	00c6e633          	or	a2,a3,a2
f8000898:	00f76733          	or	a4,a4,a5
f800089c:	00e66633          	or	a2,a2,a4
f80008a0:	01088833          	add	a6,a7,a6
f80008a4:	00300693          	li	a3,3
f80008a8:	00d80023          	sb	a3,0(a6)
f80008ac:	000800a3          	sb	zero,1(a6)
f80008b0:	00080123          	sb	zero,2(a6)
f80008b4:	00c801a3          	sb	a2,3(a6)
f80008b8:	01152023          	sw	a7,0(a0)
f80008bc:	00b52223          	sw	a1,4(a0)
f80008c0:	00552423          	sw	t0,8(a0)
f80008c4:	00008067          	ret
f80008c8:	00052023          	sw	zero,0(a0)
f80008cc:	00008067          	ret
f80008d0:	f8002537          	lui	a0,0xf8002
f80008d4:	4c850613          	add	a2,a0,1224 # f80024c8 <.Lanon.ed8adcc0edac9d2cca8975dbe52d9d3b.7>
f80008d8:	00080513          	mv	a0,a6
f80008dc:	00028593          	mv	a1,t0
f80008e0:	00001097          	auipc	ra,0x1
f80008e4:	114080e7          	jalr	276(ra) # f80019f4 <_ZN4core5slice5index22slice_index_order_fail17hea267c10579e6abbE>
f80008e8:	f8002537          	lui	a0,0xf8002
f80008ec:	4c850613          	add	a2,a0,1224 # f80024c8 <.Lanon.ed8adcc0edac9d2cca8975dbe52d9d3b.7>
f80008f0:	00028513          	mv	a0,t0
f80008f4:	00001097          	auipc	ra,0x1
f80008f8:	094080e7          	jalr	148(ra) # f8001988 <_ZN4core5slice5index24slice_end_index_len_fail17h62eef51decd7a014E>

f80008fc <_ZN138_$LT$rvfm..command_list..CommandListBuilder$LT$rvfm..gpu..command..GpuCommands$GT$$u20$as$u20$rvfm..gpu..command..GpuCommandBuilderExt$GT$17configure_texture17hf217f5bcca2dd3cbE>:
f80008fc:	00058793          	mv	a5,a1
f8000900:	0045a583          	lw	a1,4(a1)
f8000904:	0087a703          	lw	a4,8(a5)
f8000908:	40e58833          	sub	a6,a1,a4
f800090c:	00c00893          	li	a7,12
f8000910:	0708fc63          	bgeu	a7,a6,f8000988 <_ZN138_$LT$rvfm..command_list..CommandListBuilder$LT$rvfm..gpu..command..GpuCommands$GT$$u20$as$u20$rvfm..gpu..command..GpuCommandBuilderExt$GT$17configure_texture17hf217f5bcca2dd3cbE+0x8c>
f8000914:	ff300893          	li	a7,-13
f8000918:	00c70813          	add	a6,a4,12
f800091c:	06e8ea63          	bltu	a7,a4,f8000990 <_ZN138_$LT$rvfm..command_list..CommandListBuilder$LT$rvfm..gpu..command..GpuCommands$GT$$u20$as$u20$rvfm..gpu..command..GpuCommandBuilderExt$GT$17configure_texture17hf217f5bcca2dd3cbE+0x94>
f8000920:	0905e463          	bltu	a1,a6,f80009a8 <_ZN138_$LT$rvfm..command_list..CommandListBuilder$LT$rvfm..gpu..command..GpuCommands$GT$$u20$as$u20$rvfm..gpu..command..GpuCommandBuilderExt$GT$17configure_texture17hf217f5bcca2dd3cbE+0xac>
f8000924:	0006d883          	lhu	a7,0(a3) # ff000000 <_etext+0x6ffd9b4>
f8000928:	0026d283          	lhu	t0,2(a3)
f800092c:	0088d313          	srl	t1,a7,0x8
f8000930:	0007a783          	lw	a5,0(a5)
f8000934:	0082d393          	srl	t2,t0,0x8
f8000938:	0046ce03          	lbu	t3,4(a3)
f800093c:	0056c683          	lbu	a3,5(a3)
f8000940:	00e78733          	add	a4,a5,a4
f8000944:	00500e93          	li	t4,5
f8000948:	01d70023          	sb	t4,0(a4)
f800094c:	000700a3          	sb	zero,1(a4)
f8000950:	01170123          	sb	a7,2(a4)
f8000954:	006701a3          	sb	t1,3(a4)
f8000958:	00570223          	sb	t0,4(a4)
f800095c:	007702a3          	sb	t2,5(a4)
f8000960:	00c70323          	sb	a2,6(a4)
f8000964:	01c703a3          	sb	t3,7(a4)
f8000968:	00d70423          	sb	a3,8(a4)
f800096c:	000704a3          	sb	zero,9(a4)
f8000970:	00070523          	sb	zero,10(a4)
f8000974:	000705a3          	sb	zero,11(a4)
f8000978:	00f52023          	sw	a5,0(a0)
f800097c:	00b52223          	sw	a1,4(a0)
f8000980:	01052423          	sw	a6,8(a0)
f8000984:	00008067          	ret
f8000988:	00052023          	sw	zero,0(a0)
f800098c:	00008067          	ret
f8000990:	f8002537          	lui	a0,0xf8002
f8000994:	4c850613          	add	a2,a0,1224 # f80024c8 <.Lanon.ed8adcc0edac9d2cca8975dbe52d9d3b.7>
f8000998:	00070513          	mv	a0,a4
f800099c:	00080593          	mv	a1,a6
f80009a0:	00001097          	auipc	ra,0x1
f80009a4:	054080e7          	jalr	84(ra) # f80019f4 <_ZN4core5slice5index22slice_index_order_fail17hea267c10579e6abbE>
f80009a8:	f8002537          	lui	a0,0xf8002
f80009ac:	4c850613          	add	a2,a0,1224 # f80024c8 <.Lanon.ed8adcc0edac9d2cca8975dbe52d9d3b.7>
f80009b0:	00080513          	mv	a0,a6
f80009b4:	00001097          	auipc	ra,0x1
f80009b8:	fd4080e7          	jalr	-44(ra) # f8001988 <_ZN4core5slice5index24slice_end_index_len_fail17h62eef51decd7a014E>

f80009bc <_ZN138_$LT$rvfm..command_list..CommandListBuilder$LT$rvfm..gpu..command..GpuCommands$GT$$u20$as$u20$rvfm..gpu..command..GpuCommandBuilderExt$GT$16configure_buffer17h58c49b2c25dea266E>:
f80009bc:	00058813          	mv	a6,a1
f80009c0:	0045a583          	lw	a1,4(a1)
f80009c4:	00882703          	lw	a4,8(a6)
f80009c8:	40e587b3          	sub	a5,a1,a4
f80009cc:	00800893          	li	a7,8
f80009d0:	04f8fe63          	bgeu	a7,a5,f8000a2c <_ZN138_$LT$rvfm..command_list..CommandListBuilder$LT$rvfm..gpu..command..GpuCommands$GT$$u20$as$u20$rvfm..gpu..command..GpuCommandBuilderExt$GT$16configure_buffer17h58c49b2c25dea266E+0x70>
f80009d4:	ff700893          	li	a7,-9
f80009d8:	00870793          	add	a5,a4,8
f80009dc:	04e8ec63          	bltu	a7,a4,f8000a34 <_ZN138_$LT$rvfm..command_list..CommandListBuilder$LT$rvfm..gpu..command..GpuCommands$GT$$u20$as$u20$rvfm..gpu..command..GpuCommandBuilderExt$GT$16configure_buffer17h58c49b2c25dea266E+0x78>
f80009e0:	06f5e663          	bltu	a1,a5,f8000a4c <_ZN138_$LT$rvfm..command_list..CommandListBuilder$LT$rvfm..gpu..command..GpuCommands$GT$$u20$as$u20$rvfm..gpu..command..GpuCommandBuilderExt$GT$16configure_buffer17h58c49b2c25dea266E+0x90>
f80009e4:	00082803          	lw	a6,0(a6)
f80009e8:	0086d893          	srl	a7,a3,0x8
f80009ec:	0106d293          	srl	t0,a3,0x10
f80009f0:	0186d313          	srl	t1,a3,0x18
f80009f4:	00e80733          	add	a4,a6,a4
f80009f8:	00700393          	li	t2,7
f80009fc:	00770023          	sb	t2,0(a4)
f8000a00:	000700a3          	sb	zero,1(a4)
f8000a04:	00070123          	sb	zero,2(a4)
f8000a08:	00c701a3          	sb	a2,3(a4)
f8000a0c:	00d70223          	sb	a3,4(a4)
f8000a10:	011702a3          	sb	a7,5(a4)
f8000a14:	00570323          	sb	t0,6(a4)
f8000a18:	006703a3          	sb	t1,7(a4)
f8000a1c:	01052023          	sw	a6,0(a0)
f8000a20:	00b52223          	sw	a1,4(a0)
f8000a24:	00f52423          	sw	a5,8(a0)
f8000a28:	00008067          	ret
f8000a2c:	00052023          	sw	zero,0(a0)
f8000a30:	00008067          	ret
f8000a34:	f8002537          	lui	a0,0xf8002
f8000a38:	4c850613          	add	a2,a0,1224 # f80024c8 <.Lanon.ed8adcc0edac9d2cca8975dbe52d9d3b.7>
f8000a3c:	00070513          	mv	a0,a4
f8000a40:	00078593          	mv	a1,a5
f8000a44:	00001097          	auipc	ra,0x1
f8000a48:	fb0080e7          	jalr	-80(ra) # f80019f4 <_ZN4core5slice5index22slice_index_order_fail17hea267c10579e6abbE>
f8000a4c:	f8002537          	lui	a0,0xf8002
f8000a50:	4c850613          	add	a2,a0,1224 # f80024c8 <.Lanon.ed8adcc0edac9d2cca8975dbe52d9d3b.7>
f8000a54:	00078513          	mv	a0,a5
f8000a58:	00001097          	auipc	ra,0x1
f8000a5c:	f30080e7          	jalr	-208(ra) # f8001988 <_ZN4core5slice5index24slice_end_index_len_fail17h62eef51decd7a014E>

f8000a60 <_ZN138_$LT$rvfm..command_list..CommandListBuilder$LT$rvfm..gpu..command..GpuCommands$GT$$u20$as$u20$rvfm..gpu..command..GpuCommandBuilderExt$GT$13upload_buffer17h500714608189438cE>:
f8000a60:	00058813          	mv	a6,a1
f8000a64:	0045a583          	lw	a1,4(a1)
f8000a68:	00882703          	lw	a4,8(a6)
f8000a6c:	40e587b3          	sub	a5,a1,a4
f8000a70:	00800893          	li	a7,8
f8000a74:	04f8fe63          	bgeu	a7,a5,f8000ad0 <_ZN138_$LT$rvfm..command_list..CommandListBuilder$LT$rvfm..gpu..command..GpuCommands$GT$$u20$as$u20$rvfm..gpu..command..GpuCommandBuilderExt$GT$13upload_buffer17h500714608189438cE+0x70>
f8000a78:	ff700893          	li	a7,-9
f8000a7c:	00870793          	add	a5,a4,8
f8000a80:	04e8ec63          	bltu	a7,a4,f8000ad8 <_ZN138_$LT$rvfm..command_list..CommandListBuilder$LT$rvfm..gpu..command..GpuCommands$GT$$u20$as$u20$rvfm..gpu..command..GpuCommandBuilderExt$GT$13upload_buffer17h500714608189438cE+0x78>
f8000a84:	06f5e663          	bltu	a1,a5,f8000af0 <_ZN138_$LT$rvfm..command_list..CommandListBuilder$LT$rvfm..gpu..command..GpuCommands$GT$$u20$as$u20$rvfm..gpu..command..GpuCommandBuilderExt$GT$13upload_buffer17h500714608189438cE+0x90>
f8000a88:	00082803          	lw	a6,0(a6)
f8000a8c:	0086d893          	srl	a7,a3,0x8
f8000a90:	0106d293          	srl	t0,a3,0x10
f8000a94:	0186d313          	srl	t1,a3,0x18
f8000a98:	00e80733          	add	a4,a6,a4
f8000a9c:	00800393          	li	t2,8
f8000aa0:	00770023          	sb	t2,0(a4)
f8000aa4:	000700a3          	sb	zero,1(a4)
f8000aa8:	00070123          	sb	zero,2(a4)
f8000aac:	00c701a3          	sb	a2,3(a4)
f8000ab0:	00d70223          	sb	a3,4(a4)
f8000ab4:	011702a3          	sb	a7,5(a4)
f8000ab8:	00570323          	sb	t0,6(a4)
f8000abc:	006703a3          	sb	t1,7(a4)
f8000ac0:	01052023          	sw	a6,0(a0)
f8000ac4:	00b52223          	sw	a1,4(a0)
f8000ac8:	00f52423          	sw	a5,8(a0)
f8000acc:	00008067          	ret
f8000ad0:	00052023          	sw	zero,0(a0)
f8000ad4:	00008067          	ret
f8000ad8:	f8002537          	lui	a0,0xf8002
f8000adc:	4c850613          	add	a2,a0,1224 # f80024c8 <.Lanon.ed8adcc0edac9d2cca8975dbe52d9d3b.7>
f8000ae0:	00070513          	mv	a0,a4
f8000ae4:	00078593          	mv	a1,a5
f8000ae8:	00001097          	auipc	ra,0x1
f8000aec:	f0c080e7          	jalr	-244(ra) # f80019f4 <_ZN4core5slice5index22slice_index_order_fail17hea267c10579e6abbE>
f8000af0:	f8002537          	lui	a0,0xf8002
f8000af4:	4c850613          	add	a2,a0,1224 # f80024c8 <.Lanon.ed8adcc0edac9d2cca8975dbe52d9d3b.7>
f8000af8:	00078513          	mv	a0,a5
f8000afc:	00001097          	auipc	ra,0x1
f8000b00:	e8c080e7          	jalr	-372(ra) # f8001988 <_ZN4core5slice5index24slice_end_index_len_fail17h62eef51decd7a014E>

f8000b04 <_ZN138_$LT$rvfm..command_list..CommandListBuilder$LT$rvfm..gpu..command..GpuCommands$GT$$u20$as$u20$rvfm..gpu..command..GpuCommandBuilderExt$GT$13upload_shader17h60b4a67fad9a5125E>:
f8000b04:	00058293          	mv	t0,a1
f8000b08:	0045a583          	lw	a1,4(a1)
f8000b0c:	0082a803          	lw	a6,8(t0)
f8000b10:	410588b3          	sub	a7,a1,a6
f8000b14:	00c00313          	li	t1,12
f8000b18:	07137863          	bgeu	t1,a7,f8000b88 <_ZN138_$LT$rvfm..command_list..CommandListBuilder$LT$rvfm..gpu..command..GpuCommands$GT$$u20$as$u20$rvfm..gpu..command..GpuCommandBuilderExt$GT$13upload_shader17h60b4a67fad9a5125E+0x84>
f8000b1c:	ff300313          	li	t1,-13
f8000b20:	00c80893          	add	a7,a6,12
f8000b24:	07036663          	bltu	t1,a6,f8000b90 <_ZN138_$LT$rvfm..command_list..CommandListBuilder$LT$rvfm..gpu..command..GpuCommands$GT$$u20$as$u20$rvfm..gpu..command..GpuCommandBuilderExt$GT$13upload_shader17h60b4a67fad9a5125E+0x8c>
f8000b28:	0915e063          	bltu	a1,a7,f8000ba8 <_ZN138_$LT$rvfm..command_list..CommandListBuilder$LT$rvfm..gpu..command..GpuCommands$GT$$u20$as$u20$rvfm..gpu..command..GpuCommandBuilderExt$GT$13upload_shader17h60b4a67fad9a5125E+0xa4>
f8000b2c:	0087d313          	srl	t1,a5,0x8
f8000b30:	0002a283          	lw	t0,0(t0)
f8000b34:	00875393          	srl	t2,a4,0x8
f8000b38:	01075e13          	srl	t3,a4,0x10
f8000b3c:	01875e93          	srl	t4,a4,0x18
f8000b40:	01028833          	add	a6,t0,a6
f8000b44:	00c00f13          	li	t5,12
f8000b48:	01e80023          	sb	t5,0(a6)
f8000b4c:	000800a3          	sb	zero,1(a6)
f8000b50:	00f80123          	sb	a5,2(a6)
f8000b54:	006801a3          	sb	t1,3(a6)
f8000b58:	00e80223          	sb	a4,4(a6)
f8000b5c:	007802a3          	sb	t2,5(a6)
f8000b60:	01c80323          	sb	t3,6(a6)
f8000b64:	01d803a3          	sb	t4,7(a6)
f8000b68:	00080423          	sb	zero,8(a6)
f8000b6c:	000804a3          	sb	zero,9(a6)
f8000b70:	00c80523          	sb	a2,10(a6)
f8000b74:	00d805a3          	sb	a3,11(a6)
f8000b78:	00552023          	sw	t0,0(a0)
f8000b7c:	00b52223          	sw	a1,4(a0)
f8000b80:	01152423          	sw	a7,8(a0)
f8000b84:	00008067          	ret
f8000b88:	00052023          	sw	zero,0(a0)
f8000b8c:	00008067          	ret
f8000b90:	f8002537          	lui	a0,0xf8002
f8000b94:	4c850613          	add	a2,a0,1224 # f80024c8 <.Lanon.ed8adcc0edac9d2cca8975dbe52d9d3b.7>
f8000b98:	00080513          	mv	a0,a6
f8000b9c:	00088593          	mv	a1,a7
f8000ba0:	00001097          	auipc	ra,0x1
f8000ba4:	e54080e7          	jalr	-428(ra) # f80019f4 <_ZN4core5slice5index22slice_index_order_fail17hea267c10579e6abbE>
f8000ba8:	f8002537          	lui	a0,0xf8002
f8000bac:	4c850613          	add	a2,a0,1224 # f80024c8 <.Lanon.ed8adcc0edac9d2cca8975dbe52d9d3b.7>
f8000bb0:	00088513          	mv	a0,a7
f8000bb4:	00001097          	auipc	ra,0x1
f8000bb8:	dd4080e7          	jalr	-556(ra) # f8001988 <_ZN4core5slice5index24slice_end_index_len_fail17h62eef51decd7a014E>

f8000bbc <_ZN138_$LT$rvfm..command_list..CommandListBuilder$LT$rvfm..gpu..command..GpuCommands$GT$$u20$as$u20$rvfm..gpu..command..GpuCommandBuilderExt$GT$30upload_graphics_pipeline_state17h37b9e28ad3f0a3b4E>:
f8000bbc:	00058813          	mv	a6,a1
f8000bc0:	0045a583          	lw	a1,4(a1)
f8000bc4:	00882703          	lw	a4,8(a6)
f8000bc8:	40e587b3          	sub	a5,a1,a4
f8000bcc:	00800893          	li	a7,8
f8000bd0:	04f8fe63          	bgeu	a7,a5,f8000c2c <_ZN138_$LT$rvfm..command_list..CommandListBuilder$LT$rvfm..gpu..command..GpuCommands$GT$$u20$as$u20$rvfm..gpu..command..GpuCommandBuilderExt$GT$30upload_graphics_pipeline_state17h37b9e28ad3f0a3b4E+0x70>
f8000bd4:	ff700893          	li	a7,-9
f8000bd8:	00870793          	add	a5,a4,8
f8000bdc:	04e8ec63          	bltu	a7,a4,f8000c34 <_ZN138_$LT$rvfm..command_list..CommandListBuilder$LT$rvfm..gpu..command..GpuCommands$GT$$u20$as$u20$rvfm..gpu..command..GpuCommandBuilderExt$GT$30upload_graphics_pipeline_state17h37b9e28ad3f0a3b4E+0x78>
f8000be0:	06f5e663          	bltu	a1,a5,f8000c4c <_ZN138_$LT$rvfm..command_list..CommandListBuilder$LT$rvfm..gpu..command..GpuCommands$GT$$u20$as$u20$rvfm..gpu..command..GpuCommandBuilderExt$GT$30upload_graphics_pipeline_state17h37b9e28ad3f0a3b4E+0x90>
f8000be4:	00082803          	lw	a6,0(a6)
f8000be8:	0086d893          	srl	a7,a3,0x8
f8000bec:	0106d293          	srl	t0,a3,0x10
f8000bf0:	0186d313          	srl	t1,a3,0x18
f8000bf4:	00e80733          	add	a4,a6,a4
f8000bf8:	00d00393          	li	t2,13
f8000bfc:	00770023          	sb	t2,0(a4)
f8000c00:	000700a3          	sb	zero,1(a4)
f8000c04:	00c70123          	sb	a2,2(a4)
f8000c08:	000701a3          	sb	zero,3(a4)
f8000c0c:	00d70223          	sb	a3,4(a4)
f8000c10:	011702a3          	sb	a7,5(a4)
f8000c14:	00570323          	sb	t0,6(a4)
f8000c18:	006703a3          	sb	t1,7(a4)
f8000c1c:	01052023          	sw	a6,0(a0)
f8000c20:	00b52223          	sw	a1,4(a0)
f8000c24:	00f52423          	sw	a5,8(a0)
f8000c28:	00008067          	ret
f8000c2c:	00052023          	sw	zero,0(a0)
f8000c30:	00008067          	ret
f8000c34:	f8002537          	lui	a0,0xf8002
f8000c38:	4c850613          	add	a2,a0,1224 # f80024c8 <.Lanon.ed8adcc0edac9d2cca8975dbe52d9d3b.7>
f8000c3c:	00070513          	mv	a0,a4
f8000c40:	00078593          	mv	a1,a5
f8000c44:	00001097          	auipc	ra,0x1
f8000c48:	db0080e7          	jalr	-592(ra) # f80019f4 <_ZN4core5slice5index22slice_index_order_fail17hea267c10579e6abbE>
f8000c4c:	f8002537          	lui	a0,0xf8002
f8000c50:	4c850613          	add	a2,a0,1224 # f80024c8 <.Lanon.ed8adcc0edac9d2cca8975dbe52d9d3b.7>
f8000c54:	00078513          	mv	a0,a5
f8000c58:	00001097          	auipc	ra,0x1
f8000c5c:	d30080e7          	jalr	-720(ra) # f8001988 <_ZN4core5slice5index24slice_end_index_len_fail17h62eef51decd7a014E>

f8000c60 <_ZN138_$LT$rvfm..command_list..CommandListBuilder$LT$rvfm..gpu..command..GpuCommands$GT$$u20$as$u20$rvfm..gpu..command..GpuCommandBuilderExt$GT$22draw_graphics_pipeline17hcb1b57f7dac4c82fE>:
f8000c60:	fe010113          	add	sp,sp,-32
f8000c64:	00812e23          	sw	s0,28(sp)
f8000c68:	00912c23          	sw	s1,24(sp)
f8000c6c:	01212a23          	sw	s2,20(sp)
f8000c70:	01312823          	sw	s3,16(sp)
f8000c74:	01412623          	sw	s4,12(sp)
f8000c78:	01512423          	sw	s5,8(sp)
f8000c7c:	00058293          	mv	t0,a1
f8000c80:	0045a583          	lw	a1,4(a1)
f8000c84:	0082a883          	lw	a7,8(t0)
f8000c88:	41158333          	sub	t1,a1,a7
f8000c8c:	01400393          	li	t2,20
f8000c90:	0a63f663          	bgeu	t2,t1,f8000d3c <_ZN138_$LT$rvfm..command_list..CommandListBuilder$LT$rvfm..gpu..command..GpuCommands$GT$$u20$as$u20$rvfm..gpu..command..GpuCommandBuilderExt$GT$22draw_graphics_pipeline17hcb1b57f7dac4c82fE+0xdc>
f8000c94:	feb00393          	li	t2,-21
f8000c98:	01488313          	add	t1,a7,20
f8000c9c:	0d13e263          	bltu	t2,a7,f8000d60 <_ZN138_$LT$rvfm..command_list..CommandListBuilder$LT$rvfm..gpu..command..GpuCommands$GT$$u20$as$u20$rvfm..gpu..command..GpuCommandBuilderExt$GT$22draw_graphics_pipeline17hcb1b57f7dac4c82fE+0x100>
f8000ca0:	0c65ec63          	bltu	a1,t1,f8000d78 <_ZN138_$LT$rvfm..command_list..CommandListBuilder$LT$rvfm..gpu..command..GpuCommands$GT$$u20$as$u20$rvfm..gpu..command..GpuCommandBuilderExt$GT$22draw_graphics_pipeline17hcb1b57f7dac4c82fE+0x118>
f8000ca4:	00085383          	lhu	t2,0(a6)
f8000ca8:	0087de13          	srl	t3,a5,0x8
f8000cac:	0107de93          	srl	t4,a5,0x10
f8000cb0:	0187df13          	srl	t5,a5,0x18
f8000cb4:	0083df93          	srl	t6,t2,0x8
f8000cb8:	00285403          	lhu	s0,2(a6)
f8000cbc:	00485483          	lhu	s1,4(a6)
f8000cc0:	00685803          	lhu	a6,6(a6)
f8000cc4:	0002a283          	lw	t0,0(t0)
f8000cc8:	00845913          	srl	s2,s0,0x8
f8000ccc:	0084d993          	srl	s3,s1,0x8
f8000cd0:	00885a13          	srl	s4,a6,0x8
f8000cd4:	011288b3          	add	a7,t0,a7
f8000cd8:	00f00a93          	li	s5,15
f8000cdc:	01588023          	sb	s5,0(a7)
f8000ce0:	000880a3          	sb	zero,1(a7)
f8000ce4:	00c88123          	sb	a2,2(a7)
f8000ce8:	00e881a3          	sb	a4,3(a7)
f8000cec:	00d88223          	sb	a3,4(a7)
f8000cf0:	000882a3          	sb	zero,5(a7)
f8000cf4:	00088323          	sb	zero,6(a7)
f8000cf8:	000883a3          	sb	zero,7(a7)
f8000cfc:	00f88423          	sb	a5,8(a7)
f8000d00:	01c884a3          	sb	t3,9(a7)
f8000d04:	01d88523          	sb	t4,10(a7)
f8000d08:	01e885a3          	sb	t5,11(a7)
f8000d0c:	00788623          	sb	t2,12(a7)
f8000d10:	01f886a3          	sb	t6,13(a7)
f8000d14:	00888723          	sb	s0,14(a7)
f8000d18:	012887a3          	sb	s2,15(a7)
f8000d1c:	00988823          	sb	s1,16(a7)
f8000d20:	013888a3          	sb	s3,17(a7)
f8000d24:	01088923          	sb	a6,18(a7)
f8000d28:	014889a3          	sb	s4,19(a7)
f8000d2c:	00552023          	sw	t0,0(a0)
f8000d30:	00b52223          	sw	a1,4(a0)
f8000d34:	00652423          	sw	t1,8(a0)
f8000d38:	0080006f          	j	f8000d40 <_ZN138_$LT$rvfm..command_list..CommandListBuilder$LT$rvfm..gpu..command..GpuCommands$GT$$u20$as$u20$rvfm..gpu..command..GpuCommandBuilderExt$GT$22draw_graphics_pipeline17hcb1b57f7dac4c82fE+0xe0>
f8000d3c:	00052023          	sw	zero,0(a0)
f8000d40:	01c12403          	lw	s0,28(sp)
f8000d44:	01812483          	lw	s1,24(sp)
f8000d48:	01412903          	lw	s2,20(sp)
f8000d4c:	01012983          	lw	s3,16(sp)
f8000d50:	00c12a03          	lw	s4,12(sp)
f8000d54:	00812a83          	lw	s5,8(sp)
f8000d58:	02010113          	add	sp,sp,32
f8000d5c:	00008067          	ret
f8000d60:	f8002537          	lui	a0,0xf8002
f8000d64:	4c850613          	add	a2,a0,1224 # f80024c8 <.Lanon.ed8adcc0edac9d2cca8975dbe52d9d3b.7>
f8000d68:	00088513          	mv	a0,a7
f8000d6c:	00030593          	mv	a1,t1
f8000d70:	00001097          	auipc	ra,0x1
f8000d74:	c84080e7          	jalr	-892(ra) # f80019f4 <_ZN4core5slice5index22slice_index_order_fail17hea267c10579e6abbE>
f8000d78:	f8002537          	lui	a0,0xf8002
f8000d7c:	4c850613          	add	a2,a0,1224 # f80024c8 <.Lanon.ed8adcc0edac9d2cca8975dbe52d9d3b.7>
f8000d80:	00030513          	mv	a0,t1
f8000d84:	00001097          	auipc	ra,0x1
f8000d88:	c04080e7          	jalr	-1020(ra) # f8001988 <_ZN4core5slice5index24slice_end_index_len_fail17h62eef51decd7a014E>

f8000d8c <_ZN4rvfm3gpu7command10gpu_submit17ha49ad47085e245dcE>:
f8000d8c:	00700693          	li	a3,7
f8000d90:	00062023          	sw	zero,0(a2)
f8000d94:	02b6f863          	bgeu	a3,a1,f8000dc4 <_ZN4rvfm3gpu7command10gpu_submit17ha49ad47085e245dcE+0x38>
f8000d98:	00c50223          	sb	a2,4(a0)
f8000d9c:	01865593          	srl	a1,a2,0x18
f8000da0:	00b503a3          	sb	a1,7(a0)
f8000da4:	01065593          	srl	a1,a2,0x10
f8000da8:	00b50323          	sb	a1,6(a0)
f8000dac:	00865593          	srl	a1,a2,0x8
f8000db0:	00b502a3          	sb	a1,5(a0)
f8000db4:	800105b7          	lui	a1,0x80010
f8000db8:	00a5a023          	sw	a0,0(a1) # 80010000 <__stack_ptr+0x78010000>
f8000dbc:	00060513          	mv	a0,a2
f8000dc0:	00008067          	ret
f8000dc4:	f8002537          	lui	a0,0xf8002
f8000dc8:	42050613          	add	a2,a0,1056 # f8002420 <.Lanon.ed8adcc0edac9d2cca8975dbe52d9d3b.2>
f8000dcc:	00800513          	li	a0,8
f8000dd0:	00001097          	auipc	ra,0x1
f8000dd4:	bb8080e7          	jalr	-1096(ra) # f8001988 <_ZN4core5slice5index24slice_end_index_len_fail17h62eef51decd7a014E>

f8000dd8 <_ZN4rvfm12command_list21CommandListCompletion4wait17hd09c98980bc821d3E>:
f8000dd8:	00052503          	lw	a0,0(a0)
f8000ddc:	00052583          	lw	a1,0(a0)
f8000de0:	fe058ee3          	beqz	a1,f8000ddc <_ZN4rvfm12command_list21CommandListCompletion4wait17hd09c98980bc821d3E+0x4>
f8000de4:	00008067          	ret

f8000de8 <_ZN4rvfm5debug5flush17hff671ab7ac35057aE>:
f8000de8:	80000537          	lui	a0,0x80000
f8000dec:	00100593          	li	a1,1
f8000df0:	00b52823          	sw	a1,16(a0) # 80000010 <__stack_ptr+0x78000010>
f8000df4:	00008067          	ret

f8000df8 <_ZN61_$LT$rvfm..debug..DebugWriter$u20$as$u20$core..fmt..Write$GT$9write_str17h3c524b7a1274db75E>:
f8000df8:	80000537          	lui	a0,0x80000
f8000dfc:	00c52223          	sw	a2,4(a0) # 80000004 <__stack_ptr+0x78000004>
f8000e00:	00b52023          	sw	a1,0(a0)
f8000e04:	00100593          	li	a1,1
f8000e08:	00b52623          	sw	a1,12(a0)
f8000e0c:	00852503          	lw	a0,8(a0)
f8000e10:	00a03533          	snez	a0,a0
f8000e14:	00008067          	ret

f8000e18 <rust_begin_unwind>:
f8000e18:	fa010113          	add	sp,sp,-96
f8000e1c:	04112e23          	sw	ra,92(sp)
f8000e20:	800005b7          	lui	a1,0x80000
f8000e24:	00100613          	li	a2,1
f8000e28:	00c5a823          	sw	a2,16(a1) # 80000010 <__stack_ptr+0x78000010>
f8000e2c:	f14025f3          	.4byte	0xf14025f3
f8000e30:	00b64a63          	blt	a2,a1,f8000e44 <rust_begin_unwind+0x2c>
f8000e34:	02058463          	beqz	a1,f8000e5c <rust_begin_unwind+0x44>
f8000e38:	00100613          	li	a2,1
f8000e3c:	00c58c63          	beq	a1,a2,f8000e54 <rust_begin_unwind+0x3c>
f8000e40:	0d80006f          	j	f8000f18 <rust_begin_unwind+0x100>
f8000e44:	00200613          	li	a2,2
f8000e48:	00c58663          	beq	a1,a2,f8000e54 <rust_begin_unwind+0x3c>
f8000e4c:	00300613          	li	a2,3
f8000e50:	0cc59463          	bne	a1,a2,f8000f18 <rust_begin_unwind+0x100>
f8000e54:	00c12623          	sw	a2,12(sp)
f8000e58:	0080006f          	j	f8000e60 <rust_begin_unwind+0x48>
f8000e5c:	00012623          	sw	zero,12(sp)
f8000e60:	01852503          	lw	a0,24(a0)
f8000e64:	00052583          	lw	a1,0(a0)
f8000e68:	00452603          	lw	a2,4(a0)
f8000e6c:	00852683          	lw	a3,8(a0)
f8000e70:	00c52503          	lw	a0,12(a0)
f8000e74:	04b12423          	sw	a1,72(sp)
f8000e78:	04c12623          	sw	a2,76(sp)
f8000e7c:	04d12823          	sw	a3,80(sp)
f8000e80:	04a12a23          	sw	a0,84(sp)
f8000e84:	00c10513          	add	a0,sp,12
f8000e88:	02a12423          	sw	a0,40(sp)
f8000e8c:	f8002537          	lui	a0,0xf8002
f8000e90:	ed050513          	add	a0,a0,-304 # f8001ed0 <_ZN4core3fmt3num3imp52_$LT$impl$u20$core..fmt..Display$u20$for$u20$u32$GT$3fmt17hab9e0058d5fc57a4E>
f8000e94:	02a12623          	sw	a0,44(sp)
f8000e98:	04810593          	add	a1,sp,72
f8000e9c:	02b12823          	sw	a1,48(sp)
f8000ea0:	f80005b7          	lui	a1,0xf8000
f8000ea4:	52058593          	add	a1,a1,1312 # f8000520 <_ZN44_$LT$$RF$T$u20$as$u20$core..fmt..Display$GT$3fmt17hb24afeb8ff693845E>
f8000ea8:	02b12a23          	sw	a1,52(sp)
f8000eac:	05010593          	add	a1,sp,80
f8000eb0:	02b12c23          	sw	a1,56(sp)
f8000eb4:	02a12e23          	sw	a0,60(sp)
f8000eb8:	05410593          	add	a1,sp,84
f8000ebc:	04b12023          	sw	a1,64(sp)
f8000ec0:	04a12223          	sw	a0,68(sp)
f8000ec4:	f8002537          	lui	a0,0xf8002
f8000ec8:	4e850513          	add	a0,a0,1256 # f80024e8 <.Lanon.ed8adcc0edac9d2cca8975dbe52d9d3b.13>
f8000ecc:	00a12823          	sw	a0,16(sp)
f8000ed0:	00400513          	li	a0,4
f8000ed4:	00a12a23          	sw	a0,20(sp)
f8000ed8:	02012023          	sw	zero,32(sp)
f8000edc:	02810593          	add	a1,sp,40
f8000ee0:	00b12c23          	sw	a1,24(sp)
f8000ee4:	00a12e23          	sw	a0,28(sp)
f8000ee8:	f8002537          	lui	a0,0xf8002
f8000eec:	3d450593          	add	a1,a0,980 # f80023d4 <.Lanon.ed8adcc0edac9d2cca8975dbe52d9d3b.0>
f8000ef0:	05b10513          	add	a0,sp,91
f8000ef4:	01010613          	add	a2,sp,16
f8000ef8:	00000097          	auipc	ra,0x0
f8000efc:	158080e7          	jalr	344(ra) # f8001050 <_ZN4core3fmt5write17ha460a03ff3f9d6efE>
f8000f00:	80000537          	lui	a0,0x80000
f8000f04:	00100593          	li	a1,1
f8000f08:	00b52823          	sw	a1,16(a0) # 80000010 <__stack_ptr+0x78000010>
f8000f0c:	00b52823          	sw	a1,16(a0)
f8000f10:	10500073          	wfi
f8000f14:	ffdff06f          	j	f8000f10 <rust_begin_unwind+0xf8>
f8000f18:	f8002537          	lui	a0,0xf8002
f8000f1c:	43050513          	add	a0,a0,1072 # f8002430 <.Lanon.ed8adcc0edac9d2cca8975dbe52d9d3b.3>
f8000f20:	f80025b7          	lui	a1,0xf8002
f8000f24:	48458613          	add	a2,a1,1156 # f8002484 <.Lanon.ed8adcc0edac9d2cca8975dbe52d9d3b.5>
f8000f28:	02800593          	li	a1,40
f8000f2c:	00000097          	auipc	ra,0x0
f8000f30:	060080e7          	jalr	96(ra) # f8000f8c <_ZN4core9panicking5panic17h849d9327ce9249d4E>

f8000f34 <_ZN4core9panicking9panic_fmt17h97dfbdb4ac49634eE>:
f8000f34:	fd010113          	add	sp,sp,-48
f8000f38:	02112623          	sw	ra,44(sp)
f8000f3c:	02812423          	sw	s0,40(sp)
f8000f40:	03010413          	add	s0,sp,48
f8000f44:	01452603          	lw	a2,20(a0)
f8000f48:	01052683          	lw	a3,16(a0)
f8000f4c:	fec42623          	sw	a2,-20(s0)
f8000f50:	fed42423          	sw	a3,-24(s0)
f8000f54:	00c52603          	lw	a2,12(a0)
f8000f58:	00852683          	lw	a3,8(a0)
f8000f5c:	00452703          	lw	a4,4(a0)
f8000f60:	00052503          	lw	a0,0(a0)
f8000f64:	fec42223          	sw	a2,-28(s0)
f8000f68:	fed42023          	sw	a3,-32(s0)
f8000f6c:	fce42e23          	sw	a4,-36(s0)
f8000f70:	fca42c23          	sw	a0,-40(s0)
f8000f74:	feb42823          	sw	a1,-16(s0)
f8000f78:	00100513          	li	a0,1
f8000f7c:	fea41a23          	sh	a0,-12(s0)
f8000f80:	fd840513          	add	a0,s0,-40
f8000f84:	00000097          	auipc	ra,0x0
f8000f88:	e94080e7          	jalr	-364(ra) # f8000e18 <rust_begin_unwind>

f8000f8c <_ZN4core9panicking5panic17h849d9327ce9249d4E>:
f8000f8c:	fd010113          	add	sp,sp,-48
f8000f90:	02112623          	sw	ra,44(sp)
f8000f94:	02812423          	sw	s0,40(sp)
f8000f98:	03010413          	add	s0,sp,48
f8000f9c:	fea42823          	sw	a0,-16(s0)
f8000fa0:	feb42a23          	sw	a1,-12(s0)
f8000fa4:	ff040513          	add	a0,s0,-16
f8000fa8:	fca42c23          	sw	a0,-40(s0)
f8000fac:	00100513          	li	a0,1
f8000fb0:	fca42e23          	sw	a0,-36(s0)
f8000fb4:	fe042423          	sw	zero,-24(s0)
f8000fb8:	00400513          	li	a0,4
f8000fbc:	fea42023          	sw	a0,-32(s0)
f8000fc0:	fe042223          	sw	zero,-28(s0)
f8000fc4:	fd840513          	add	a0,s0,-40
f8000fc8:	00060593          	mv	a1,a2
f8000fcc:	00000097          	auipc	ra,0x0
f8000fd0:	f68080e7          	jalr	-152(ra) # f8000f34 <_ZN4core9panicking9panic_fmt17h97dfbdb4ac49634eE>

f8000fd4 <_ZN4core6result13unwrap_failed17h8626ef610c8da5b6E>:
f8000fd4:	fc010113          	add	sp,sp,-64
f8000fd8:	02112e23          	sw	ra,60(sp)
f8000fdc:	02812c23          	sw	s0,56(sp)
f8000fe0:	04010413          	add	s0,sp,64
f8000fe4:	fca42023          	sw	a0,-64(s0)
f8000fe8:	fcb42223          	sw	a1,-60(s0)
f8000fec:	fcc42423          	sw	a2,-56(s0)
f8000ff0:	fcd42623          	sw	a3,-52(s0)
f8000ff4:	fc040513          	add	a0,s0,-64
f8000ff8:	fea42423          	sw	a0,-24(s0)
f8000ffc:	f8002537          	lui	a0,0xf8002
f8001000:	f2c50513          	add	a0,a0,-212 # f8001f2c <_ZN44_$LT$$RF$T$u20$as$u20$core..fmt..Display$GT$3fmt17hb2d97efcf68fd173E>
f8001004:	fea42623          	sw	a0,-20(s0)
f8001008:	fc840513          	add	a0,s0,-56
f800100c:	fea42823          	sw	a0,-16(s0)
f8001010:	f8002537          	lui	a0,0xf8002
f8001014:	f0050513          	add	a0,a0,-256 # f8001f00 <_ZN42_$LT$$RF$T$u20$as$u20$core..fmt..Debug$GT$3fmt17h27797dbcdede635bE>
f8001018:	fea42a23          	sw	a0,-12(s0)
f800101c:	f8002537          	lui	a0,0xf8002
f8001020:	50c50513          	add	a0,a0,1292 # f800250c <.Lanon.2fd07056217eab97579f900aab253104.283>
f8001024:	fca42823          	sw	a0,-48(s0)
f8001028:	00200513          	li	a0,2
f800102c:	fca42a23          	sw	a0,-44(s0)
f8001030:	fe042023          	sw	zero,-32(s0)
f8001034:	fe840593          	add	a1,s0,-24
f8001038:	fcb42c23          	sw	a1,-40(s0)
f800103c:	fca42e23          	sw	a0,-36(s0)
f8001040:	fd040513          	add	a0,s0,-48
f8001044:	00070593          	mv	a1,a4
f8001048:	00000097          	auipc	ra,0x0
f800104c:	eec080e7          	jalr	-276(ra) # f8000f34 <_ZN4core9panicking9panic_fmt17h97dfbdb4ac49634eE>

f8001050 <_ZN4core3fmt5write17ha460a03ff3f9d6efE>:
f8001050:	fb010113          	add	sp,sp,-80
f8001054:	04112623          	sw	ra,76(sp)
f8001058:	04812423          	sw	s0,72(sp)
f800105c:	04912223          	sw	s1,68(sp)
f8001060:	05212023          	sw	s2,64(sp)
f8001064:	03312e23          	sw	s3,60(sp)
f8001068:	03412c23          	sw	s4,56(sp)
f800106c:	03512a23          	sw	s5,52(sp)
f8001070:	03612823          	sw	s6,48(sp)
f8001074:	03712623          	sw	s7,44(sp)
f8001078:	03812423          	sw	s8,40(sp)
f800107c:	05010413          	add	s0,sp,80
f8001080:	00060493          	mv	s1,a2
f8001084:	fc042823          	sw	zero,-48(s0)
f8001088:	02000613          	li	a2,32
f800108c:	fcc42223          	sw	a2,-60(s0)
f8001090:	00300613          	li	a2,3
f8001094:	fcc40a23          	sb	a2,-44(s0)
f8001098:	0104ab03          	lw	s6,16(s1)
f800109c:	fa042a23          	sw	zero,-76(s0)
f80010a0:	fa042e23          	sw	zero,-68(s0)
f80010a4:	fca42423          	sw	a0,-56(s0)
f80010a8:	fcb42623          	sw	a1,-52(s0)
f80010ac:	120b0263          	beqz	s6,f80011d0 <_ZN4core3fmt5write17ha460a03ff3f9d6efE+0x180>
f80010b0:	0144aa83          	lw	s5,20(s1)
f80010b4:	180a8c63          	beqz	s5,f800124c <_ZN4core3fmt5write17ha460a03ff3f9d6efE+0x1fc>
f80010b8:	0004aa03          	lw	s4,0(s1)
f80010bc:	0084a983          	lw	s3,8(s1)
f80010c0:	fffa8513          	add	a0,s5,-1
f80010c4:	00551513          	sll	a0,a0,0x5
f80010c8:	00555513          	srl	a0,a0,0x5
f80010cc:	00150913          	add	s2,a0,1
f80010d0:	004a0a13          	add	s4,s4,4
f80010d4:	005a9a93          	sll	s5,s5,0x5
f80010d8:	010b0b13          	add	s6,s6,16
f80010dc:	00200b93          	li	s7,2
f80010e0:	00100c13          	li	s8,1
f80010e4:	000a2603          	lw	a2,0(s4)
f80010e8:	00060e63          	beqz	a2,f8001104 <_ZN4core3fmt5write17ha460a03ff3f9d6efE+0xb4>
f80010ec:	fcc42683          	lw	a3,-52(s0)
f80010f0:	fc842503          	lw	a0,-56(s0)
f80010f4:	ffca2583          	lw	a1,-4(s4)
f80010f8:	00c6a683          	lw	a3,12(a3)
f80010fc:	000680e7          	jalr	a3
f8001100:	18051063          	bnez	a0,f8001280 <_ZN4core3fmt5write17ha460a03ff3f9d6efE+0x230>
f8001104:	000b2603          	lw	a2,0(s6)
f8001108:	00cb4683          	lbu	a3,12(s6)
f800110c:	008b2703          	lw	a4,8(s6)
f8001110:	ff8b2583          	lw	a1,-8(s6)
f8001114:	ffcb2503          	lw	a0,-4(s6)
f8001118:	fcc42223          	sw	a2,-60(s0)
f800111c:	fcd40a23          	sb	a3,-44(s0)
f8001120:	fce42823          	sw	a4,-48(s0)
f8001124:	02058a63          	beqz	a1,f8001158 <_ZN4core3fmt5write17ha460a03ff3f9d6efE+0x108>
f8001128:	01859a63          	bne	a1,s8,f800113c <_ZN4core3fmt5write17ha460a03ff3f9d6efE+0xec>
f800112c:	00351513          	sll	a0,a0,0x3
f8001130:	00a98533          	add	a0,s3,a0
f8001134:	00452583          	lw	a1,4(a0)
f8001138:	00058e63          	beqz	a1,f8001154 <_ZN4core3fmt5write17ha460a03ff3f9d6efE+0x104>
f800113c:	00000593          	li	a1,0
f8001140:	ff0b2603          	lw	a2,-16(s6)
f8001144:	fa042a23          	sw	zero,-76(s0)
f8001148:	faa42c23          	sw	a0,-72(s0)
f800114c:	03761063          	bne	a2,s7,f800116c <_ZN4core3fmt5write17ha460a03ff3f9d6efE+0x11c>
f8001150:	0340006f          	j	f8001184 <_ZN4core3fmt5write17ha460a03ff3f9d6efE+0x134>
f8001154:	00052503          	lw	a0,0(a0)
f8001158:	00100593          	li	a1,1
f800115c:	ff0b2603          	lw	a2,-16(s6)
f8001160:	fab42a23          	sw	a1,-76(s0)
f8001164:	faa42c23          	sw	a0,-72(s0)
f8001168:	01760e63          	beq	a2,s7,f8001184 <_ZN4core3fmt5write17ha460a03ff3f9d6efE+0x134>
f800116c:	ff4b2583          	lw	a1,-12(s6)
f8001170:	03861063          	bne	a2,s8,f8001190 <_ZN4core3fmt5write17ha460a03ff3f9d6efE+0x140>
f8001174:	00359513          	sll	a0,a1,0x3
f8001178:	00a98533          	add	a0,s3,a0
f800117c:	00452583          	lw	a1,4(a0)
f8001180:	00058663          	beqz	a1,f800118c <_ZN4core3fmt5write17ha460a03ff3f9d6efE+0x13c>
f8001184:	00000613          	li	a2,0
f8001188:	00c0006f          	j	f8001194 <_ZN4core3fmt5write17ha460a03ff3f9d6efE+0x144>
f800118c:	00052583          	lw	a1,0(a0)
f8001190:	00100613          	li	a2,1
f8001194:	004b2503          	lw	a0,4(s6)
f8001198:	00351513          	sll	a0,a0,0x3
f800119c:	00a98533          	add	a0,s3,a0
f80011a0:	00452683          	lw	a3,4(a0)
f80011a4:	00052503          	lw	a0,0(a0)
f80011a8:	fac42e23          	sw	a2,-68(s0)
f80011ac:	fcb42023          	sw	a1,-64(s0)
f80011b0:	fb440593          	add	a1,s0,-76
f80011b4:	000680e7          	jalr	a3
f80011b8:	0c051463          	bnez	a0,f8001280 <_ZN4core3fmt5write17ha460a03ff3f9d6efE+0x230>
f80011bc:	008a0a13          	add	s4,s4,8
f80011c0:	fe0a8a93          	add	s5,s5,-32
f80011c4:	020b0b13          	add	s6,s6,32
f80011c8:	f00a9ee3          	bnez	s5,f80010e4 <_ZN4core3fmt5write17ha460a03ff3f9d6efE+0x94>
f80011cc:	0740006f          	j	f8001240 <_ZN4core3fmt5write17ha460a03ff3f9d6efE+0x1f0>
f80011d0:	00c4aa03          	lw	s4,12(s1)
f80011d4:	060a0c63          	beqz	s4,f800124c <_ZN4core3fmt5write17ha460a03ff3f9d6efE+0x1fc>
f80011d8:	0084aa83          	lw	s5,8(s1)
f80011dc:	0004a983          	lw	s3,0(s1)
f80011e0:	fffa0513          	add	a0,s4,-1
f80011e4:	00351513          	sll	a0,a0,0x3
f80011e8:	00355513          	srl	a0,a0,0x3
f80011ec:	00150913          	add	s2,a0,1
f80011f0:	00498993          	add	s3,s3,4
f80011f4:	003a1a13          	sll	s4,s4,0x3
f80011f8:	004a8a93          	add	s5,s5,4
f80011fc:	0009a603          	lw	a2,0(s3)
f8001200:	00060e63          	beqz	a2,f800121c <_ZN4core3fmt5write17ha460a03ff3f9d6efE+0x1cc>
f8001204:	fcc42683          	lw	a3,-52(s0)
f8001208:	fc842503          	lw	a0,-56(s0)
f800120c:	ffc9a583          	lw	a1,-4(s3)
f8001210:	00c6a683          	lw	a3,12(a3)
f8001214:	000680e7          	jalr	a3
f8001218:	06051463          	bnez	a0,f8001280 <_ZN4core3fmt5write17ha460a03ff3f9d6efE+0x230>
f800121c:	000aa603          	lw	a2,0(s5)
f8001220:	ffcaa503          	lw	a0,-4(s5)
f8001224:	fb440593          	add	a1,s0,-76
f8001228:	000600e7          	jalr	a2
f800122c:	04051a63          	bnez	a0,f8001280 <_ZN4core3fmt5write17ha460a03ff3f9d6efE+0x230>
f8001230:	00898993          	add	s3,s3,8
f8001234:	ff8a0a13          	add	s4,s4,-8
f8001238:	008a8a93          	add	s5,s5,8
f800123c:	fc0a10e3          	bnez	s4,f80011fc <_ZN4core3fmt5write17ha460a03ff3f9d6efE+0x1ac>
f8001240:	0044a503          	lw	a0,4(s1)
f8001244:	00a96a63          	bltu	s2,a0,f8001258 <_ZN4core3fmt5write17ha460a03ff3f9d6efE+0x208>
f8001248:	0400006f          	j	f8001288 <_ZN4core3fmt5write17ha460a03ff3f9d6efE+0x238>
f800124c:	00000913          	li	s2,0
f8001250:	0044a503          	lw	a0,4(s1)
f8001254:	02a07a63          	bgeu	zero,a0,f8001288 <_ZN4core3fmt5write17ha460a03ff3f9d6efE+0x238>
f8001258:	0004a503          	lw	a0,0(s1)
f800125c:	00391913          	sll	s2,s2,0x3
f8001260:	01250933          	add	s2,a0,s2
f8001264:	fcc42683          	lw	a3,-52(s0)
f8001268:	fc842503          	lw	a0,-56(s0)
f800126c:	00092583          	lw	a1,0(s2)
f8001270:	00492603          	lw	a2,4(s2)
f8001274:	00c6a683          	lw	a3,12(a3)
f8001278:	000680e7          	jalr	a3
f800127c:	00050663          	beqz	a0,f8001288 <_ZN4core3fmt5write17ha460a03ff3f9d6efE+0x238>
f8001280:	00100513          	li	a0,1
f8001284:	0080006f          	j	f800128c <_ZN4core3fmt5write17ha460a03ff3f9d6efE+0x23c>
f8001288:	00000513          	li	a0,0
f800128c:	04c12083          	lw	ra,76(sp)
f8001290:	04812403          	lw	s0,72(sp)
f8001294:	04412483          	lw	s1,68(sp)
f8001298:	04012903          	lw	s2,64(sp)
f800129c:	03c12983          	lw	s3,60(sp)
f80012a0:	03812a03          	lw	s4,56(sp)
f80012a4:	03412a83          	lw	s5,52(sp)
f80012a8:	03012b03          	lw	s6,48(sp)
f80012ac:	02c12b83          	lw	s7,44(sp)
f80012b0:	02812c03          	lw	s8,40(sp)
f80012b4:	05010113          	add	sp,sp,80
f80012b8:	00008067          	ret

f80012bc <_ZN4core3fmt9Formatter12pad_integral17h4be4a1cb244d4f1cE>:
f80012bc:	fc010113          	add	sp,sp,-64
f80012c0:	02112e23          	sw	ra,60(sp)
f80012c4:	02812c23          	sw	s0,56(sp)
f80012c8:	02912a23          	sw	s1,52(sp)
f80012cc:	03212823          	sw	s2,48(sp)
f80012d0:	03312623          	sw	s3,44(sp)
f80012d4:	03412423          	sw	s4,40(sp)
f80012d8:	03512223          	sw	s5,36(sp)
f80012dc:	03612023          	sw	s6,32(sp)
f80012e0:	01712e23          	sw	s7,28(sp)
f80012e4:	01812c23          	sw	s8,24(sp)
f80012e8:	01912a23          	sw	s9,20(sp)
f80012ec:	01a12823          	sw	s10,16(sp)
f80012f0:	01b12623          	sw	s11,12(sp)
f80012f4:	04010413          	add	s0,sp,64
f80012f8:	00078493          	mv	s1,a5
f80012fc:	00070913          	mv	s2,a4
f8001300:	00068993          	mv	s3,a3
f8001304:	00060a13          	mv	s4,a2
f8001308:	06058263          	beqz	a1,f800136c <_ZN4core3fmt9Formatter12pad_integral17h4be4a1cb244d4f1cE+0xb0>
f800130c:	01c52b03          	lw	s6,28(a0)
f8001310:	001b7c13          	and	s8,s6,1
f8001314:	00110ab7          	lui	s5,0x110
f8001318:	000c0463          	beqz	s8,f8001320 <_ZN4core3fmt9Formatter12pad_integral17h4be4a1cb244d4f1cE+0x64>
f800131c:	02b00a93          	li	s5,43
f8001320:	009c0c33          	add	s8,s8,s1
f8001324:	004b7593          	and	a1,s6,4
f8001328:	04058c63          	beqz	a1,f8001380 <_ZN4core3fmt9Formatter12pad_integral17h4be4a1cb244d4f1cE+0xc4>
f800132c:	01000593          	li	a1,16
f8001330:	06b9f063          	bgeu	s3,a1,f8001390 <_ZN4core3fmt9Formatter12pad_integral17h4be4a1cb244d4f1cE+0xd4>
f8001334:	00000593          	li	a1,0
f8001338:	02098263          	beqz	s3,f800135c <_ZN4core3fmt9Formatter12pad_integral17h4be4a1cb244d4f1cE+0xa0>
f800133c:	013a0633          	add	a2,s4,s3
f8001340:	000a0693          	mv	a3,s4
f8001344:	00068703          	lb	a4,0(a3)
f8001348:	fc072713          	slti	a4,a4,-64
f800134c:	00174713          	xor	a4,a4,1
f8001350:	00168693          	add	a3,a3,1
f8001354:	00e585b3          	add	a1,a1,a4
f8001358:	fec696e3          	bne	a3,a2,f8001344 <_ZN4core3fmt9Formatter12pad_integral17h4be4a1cb244d4f1cE+0x88>
f800135c:	01858c33          	add	s8,a1,s8
f8001360:	00052583          	lw	a1,0(a0)
f8001364:	04059a63          	bnez	a1,f80013b8 <_ZN4core3fmt9Formatter12pad_integral17h4be4a1cb244d4f1cE+0xfc>
f8001368:	0780006f          	j	f80013e0 <_ZN4core3fmt9Formatter12pad_integral17h4be4a1cb244d4f1cE+0x124>
f800136c:	01c52b03          	lw	s6,28(a0)
f8001370:	00148c13          	add	s8,s1,1
f8001374:	02d00a93          	li	s5,45
f8001378:	004b7593          	and	a1,s6,4
f800137c:	fa0598e3          	bnez	a1,f800132c <_ZN4core3fmt9Formatter12pad_integral17h4be4a1cb244d4f1cE+0x70>
f8001380:	00000a13          	li	s4,0
f8001384:	00052583          	lw	a1,0(a0)
f8001388:	02059863          	bnez	a1,f80013b8 <_ZN4core3fmt9Formatter12pad_integral17h4be4a1cb244d4f1cE+0xfc>
f800138c:	0540006f          	j	f80013e0 <_ZN4core3fmt9Formatter12pad_integral17h4be4a1cb244d4f1cE+0x124>
f8001390:	00050b93          	mv	s7,a0
f8001394:	000a0513          	mv	a0,s4
f8001398:	00098593          	mv	a1,s3
f800139c:	00000097          	auipc	ra,0x0
f80013a0:	6c4080e7          	jalr	1732(ra) # f8001a60 <_ZN4core3str5count14do_count_chars17h214fa3d55315e1f9E>
f80013a4:	00050593          	mv	a1,a0
f80013a8:	000b8513          	mv	a0,s7
f80013ac:	01858c33          	add	s8,a1,s8
f80013b0:	000ba583          	lw	a1,0(s7)
f80013b4:	02058663          	beqz	a1,f80013e0 <_ZN4core3fmt9Formatter12pad_integral17h4be4a1cb244d4f1cE+0x124>
f80013b8:	00452c83          	lw	s9,4(a0)
f80013bc:	039c7263          	bgeu	s8,s9,f80013e0 <_ZN4core3fmt9Formatter12pad_integral17h4be4a1cb244d4f1cE+0x124>
f80013c0:	008b7593          	and	a1,s6,8
f80013c4:	08059c63          	bnez	a1,f800145c <_ZN4core3fmt9Formatter12pad_integral17h4be4a1cb244d4f1cE+0x1a0>
f80013c8:	02054583          	lbu	a1,32(a0)
f80013cc:	00100613          	li	a2,1
f80013d0:	418c8cb3          	sub	s9,s9,s8
f80013d4:	0eb64c63          	blt	a2,a1,f80014cc <_ZN4core3fmt9Formatter12pad_integral17h4be4a1cb244d4f1cE+0x210>
f80013d8:	10058a63          	beqz	a1,f80014ec <_ZN4core3fmt9Formatter12pad_integral17h4be4a1cb244d4f1cE+0x230>
f80013dc:	1080006f          	j	f80014e4 <_ZN4core3fmt9Formatter12pad_integral17h4be4a1cb244d4f1cE+0x228>
f80013e0:	01452b03          	lw	s6,20(a0)
f80013e4:	01852b83          	lw	s7,24(a0)
f80013e8:	000b0513          	mv	a0,s6
f80013ec:	000b8593          	mv	a1,s7
f80013f0:	000a8613          	mv	a2,s5
f80013f4:	000a0693          	mv	a3,s4
f80013f8:	00098713          	mv	a4,s3
f80013fc:	00000097          	auipc	ra,0x0
f8001400:	218080e7          	jalr	536(ra) # f8001614 <_ZN4core3fmt9Formatter12pad_integral12write_prefix17h47329140fa69d7efE>
f8001404:	00050593          	mv	a1,a0
f8001408:	00100513          	li	a0,1
f800140c:	10059863          	bnez	a1,f800151c <_ZN4core3fmt9Formatter12pad_integral17h4be4a1cb244d4f1cE+0x260>
f8001410:	00cba303          	lw	t1,12(s7)
f8001414:	000b0513          	mv	a0,s6
f8001418:	00090593          	mv	a1,s2
f800141c:	00048613          	mv	a2,s1
f8001420:	03c12083          	lw	ra,60(sp)
f8001424:	03812403          	lw	s0,56(sp)
f8001428:	03412483          	lw	s1,52(sp)
f800142c:	03012903          	lw	s2,48(sp)
f8001430:	02c12983          	lw	s3,44(sp)
f8001434:	02812a03          	lw	s4,40(sp)
f8001438:	02412a83          	lw	s5,36(sp)
f800143c:	02012b03          	lw	s6,32(sp)
f8001440:	01c12b83          	lw	s7,28(sp)
f8001444:	01812c03          	lw	s8,24(sp)
f8001448:	01412c83          	lw	s9,20(sp)
f800144c:	01012d03          	lw	s10,16(sp)
f8001450:	00c12d83          	lw	s11,12(sp)
f8001454:	04010113          	add	sp,sp,64
f8001458:	00030067          	jr	t1
f800145c:	01052583          	lw	a1,16(a0)
f8001460:	fcb42423          	sw	a1,-56(s0)
f8001464:	03000593          	li	a1,48
f8001468:	02054d03          	lbu	s10,32(a0)
f800146c:	01452b03          	lw	s6,20(a0)
f8001470:	01852b83          	lw	s7,24(a0)
f8001474:	00b52823          	sw	a1,16(a0)
f8001478:	00100593          	li	a1,1
f800147c:	00050d93          	mv	s11,a0
f8001480:	02b50023          	sb	a1,32(a0)
f8001484:	000b0513          	mv	a0,s6
f8001488:	000b8593          	mv	a1,s7
f800148c:	000a8613          	mv	a2,s5
f8001490:	000a0693          	mv	a3,s4
f8001494:	00098713          	mv	a4,s3
f8001498:	00000097          	auipc	ra,0x0
f800149c:	17c080e7          	jalr	380(ra) # f8001614 <_ZN4core3fmt9Formatter12pad_integral12write_prefix17h47329140fa69d7efE>
f80014a0:	06051c63          	bnez	a0,f8001518 <_ZN4core3fmt9Formatter12pad_integral17h4be4a1cb244d4f1cE+0x25c>
f80014a4:	418c89b3          	sub	s3,s9,s8
f80014a8:	00198993          	add	s3,s3,1
f80014ac:	fff98993          	add	s3,s3,-1
f80014b0:	12098263          	beqz	s3,f80015d4 <_ZN4core3fmt9Formatter12pad_integral17h4be4a1cb244d4f1cE+0x318>
f80014b4:	010ba603          	lw	a2,16(s7)
f80014b8:	03000593          	li	a1,48
f80014bc:	000b0513          	mv	a0,s6
f80014c0:	000600e7          	jalr	a2
f80014c4:	fe0504e3          	beqz	a0,f80014ac <_ZN4core3fmt9Formatter12pad_integral17h4be4a1cb244d4f1cE+0x1f0>
f80014c8:	0500006f          	j	f8001518 <_ZN4core3fmt9Formatter12pad_integral17h4be4a1cb244d4f1cE+0x25c>
f80014cc:	00200613          	li	a2,2
f80014d0:	00c59a63          	bne	a1,a2,f80014e4 <_ZN4core3fmt9Formatter12pad_integral17h4be4a1cb244d4f1cE+0x228>
f80014d4:	001cd593          	srl	a1,s9,0x1
f80014d8:	001c8c93          	add	s9,s9,1
f80014dc:	001cdc93          	srl	s9,s9,0x1
f80014e0:	00c0006f          	j	f80014ec <_ZN4core3fmt9Formatter12pad_integral17h4be4a1cb244d4f1cE+0x230>
f80014e4:	000c8593          	mv	a1,s9
f80014e8:	00000c93          	li	s9,0
f80014ec:	01452b03          	lw	s6,20(a0)
f80014f0:	01852b83          	lw	s7,24(a0)
f80014f4:	01052c03          	lw	s8,16(a0)
f80014f8:	00158d13          	add	s10,a1,1
f80014fc:	fffd0d13          	add	s10,s10,-1
f8001500:	040d0c63          	beqz	s10,f8001558 <_ZN4core3fmt9Formatter12pad_integral17h4be4a1cb244d4f1cE+0x29c>
f8001504:	010ba603          	lw	a2,16(s7)
f8001508:	000b0513          	mv	a0,s6
f800150c:	000c0593          	mv	a1,s8
f8001510:	000600e7          	jalr	a2
f8001514:	fe0504e3          	beqz	a0,f80014fc <_ZN4core3fmt9Formatter12pad_integral17h4be4a1cb244d4f1cE+0x240>
f8001518:	00100513          	li	a0,1
f800151c:	03c12083          	lw	ra,60(sp)
f8001520:	03812403          	lw	s0,56(sp)
f8001524:	03412483          	lw	s1,52(sp)
f8001528:	03012903          	lw	s2,48(sp)
f800152c:	02c12983          	lw	s3,44(sp)
f8001530:	02812a03          	lw	s4,40(sp)
f8001534:	02412a83          	lw	s5,36(sp)
f8001538:	02012b03          	lw	s6,32(sp)
f800153c:	01c12b83          	lw	s7,28(sp)
f8001540:	01812c03          	lw	s8,24(sp)
f8001544:	01412c83          	lw	s9,20(sp)
f8001548:	01012d03          	lw	s10,16(sp)
f800154c:	00c12d83          	lw	s11,12(sp)
f8001550:	04010113          	add	sp,sp,64
f8001554:	00008067          	ret
f8001558:	000b0513          	mv	a0,s6
f800155c:	000b8593          	mv	a1,s7
f8001560:	000a8613          	mv	a2,s5
f8001564:	000a0693          	mv	a3,s4
f8001568:	00098713          	mv	a4,s3
f800156c:	00000097          	auipc	ra,0x0
f8001570:	0a8080e7          	jalr	168(ra) # f8001614 <_ZN4core3fmt9Formatter12pad_integral12write_prefix17h47329140fa69d7efE>
f8001574:	00050593          	mv	a1,a0
f8001578:	00100513          	li	a0,1
f800157c:	fa0590e3          	bnez	a1,f800151c <_ZN4core3fmt9Formatter12pad_integral17h4be4a1cb244d4f1cE+0x260>
f8001580:	00cba683          	lw	a3,12(s7)
f8001584:	000b0513          	mv	a0,s6
f8001588:	00090593          	mv	a1,s2
f800158c:	00048613          	mv	a2,s1
f8001590:	000680e7          	jalr	a3
f8001594:	00050593          	mv	a1,a0
f8001598:	00100513          	li	a0,1
f800159c:	f80590e3          	bnez	a1,f800151c <_ZN4core3fmt9Formatter12pad_integral17h4be4a1cb244d4f1cE+0x260>
f80015a0:	41900933          	neg	s2,s9
f80015a4:	fff00993          	li	s3,-1
f80015a8:	fff00493          	li	s1,-1
f80015ac:	00990533          	add	a0,s2,s1
f80015b0:	05350c63          	beq	a0,s3,f8001608 <_ZN4core3fmt9Formatter12pad_integral17h4be4a1cb244d4f1cE+0x34c>
f80015b4:	010ba603          	lw	a2,16(s7)
f80015b8:	000b0513          	mv	a0,s6
f80015bc:	000c0593          	mv	a1,s8
f80015c0:	000600e7          	jalr	a2
f80015c4:	00148493          	add	s1,s1,1
f80015c8:	fe0502e3          	beqz	a0,f80015ac <_ZN4core3fmt9Formatter12pad_integral17h4be4a1cb244d4f1cE+0x2f0>
f80015cc:	0194b533          	sltu	a0,s1,s9
f80015d0:	f4dff06f          	j	f800151c <_ZN4core3fmt9Formatter12pad_integral17h4be4a1cb244d4f1cE+0x260>
f80015d4:	00cba683          	lw	a3,12(s7)
f80015d8:	000b0513          	mv	a0,s6
f80015dc:	00090593          	mv	a1,s2
f80015e0:	00048613          	mv	a2,s1
f80015e4:	000680e7          	jalr	a3
f80015e8:	00050593          	mv	a1,a0
f80015ec:	00100513          	li	a0,1
f80015f0:	f20596e3          	bnez	a1,f800151c <_ZN4core3fmt9Formatter12pad_integral17h4be4a1cb244d4f1cE+0x260>
f80015f4:	00000513          	li	a0,0
f80015f8:	fc842583          	lw	a1,-56(s0)
f80015fc:	00bda823          	sw	a1,16(s11)
f8001600:	03ad8023          	sb	s10,32(s11)
f8001604:	f19ff06f          	j	f800151c <_ZN4core3fmt9Formatter12pad_integral17h4be4a1cb244d4f1cE+0x260>
f8001608:	000c8493          	mv	s1,s9
f800160c:	019cb533          	sltu	a0,s9,s9
f8001610:	f0dff06f          	j	f800151c <_ZN4core3fmt9Formatter12pad_integral17h4be4a1cb244d4f1cE+0x260>

f8001614 <_ZN4core3fmt9Formatter12pad_integral12write_prefix17h47329140fa69d7efE>:
f8001614:	fe010113          	add	sp,sp,-32
f8001618:	00112e23          	sw	ra,28(sp)
f800161c:	00812c23          	sw	s0,24(sp)
f8001620:	00912a23          	sw	s1,20(sp)
f8001624:	01212823          	sw	s2,16(sp)
f8001628:	01312623          	sw	s3,12(sp)
f800162c:	01412423          	sw	s4,8(sp)
f8001630:	02010413          	add	s0,sp,32
f8001634:	001107b7          	lui	a5,0x110
f8001638:	00070493          	mv	s1,a4
f800163c:	00068913          	mv	s2,a3
f8001640:	00058993          	mv	s3,a1
f8001644:	02f60263          	beq	a2,a5,f8001668 <_ZN4core3fmt9Formatter12pad_integral12write_prefix17h47329140fa69d7efE+0x54>
f8001648:	0109a683          	lw	a3,16(s3)
f800164c:	00050a13          	mv	s4,a0
f8001650:	00060593          	mv	a1,a2
f8001654:	000680e7          	jalr	a3
f8001658:	00050613          	mv	a2,a0
f800165c:	000a0513          	mv	a0,s4
f8001660:	00100593          	li	a1,1
f8001664:	02061c63          	bnez	a2,f800169c <_ZN4core3fmt9Formatter12pad_integral12write_prefix17h47329140fa69d7efE+0x88>
f8001668:	02090863          	beqz	s2,f8001698 <_ZN4core3fmt9Formatter12pad_integral12write_prefix17h47329140fa69d7efE+0x84>
f800166c:	00c9a303          	lw	t1,12(s3)
f8001670:	00090593          	mv	a1,s2
f8001674:	00048613          	mv	a2,s1
f8001678:	01c12083          	lw	ra,28(sp)
f800167c:	01812403          	lw	s0,24(sp)
f8001680:	01412483          	lw	s1,20(sp)
f8001684:	01012903          	lw	s2,16(sp)
f8001688:	00c12983          	lw	s3,12(sp)
f800168c:	00812a03          	lw	s4,8(sp)
f8001690:	02010113          	add	sp,sp,32
f8001694:	00030067          	jr	t1
f8001698:	00000593          	li	a1,0
f800169c:	00058513          	mv	a0,a1
f80016a0:	01c12083          	lw	ra,28(sp)
f80016a4:	01812403          	lw	s0,24(sp)
f80016a8:	01412483          	lw	s1,20(sp)
f80016ac:	01012903          	lw	s2,16(sp)
f80016b0:	00c12983          	lw	s3,12(sp)
f80016b4:	00812a03          	lw	s4,8(sp)
f80016b8:	02010113          	add	sp,sp,32
f80016bc:	00008067          	ret

f80016c0 <_ZN4core3fmt9Formatter3pad17hf58a3ce2f8d352a7E>:
f80016c0:	fd010113          	add	sp,sp,-48
f80016c4:	02112623          	sw	ra,44(sp)
f80016c8:	02812423          	sw	s0,40(sp)
f80016cc:	02912223          	sw	s1,36(sp)
f80016d0:	03212023          	sw	s2,32(sp)
f80016d4:	01312e23          	sw	s3,28(sp)
f80016d8:	01412c23          	sw	s4,24(sp)
f80016dc:	01512a23          	sw	s5,20(sp)
f80016e0:	01612823          	sw	s6,16(sp)
f80016e4:	01712623          	sw	s7,12(sp)
f80016e8:	03010413          	add	s0,sp,48
f80016ec:	00052683          	lw	a3,0(a0)
f80016f0:	00852703          	lw	a4,8(a0)
f80016f4:	00e6e7b3          	or	a5,a3,a4
f80016f8:	00060493          	mv	s1,a2
f80016fc:	00058913          	mv	s2,a1
f8001700:	14078463          	beqz	a5,f8001848 <_ZN4core3fmt9Formatter3pad17hf58a3ce2f8d352a7E+0x188>
f8001704:	0c070263          	beqz	a4,f80017c8 <_ZN4core3fmt9Formatter3pad17hf58a3ce2f8d352a7E+0x108>
f8001708:	00c52703          	lw	a4,12(a0)
f800170c:	00990633          	add	a2,s2,s1
f8001710:	00000593          	li	a1,0
f8001714:	04070e63          	beqz	a4,f8001770 <_ZN4core3fmt9Formatter3pad17hf58a3ce2f8d352a7E+0xb0>
f8001718:	0e000793          	li	a5,224
f800171c:	0f000813          	li	a6,240
f8001720:	00090893          	mv	a7,s2
f8001724:	01c0006f          	j	f8001740 <_ZN4core3fmt9Formatter3pad17hf58a3ce2f8d352a7E+0x80>
f8001728:	00188293          	add	t0,a7,1
f800172c:	40b885b3          	sub	a1,a7,a1
f8001730:	fff70713          	add	a4,a4,-1
f8001734:	40b285b3          	sub	a1,t0,a1
f8001738:	00028893          	mv	a7,t0
f800173c:	02070c63          	beqz	a4,f8001774 <_ZN4core3fmt9Formatter3pad17hf58a3ce2f8d352a7E+0xb4>
f8001740:	08c88463          	beq	a7,a2,f80017c8 <_ZN4core3fmt9Formatter3pad17hf58a3ce2f8d352a7E+0x108>
f8001744:	00088283          	lb	t0,0(a7)
f8001748:	fe02d0e3          	bgez	t0,f8001728 <_ZN4core3fmt9Formatter3pad17hf58a3ce2f8d352a7E+0x68>
f800174c:	0ff2f293          	zext.b	t0,t0
f8001750:	00f2e863          	bltu	t0,a5,f8001760 <_ZN4core3fmt9Formatter3pad17hf58a3ce2f8d352a7E+0xa0>
f8001754:	0102ea63          	bltu	t0,a6,f8001768 <_ZN4core3fmt9Formatter3pad17hf58a3ce2f8d352a7E+0xa8>
f8001758:	00488293          	add	t0,a7,4
f800175c:	fd1ff06f          	j	f800172c <_ZN4core3fmt9Formatter3pad17hf58a3ce2f8d352a7E+0x6c>
f8001760:	00288293          	add	t0,a7,2
f8001764:	fc9ff06f          	j	f800172c <_ZN4core3fmt9Formatter3pad17hf58a3ce2f8d352a7E+0x6c>
f8001768:	00388293          	add	t0,a7,3
f800176c:	fc1ff06f          	j	f800172c <_ZN4core3fmt9Formatter3pad17hf58a3ce2f8d352a7E+0x6c>
f8001770:	00090293          	mv	t0,s2
f8001774:	04c28a63          	beq	t0,a2,f80017c8 <_ZN4core3fmt9Formatter3pad17hf58a3ce2f8d352a7E+0x108>
f8001778:	00028603          	lb	a2,0(t0)
f800177c:	00064663          	bltz	a2,f8001788 <_ZN4core3fmt9Formatter3pad17hf58a3ce2f8d352a7E+0xc8>
f8001780:	00059a63          	bnez	a1,f8001794 <_ZN4core3fmt9Formatter3pad17hf58a3ce2f8d352a7E+0xd4>
f8001784:	0340006f          	j	f80017b8 <_ZN4core3fmt9Formatter3pad17hf58a3ce2f8d352a7E+0xf8>
f8001788:	0ff67613          	zext.b	a2,a2
f800178c:	0e000713          	li	a4,224
f8001790:	02058463          	beqz	a1,f80017b8 <_ZN4core3fmt9Formatter3pad17hf58a3ce2f8d352a7E+0xf8>
f8001794:	0295f063          	bgeu	a1,s1,f80017b4 <_ZN4core3fmt9Formatter3pad17hf58a3ce2f8d352a7E+0xf4>
f8001798:	00b90633          	add	a2,s2,a1
f800179c:	00060603          	lb	a2,0(a2)
f80017a0:	fbf00713          	li	a4,-65
f80017a4:	00c74a63          	blt	a4,a2,f80017b8 <_ZN4core3fmt9Formatter3pad17hf58a3ce2f8d352a7E+0xf8>
f80017a8:	00000613          	li	a2,0
f80017ac:	00001a63          	bnez	zero,f80017c0 <_ZN4core3fmt9Formatter3pad17hf58a3ce2f8d352a7E+0x100>
f80017b0:	0180006f          	j	f80017c8 <_ZN4core3fmt9Formatter3pad17hf58a3ce2f8d352a7E+0x108>
f80017b4:	fe959ae3          	bne	a1,s1,f80017a8 <_ZN4core3fmt9Formatter3pad17hf58a3ce2f8d352a7E+0xe8>
f80017b8:	00090613          	mv	a2,s2
f80017bc:	00090663          	beqz	s2,f80017c8 <_ZN4core3fmt9Formatter3pad17hf58a3ce2f8d352a7E+0x108>
f80017c0:	00058493          	mv	s1,a1
f80017c4:	00060913          	mv	s2,a2
f80017c8:	08068063          	beqz	a3,f8001848 <_ZN4core3fmt9Formatter3pad17hf58a3ce2f8d352a7E+0x188>
f80017cc:	00452983          	lw	s3,4(a0)
f80017d0:	01000593          	li	a1,16
f80017d4:	04b4fa63          	bgeu	s1,a1,f8001828 <_ZN4core3fmt9Formatter3pad17hf58a3ce2f8d352a7E+0x168>
f80017d8:	00000593          	li	a1,0
f80017dc:	02048263          	beqz	s1,f8001800 <_ZN4core3fmt9Formatter3pad17hf58a3ce2f8d352a7E+0x140>
f80017e0:	00990633          	add	a2,s2,s1
f80017e4:	00090693          	mv	a3,s2
f80017e8:	00068703          	lb	a4,0(a3)
f80017ec:	fc072713          	slti	a4,a4,-64
f80017f0:	00174713          	xor	a4,a4,1
f80017f4:	00168693          	add	a3,a3,1
f80017f8:	00e585b3          	add	a1,a1,a4
f80017fc:	fec696e3          	bne	a3,a2,f80017e8 <_ZN4core3fmt9Formatter3pad17hf58a3ce2f8d352a7E+0x128>
f8001800:	0535f463          	bgeu	a1,s3,f8001848 <_ZN4core3fmt9Formatter3pad17hf58a3ce2f8d352a7E+0x188>
f8001804:	02054683          	lbu	a3,32(a0)
f8001808:	00000613          	li	a2,0
f800180c:	00100713          	li	a4,1
f8001810:	40b98ab3          	sub	s5,s3,a1
f8001814:	06d74a63          	blt	a4,a3,f8001888 <_ZN4core3fmt9Formatter3pad17hf58a3ce2f8d352a7E+0x1c8>
f8001818:	08068263          	beqz	a3,f800189c <_ZN4core3fmt9Formatter3pad17hf58a3ce2f8d352a7E+0x1dc>
f800181c:	000a8613          	mv	a2,s5
f8001820:	00000a93          	li	s5,0
f8001824:	0780006f          	j	f800189c <_ZN4core3fmt9Formatter3pad17hf58a3ce2f8d352a7E+0x1dc>
f8001828:	00050a13          	mv	s4,a0
f800182c:	00090513          	mv	a0,s2
f8001830:	00048593          	mv	a1,s1
f8001834:	00000097          	auipc	ra,0x0
f8001838:	22c080e7          	jalr	556(ra) # f8001a60 <_ZN4core3str5count14do_count_chars17h214fa3d55315e1f9E>
f800183c:	00050593          	mv	a1,a0
f8001840:	000a0513          	mv	a0,s4
f8001844:	fd35e0e3          	bltu	a1,s3,f8001804 <_ZN4core3fmt9Formatter3pad17hf58a3ce2f8d352a7E+0x144>
f8001848:	01852583          	lw	a1,24(a0)
f800184c:	01452503          	lw	a0,20(a0)
f8001850:	00c5a303          	lw	t1,12(a1)
f8001854:	00090593          	mv	a1,s2
f8001858:	00048613          	mv	a2,s1
f800185c:	02c12083          	lw	ra,44(sp)
f8001860:	02812403          	lw	s0,40(sp)
f8001864:	02412483          	lw	s1,36(sp)
f8001868:	02012903          	lw	s2,32(sp)
f800186c:	01c12983          	lw	s3,28(sp)
f8001870:	01812a03          	lw	s4,24(sp)
f8001874:	01412a83          	lw	s5,20(sp)
f8001878:	01012b03          	lw	s6,16(sp)
f800187c:	00c12b83          	lw	s7,12(sp)
f8001880:	03010113          	add	sp,sp,48
f8001884:	00030067          	jr	t1
f8001888:	00200593          	li	a1,2
f800188c:	00b69863          	bne	a3,a1,f800189c <_ZN4core3fmt9Formatter3pad17hf58a3ce2f8d352a7E+0x1dc>
f8001890:	001ad613          	srl	a2,s5,0x1
f8001894:	001a8a93          	add	s5,s5,1 # 110001 <.Lline_table_start1+0x10f511>
f8001898:	001ada93          	srl	s5,s5,0x1
f800189c:	01452983          	lw	s3,20(a0)
f80018a0:	01852b03          	lw	s6,24(a0)
f80018a4:	01052a03          	lw	s4,16(a0)
f80018a8:	00160b93          	add	s7,a2,1
f80018ac:	fffb8b93          	add	s7,s7,-1
f80018b0:	020b8063          	beqz	s7,f80018d0 <_ZN4core3fmt9Formatter3pad17hf58a3ce2f8d352a7E+0x210>
f80018b4:	010b2603          	lw	a2,16(s6)
f80018b8:	00098513          	mv	a0,s3
f80018bc:	000a0593          	mv	a1,s4
f80018c0:	000600e7          	jalr	a2
f80018c4:	fe0504e3          	beqz	a0,f80018ac <_ZN4core3fmt9Formatter3pad17hf58a3ce2f8d352a7E+0x1ec>
f80018c8:	00100513          	li	a0,1
f80018cc:	05c0006f          	j	f8001928 <_ZN4core3fmt9Formatter3pad17hf58a3ce2f8d352a7E+0x268>
f80018d0:	00cb2683          	lw	a3,12(s6)
f80018d4:	00098513          	mv	a0,s3
f80018d8:	00090593          	mv	a1,s2
f80018dc:	00048613          	mv	a2,s1
f80018e0:	000680e7          	jalr	a3
f80018e4:	00050593          	mv	a1,a0
f80018e8:	00100513          	li	a0,1
f80018ec:	02059e63          	bnez	a1,f8001928 <_ZN4core3fmt9Formatter3pad17hf58a3ce2f8d352a7E+0x268>
f80018f0:	41500933          	neg	s2,s5
f80018f4:	fff00b93          	li	s7,-1
f80018f8:	fff00493          	li	s1,-1
f80018fc:	00990533          	add	a0,s2,s1
f8001900:	03750063          	beq	a0,s7,f8001920 <_ZN4core3fmt9Formatter3pad17hf58a3ce2f8d352a7E+0x260>
f8001904:	010b2603          	lw	a2,16(s6)
f8001908:	00098513          	mv	a0,s3
f800190c:	000a0593          	mv	a1,s4
f8001910:	000600e7          	jalr	a2
f8001914:	00148493          	add	s1,s1,1
f8001918:	fe0502e3          	beqz	a0,f80018fc <_ZN4core3fmt9Formatter3pad17hf58a3ce2f8d352a7E+0x23c>
f800191c:	0080006f          	j	f8001924 <_ZN4core3fmt9Formatter3pad17hf58a3ce2f8d352a7E+0x264>
f8001920:	000a8493          	mv	s1,s5
f8001924:	0154b533          	sltu	a0,s1,s5
f8001928:	02c12083          	lw	ra,44(sp)
f800192c:	02812403          	lw	s0,40(sp)
f8001930:	02412483          	lw	s1,36(sp)
f8001934:	02012903          	lw	s2,32(sp)
f8001938:	01c12983          	lw	s3,28(sp)
f800193c:	01812a03          	lw	s4,24(sp)
f8001940:	01412a83          	lw	s5,20(sp)
f8001944:	01012b03          	lw	s6,16(sp)
f8001948:	00c12b83          	lw	s7,12(sp)
f800194c:	03010113          	add	sp,sp,48
f8001950:	00008067          	ret

f8001954 <_ZN42_$LT$str$u20$as$u20$core..fmt..Display$GT$3fmt17h340fe15002b13356E>:
f8001954:	ff010113          	add	sp,sp,-16
f8001958:	00112623          	sw	ra,12(sp)
f800195c:	00812423          	sw	s0,8(sp)
f8001960:	01010413          	add	s0,sp,16
f8001964:	00058693          	mv	a3,a1
f8001968:	00050593          	mv	a1,a0
f800196c:	00060513          	mv	a0,a2
f8001970:	00068613          	mv	a2,a3
f8001974:	00c12083          	lw	ra,12(sp)
f8001978:	00812403          	lw	s0,8(sp)
f800197c:	01010113          	add	sp,sp,16
f8001980:	00000317          	auipc	t1,0x0
f8001984:	d4030067          	jr	-704(t1) # f80016c0 <_ZN4core3fmt9Formatter3pad17hf58a3ce2f8d352a7E>

f8001988 <_ZN4core5slice5index24slice_end_index_len_fail17h62eef51decd7a014E>:
f8001988:	fc010113          	add	sp,sp,-64
f800198c:	02112e23          	sw	ra,60(sp)
f8001990:	02812c23          	sw	s0,56(sp)
f8001994:	04010413          	add	s0,sp,64
f8001998:	fca42423          	sw	a0,-56(s0)
f800199c:	fcb42623          	sw	a1,-52(s0)
f80019a0:	fc840513          	add	a0,s0,-56
f80019a4:	fea42423          	sw	a0,-24(s0)
f80019a8:	f8002537          	lui	a0,0xf8002
f80019ac:	ed050513          	add	a0,a0,-304 # f8001ed0 <_ZN4core3fmt3num3imp52_$LT$impl$u20$core..fmt..Display$u20$for$u20$u32$GT$3fmt17hab9e0058d5fc57a4E>
f80019b0:	fea42623          	sw	a0,-20(s0)
f80019b4:	fcc40593          	add	a1,s0,-52
f80019b8:	feb42823          	sw	a1,-16(s0)
f80019bc:	fea42a23          	sw	a0,-12(s0)
f80019c0:	f8002537          	lui	a0,0xf8002
f80019c4:	60850513          	add	a0,a0,1544 # f8002608 <.Lanon.2fd07056217eab97579f900aab253104.345>
f80019c8:	fca42823          	sw	a0,-48(s0)
f80019cc:	00200513          	li	a0,2
f80019d0:	fca42a23          	sw	a0,-44(s0)
f80019d4:	fe042023          	sw	zero,-32(s0)
f80019d8:	fe840593          	add	a1,s0,-24
f80019dc:	fcb42c23          	sw	a1,-40(s0)
f80019e0:	fca42e23          	sw	a0,-36(s0)
f80019e4:	fd040513          	add	a0,s0,-48
f80019e8:	00060593          	mv	a1,a2
f80019ec:	fffff097          	auipc	ra,0xfffff
f80019f0:	548080e7          	jalr	1352(ra) # f8000f34 <_ZN4core9panicking9panic_fmt17h97dfbdb4ac49634eE>

f80019f4 <_ZN4core5slice5index22slice_index_order_fail17hea267c10579e6abbE>:
f80019f4:	fc010113          	add	sp,sp,-64
f80019f8:	02112e23          	sw	ra,60(sp)
f80019fc:	02812c23          	sw	s0,56(sp)
f8001a00:	04010413          	add	s0,sp,64
f8001a04:	fca42423          	sw	a0,-56(s0)
f8001a08:	fcb42623          	sw	a1,-52(s0)
f8001a0c:	fc840513          	add	a0,s0,-56
f8001a10:	fea42423          	sw	a0,-24(s0)
f8001a14:	f8002537          	lui	a0,0xf8002
f8001a18:	ed050513          	add	a0,a0,-304 # f8001ed0 <_ZN4core3fmt3num3imp52_$LT$impl$u20$core..fmt..Display$u20$for$u20$u32$GT$3fmt17hab9e0058d5fc57a4E>
f8001a1c:	fea42623          	sw	a0,-20(s0)
f8001a20:	fcc40593          	add	a1,s0,-52
f8001a24:	feb42823          	sw	a1,-16(s0)
f8001a28:	fea42a23          	sw	a0,-12(s0)
f8001a2c:	f8002537          	lui	a0,0xf8002
f8001a30:	63c50513          	add	a0,a0,1596 # f800263c <.Lanon.2fd07056217eab97579f900aab253104.348>
f8001a34:	fca42823          	sw	a0,-48(s0)
f8001a38:	00200513          	li	a0,2
f8001a3c:	fca42a23          	sw	a0,-44(s0)
f8001a40:	fe042023          	sw	zero,-32(s0)
f8001a44:	fe840593          	add	a1,s0,-24
f8001a48:	fcb42c23          	sw	a1,-40(s0)
f8001a4c:	fca42e23          	sw	a0,-36(s0)
f8001a50:	fd040513          	add	a0,s0,-48
f8001a54:	00060593          	mv	a1,a2
f8001a58:	fffff097          	auipc	ra,0xfffff
f8001a5c:	4dc080e7          	jalr	1244(ra) # f8000f34 <_ZN4core9panicking9panic_fmt17h97dfbdb4ac49634eE>

f8001a60 <_ZN4core3str5count14do_count_chars17h214fa3d55315e1f9E>:
f8001a60:	ff010113          	add	sp,sp,-16
f8001a64:	00112623          	sw	ra,12(sp)
f8001a68:	00812423          	sw	s0,8(sp)
f8001a6c:	01010413          	add	s0,sp,16
f8001a70:	00050613          	mv	a2,a0
f8001a74:	00350693          	add	a3,a0,3
f8001a78:	ffc6f693          	and	a3,a3,-4
f8001a7c:	40a682b3          	sub	t0,a3,a0
f8001a80:	1655e263          	bltu	a1,t0,f8001be4 <_ZN4core3str5count14do_count_chars17h214fa3d55315e1f9E+0x184>
f8001a84:	40558733          	sub	a4,a1,t0
f8001a88:	00275893          	srl	a7,a4,0x2
f8001a8c:	14088c63          	beqz	a7,f8001be4 <_ZN4core3str5count14do_count_chars17h214fa3d55315e1f9E+0x184>
f8001a90:	005602b3          	add	t0,a2,t0
f8001a94:	00377593          	and	a1,a4,3
f8001a98:	00000513          	li	a0,0
f8001a9c:	00c68e63          	beq	a3,a2,f8001ab8 <_ZN4core3str5count14do_count_chars17h214fa3d55315e1f9E+0x58>
f8001aa0:	00060783          	lb	a5,0(a2)
f8001aa4:	fc07a793          	slti	a5,a5,-64
f8001aa8:	0017c793          	xor	a5,a5,1
f8001aac:	00160613          	add	a2,a2,1
f8001ab0:	00f50533          	add	a0,a0,a5
f8001ab4:	fe5616e3          	bne	a2,t0,f8001aa0 <_ZN4core3str5count14do_count_chars17h214fa3d55315e1f9E+0x40>
f8001ab8:	00000793          	li	a5,0
f8001abc:	02058663          	beqz	a1,f8001ae8 <_ZN4core3str5count14do_count_chars17h214fa3d55315e1f9E+0x88>
f8001ac0:	ffc77713          	and	a4,a4,-4
f8001ac4:	00e28633          	add	a2,t0,a4
f8001ac8:	00d706b3          	add	a3,a4,a3
f8001acc:	00b685b3          	add	a1,a3,a1
f8001ad0:	00060683          	lb	a3,0(a2)
f8001ad4:	fc06a693          	slti	a3,a3,-64
f8001ad8:	0016c693          	xor	a3,a3,1
f8001adc:	00160613          	add	a2,a2,1
f8001ae0:	00d787b3          	add	a5,a5,a3
f8001ae4:	feb616e3          	bne	a2,a1,f8001ad0 <_ZN4core3str5count14do_count_chars17h214fa3d55315e1f9E+0x70>
f8001ae8:	010105b7          	lui	a1,0x1010
f8001aec:	10158613          	add	a2,a1,257 # 1010101 <.Lline_table_start1+0x100f611>
f8001af0:	00ff05b7          	lui	a1,0xff0
f8001af4:	0ff58593          	add	a1,a1,255 # ff00ff <.Lline_table_start1+0xfef60f>
f8001af8:	00a78533          	add	a0,a5,a0
f8001afc:	00400793          	li	a5,4
f8001b00:	0340006f          	j	f8001b34 <_ZN4core3str5count14do_count_chars17h214fa3d55315e1f9E+0xd4>
f8001b04:	005702b3          	add	t0,a4,t0
f8001b08:	410688b3          	sub	a7,a3,a6
f8001b0c:	00387313          	and	t1,a6,3
f8001b10:	00b3fe33          	and	t3,t2,a1
f8001b14:	0083d393          	srl	t2,t2,0x8
f8001b18:	00b3f3b3          	and	t2,t2,a1
f8001b1c:	01c383b3          	add	t2,t2,t3
f8001b20:	01039e13          	sll	t3,t2,0x10
f8001b24:	007e03b3          	add	t2,t3,t2
f8001b28:	0103d393          	srl	t2,t2,0x10
f8001b2c:	00a38533          	add	a0,t2,a0
f8001b30:	0e031463          	bnez	t1,f8001c18 <_ZN4core3str5count14do_count_chars17h214fa3d55315e1f9E+0x1b8>
f8001b34:	0c088a63          	beqz	a7,f8001c08 <_ZN4core3str5count14do_count_chars17h214fa3d55315e1f9E+0x1a8>
f8001b38:	00088693          	mv	a3,a7
f8001b3c:	00028713          	mv	a4,t0
f8001b40:	0c000893          	li	a7,192
f8001b44:	00068813          	mv	a6,a3
f8001b48:	0116e463          	bltu	a3,a7,f8001b50 <_ZN4core3str5count14do_count_chars17h214fa3d55315e1f9E+0xf0>
f8001b4c:	0c000813          	li	a6,192
f8001b50:	00281293          	sll	t0,a6,0x2
f8001b54:	00000393          	li	t2,0
f8001b58:	faf6e6e3          	bltu	a3,a5,f8001b04 <_ZN4core3str5count14do_count_chars17h214fa3d55315e1f9E+0xa4>
f8001b5c:	3f02f893          	and	a7,t0,1008
f8001b60:	011708b3          	add	a7,a4,a7
f8001b64:	00070313          	mv	t1,a4
f8001b68:	00032e03          	lw	t3,0(t1)
f8001b6c:	fffe4e93          	not	t4,t3
f8001b70:	007ede93          	srl	t4,t4,0x7
f8001b74:	006e5e13          	srl	t3,t3,0x6
f8001b78:	00432f03          	lw	t5,4(t1)
f8001b7c:	01ceee33          	or	t3,t4,t3
f8001b80:	00ce7e33          	and	t3,t3,a2
f8001b84:	007e03b3          	add	t2,t3,t2
f8001b88:	ffff4e13          	not	t3,t5
f8001b8c:	007e5e13          	srl	t3,t3,0x7
f8001b90:	00832e83          	lw	t4,8(t1)
f8001b94:	006f5f13          	srl	t5,t5,0x6
f8001b98:	01ee6e33          	or	t3,t3,t5
f8001b9c:	00ce7e33          	and	t3,t3,a2
f8001ba0:	fffecf13          	not	t5,t4
f8001ba4:	007f5f13          	srl	t5,t5,0x7
f8001ba8:	006ede93          	srl	t4,t4,0x6
f8001bac:	01df6eb3          	or	t4,t5,t4
f8001bb0:	00c32f03          	lw	t5,12(t1)
f8001bb4:	00cefeb3          	and	t4,t4,a2
f8001bb8:	01ce8e33          	add	t3,t4,t3
f8001bbc:	007e03b3          	add	t2,t3,t2
f8001bc0:	ffff4e13          	not	t3,t5
f8001bc4:	007e5e13          	srl	t3,t3,0x7
f8001bc8:	006f5e93          	srl	t4,t5,0x6
f8001bcc:	01de6e33          	or	t3,t3,t4
f8001bd0:	00ce7e33          	and	t3,t3,a2
f8001bd4:	01030313          	add	t1,t1,16
f8001bd8:	007e03b3          	add	t2,t3,t2
f8001bdc:	f91316e3          	bne	t1,a7,f8001b68 <_ZN4core3str5count14do_count_chars17h214fa3d55315e1f9E+0x108>
f8001be0:	f25ff06f          	j	f8001b04 <_ZN4core3str5count14do_count_chars17h214fa3d55315e1f9E+0xa4>
f8001be4:	00000513          	li	a0,0
f8001be8:	02058063          	beqz	a1,f8001c08 <_ZN4core3str5count14do_count_chars17h214fa3d55315e1f9E+0x1a8>
f8001bec:	00b605b3          	add	a1,a2,a1
f8001bf0:	00060683          	lb	a3,0(a2)
f8001bf4:	fc06a693          	slti	a3,a3,-64
f8001bf8:	0016c693          	xor	a3,a3,1
f8001bfc:	00160613          	add	a2,a2,1
f8001c00:	00d50533          	add	a0,a0,a3
f8001c04:	feb616e3          	bne	a2,a1,f8001bf0 <_ZN4core3str5count14do_count_chars17h214fa3d55315e1f9E+0x190>
f8001c08:	00c12083          	lw	ra,12(sp)
f8001c0c:	00812403          	lw	s0,8(sp)
f8001c10:	01010113          	add	sp,sp,16
f8001c14:	00008067          	ret
f8001c18:	00000793          	li	a5,0
f8001c1c:	0fc87813          	and	a6,a6,252
f8001c20:	00281813          	sll	a6,a6,0x2
f8001c24:	01070733          	add	a4,a4,a6
f8001c28:	0c06b813          	sltiu	a6,a3,192
f8001c2c:	41000833          	neg	a6,a6
f8001c30:	0106f6b3          	and	a3,a3,a6
f8001c34:	0036f693          	and	a3,a3,3
f8001c38:	00269693          	sll	a3,a3,0x2
f8001c3c:	00072803          	lw	a6,0(a4)
f8001c40:	00470713          	add	a4,a4,4
f8001c44:	fff84893          	not	a7,a6
f8001c48:	0078d893          	srl	a7,a7,0x7
f8001c4c:	00685813          	srl	a6,a6,0x6
f8001c50:	0108e833          	or	a6,a7,a6
f8001c54:	00c87833          	and	a6,a6,a2
f8001c58:	ffc68693          	add	a3,a3,-4
f8001c5c:	00f807b3          	add	a5,a6,a5
f8001c60:	fc069ee3          	bnez	a3,f8001c3c <_ZN4core3str5count14do_count_chars17h214fa3d55315e1f9E+0x1dc>
f8001c64:	00b7f633          	and	a2,a5,a1
f8001c68:	0087d793          	srl	a5,a5,0x8
f8001c6c:	00b7f5b3          	and	a1,a5,a1
f8001c70:	00c585b3          	add	a1,a1,a2
f8001c74:	01059613          	sll	a2,a1,0x10
f8001c78:	00b605b3          	add	a1,a2,a1
f8001c7c:	0105d593          	srl	a1,a1,0x10
f8001c80:	00a58533          	add	a0,a1,a0
f8001c84:	00c12083          	lw	ra,12(sp)
f8001c88:	00812403          	lw	s0,8(sp)
f8001c8c:	01010113          	add	sp,sp,16
f8001c90:	00008067          	ret

f8001c94 <_ZN4core3fmt3num3imp7fmt_u3217h98b96c0c6138cb61E>:
f8001c94:	fa010113          	add	sp,sp,-96
f8001c98:	04112e23          	sw	ra,92(sp)
f8001c9c:	04812c23          	sw	s0,88(sp)
f8001ca0:	04912a23          	sw	s1,84(sp)
f8001ca4:	05212823          	sw	s2,80(sp)
f8001ca8:	05312623          	sw	s3,76(sp)
f8001cac:	05412423          	sw	s4,72(sp)
f8001cb0:	05512223          	sw	s5,68(sp)
f8001cb4:	05612023          	sw	s6,64(sp)
f8001cb8:	03712e23          	sw	s7,60(sp)
f8001cbc:	03812c23          	sw	s8,56(sp)
f8001cc0:	03912a23          	sw	s9,52(sp)
f8001cc4:	03a12823          	sw	s10,48(sp)
f8001cc8:	03b12623          	sw	s11,44(sp)
f8001ccc:	06010413          	add	s0,sp,96
f8001cd0:	00060493          	mv	s1,a2
f8001cd4:	00058913          	mv	s2,a1
f8001cd8:	00050993          	mv	s3,a0
f8001cdc:	00455513          	srl	a0,a0,0x4
f8001ce0:	27100593          	li	a1,625
f8001ce4:	02700a93          	li	s5,39
f8001ce8:	02b57663          	bgeu	a0,a1,f8001d14 <_ZN4core3fmt3num3imp7fmt_u3217h98b96c0c6138cb61E+0x80>
f8001cec:	06300513          	li	a0,99
f8001cf0:	0f356663          	bltu	a0,s3,f8001ddc <_ZN4core3fmt3num3imp7fmt_u3217h98b96c0c6138cb61E+0x148>
f8001cf4:	00a00513          	li	a0,10
f8001cf8:	14a9f463          	bgeu	s3,a0,f8001e40 <_ZN4core3fmt3num3imp7fmt_u3217h98b96c0c6138cb61E+0x1ac>
f8001cfc:	fffa8a93          	add	s5,s5,-1
f8001d00:	fa540513          	add	a0,s0,-91
f8001d04:	01550533          	add	a0,a0,s5
f8001d08:	0309e593          	or	a1,s3,48
f8001d0c:	00b50023          	sb	a1,0(a0)
f8001d10:	15c0006f          	j	f8001e6c <_ZN4core3fmt3num3imp7fmt_u3217h98b96c0c6138cb61E+0x1d8>
f8001d14:	fa942023          	sw	s1,-96(s0)
f8001d18:	00000b13          	li	s6,0
f8001d1c:	fc840b93          	add	s7,s0,-56
f8001d20:	fca40c13          	add	s8,s0,-54
f8001d24:	00002537          	lui	a0,0x2
f8001d28:	71050a13          	add	s4,a0,1808 # 2710 <.Lline_table_start1+0x1c20>
f8001d2c:	f8002537          	lui	a0,0xf8002
f8001d30:	51c50c93          	add	s9,a0,1308 # f800251c <.Lanon.2fd07056217eab97579f900aab253104.317>
f8001d34:	05f5e537          	lui	a0,0x5f5e
f8001d38:	0ff50d13          	add	s10,a0,255 # 5f5e0ff <.Lline_table_start1+0x5f5d60f>
f8001d3c:	00098a93          	mv	s5,s3
f8001d40:	00098513          	mv	a0,s3
f8001d44:	000a0593          	mv	a1,s4
f8001d48:	00000097          	auipc	ra,0x0
f8001d4c:	490080e7          	jalr	1168(ra) # f80021d8 <__udivsi3>
f8001d50:	00050993          	mv	s3,a0
f8001d54:	000a0593          	mv	a1,s4
f8001d58:	00000097          	auipc	ra,0x0
f8001d5c:	208080e7          	jalr	520(ra) # f8001f60 <__mulsi3>
f8001d60:	40aa8db3          	sub	s11,s5,a0
f8001d64:	010d9513          	sll	a0,s11,0x10
f8001d68:	01055513          	srl	a0,a0,0x10
f8001d6c:	06400593          	li	a1,100
f8001d70:	00000097          	auipc	ra,0x0
f8001d74:	468080e7          	jalr	1128(ra) # f80021d8 <__udivsi3>
f8001d78:	00151493          	sll	s1,a0,0x1
f8001d7c:	06400593          	li	a1,100
f8001d80:	00000097          	auipc	ra,0x0
f8001d84:	1e0080e7          	jalr	480(ra) # f8001f60 <__mulsi3>
f8001d88:	40ad8533          	sub	a0,s11,a0
f8001d8c:	01151513          	sll	a0,a0,0x11
f8001d90:	009c84b3          	add	s1,s9,s1
f8001d94:	0014c583          	lbu	a1,1(s1)
f8001d98:	01055513          	srl	a0,a0,0x10
f8001d9c:	016b8633          	add	a2,s7,s6
f8001da0:	0004c683          	lbu	a3,0(s1)
f8001da4:	00b600a3          	sb	a1,1(a2)
f8001da8:	00ac8533          	add	a0,s9,a0
f8001dac:	00154583          	lbu	a1,1(a0)
f8001db0:	00054503          	lbu	a0,0(a0)
f8001db4:	00d60023          	sb	a3,0(a2)
f8001db8:	016c0633          	add	a2,s8,s6
f8001dbc:	00b600a3          	sb	a1,1(a2)
f8001dc0:	00a60023          	sb	a0,0(a2)
f8001dc4:	ffcb0b13          	add	s6,s6,-4
f8001dc8:	f75d6ae3          	bltu	s10,s5,f8001d3c <_ZN4core3fmt3num3imp7fmt_u3217h98b96c0c6138cb61E+0xa8>
f8001dcc:	027b0a93          	add	s5,s6,39
f8001dd0:	fa042483          	lw	s1,-96(s0)
f8001dd4:	06300513          	li	a0,99
f8001dd8:	f1357ee3          	bgeu	a0,s3,f8001cf4 <_ZN4core3fmt3num3imp7fmt_u3217h98b96c0c6138cb61E+0x60>
f8001ddc:	01099513          	sll	a0,s3,0x10
f8001de0:	01055513          	srl	a0,a0,0x10
f8001de4:	06400593          	li	a1,100
f8001de8:	00000097          	auipc	ra,0x0
f8001dec:	3f0080e7          	jalr	1008(ra) # f80021d8 <__udivsi3>
f8001df0:	00050a13          	mv	s4,a0
f8001df4:	06400593          	li	a1,100
f8001df8:	00000097          	auipc	ra,0x0
f8001dfc:	168080e7          	jalr	360(ra) # f8001f60 <__mulsi3>
f8001e00:	40a98533          	sub	a0,s3,a0
f8001e04:	01151513          	sll	a0,a0,0x11
f8001e08:	01055513          	srl	a0,a0,0x10
f8001e0c:	ffea8a93          	add	s5,s5,-2
f8001e10:	f80025b7          	lui	a1,0xf8002
f8001e14:	51c58593          	add	a1,a1,1308 # f800251c <.Lanon.2fd07056217eab97579f900aab253104.317>
f8001e18:	00a58533          	add	a0,a1,a0
f8001e1c:	00154583          	lbu	a1,1(a0)
f8001e20:	00054503          	lbu	a0,0(a0)
f8001e24:	fa540613          	add	a2,s0,-91
f8001e28:	01560633          	add	a2,a2,s5
f8001e2c:	00b600a3          	sb	a1,1(a2)
f8001e30:	00a60023          	sb	a0,0(a2)
f8001e34:	000a0993          	mv	s3,s4
f8001e38:	00a00513          	li	a0,10
f8001e3c:	ecaa60e3          	bltu	s4,a0,f8001cfc <_ZN4core3fmt3num3imp7fmt_u3217h98b96c0c6138cb61E+0x68>
f8001e40:	00199993          	sll	s3,s3,0x1
f8001e44:	ffea8a93          	add	s5,s5,-2
f8001e48:	f8002537          	lui	a0,0xf8002
f8001e4c:	51c50513          	add	a0,a0,1308 # f800251c <.Lanon.2fd07056217eab97579f900aab253104.317>
f8001e50:	01350533          	add	a0,a0,s3
f8001e54:	00154583          	lbu	a1,1(a0)
f8001e58:	00054503          	lbu	a0,0(a0)
f8001e5c:	fa540613          	add	a2,s0,-91
f8001e60:	01560633          	add	a2,a2,s5
f8001e64:	00b600a3          	sb	a1,1(a2)
f8001e68:	00a60023          	sb	a0,0(a2)
f8001e6c:	fa540713          	add	a4,s0,-91
f8001e70:	01570733          	add	a4,a4,s5
f8001e74:	02700513          	li	a0,39
f8001e78:	415507b3          	sub	a5,a0,s5
f8001e7c:	00100613          	li	a2,1
f8001e80:	00048513          	mv	a0,s1
f8001e84:	00090593          	mv	a1,s2
f8001e88:	00000693          	li	a3,0
f8001e8c:	fffff097          	auipc	ra,0xfffff
f8001e90:	430080e7          	jalr	1072(ra) # f80012bc <_ZN4core3fmt9Formatter12pad_integral17h4be4a1cb244d4f1cE>
f8001e94:	05c12083          	lw	ra,92(sp)
f8001e98:	05812403          	lw	s0,88(sp)
f8001e9c:	05412483          	lw	s1,84(sp)
f8001ea0:	05012903          	lw	s2,80(sp)
f8001ea4:	04c12983          	lw	s3,76(sp)
f8001ea8:	04812a03          	lw	s4,72(sp)
f8001eac:	04412a83          	lw	s5,68(sp)
f8001eb0:	04012b03          	lw	s6,64(sp)
f8001eb4:	03c12b83          	lw	s7,60(sp)
f8001eb8:	03812c03          	lw	s8,56(sp)
f8001ebc:	03412c83          	lw	s9,52(sp)
f8001ec0:	03012d03          	lw	s10,48(sp)
f8001ec4:	02c12d83          	lw	s11,44(sp)
f8001ec8:	06010113          	add	sp,sp,96
f8001ecc:	00008067          	ret

f8001ed0 <_ZN4core3fmt3num3imp52_$LT$impl$u20$core..fmt..Display$u20$for$u20$u32$GT$3fmt17hab9e0058d5fc57a4E>:
f8001ed0:	ff010113          	add	sp,sp,-16
f8001ed4:	00112623          	sw	ra,12(sp)
f8001ed8:	00812423          	sw	s0,8(sp)
f8001edc:	01010413          	add	s0,sp,16
f8001ee0:	00052503          	lw	a0,0(a0)
f8001ee4:	00058613          	mv	a2,a1
f8001ee8:	00100593          	li	a1,1
f8001eec:	00c12083          	lw	ra,12(sp)
f8001ef0:	00812403          	lw	s0,8(sp)
f8001ef4:	01010113          	add	sp,sp,16
f8001ef8:	00000317          	auipc	t1,0x0
f8001efc:	d9c30067          	jr	-612(t1) # f8001c94 <_ZN4core3fmt3num3imp7fmt_u3217h98b96c0c6138cb61E>

f8001f00 <_ZN42_$LT$$RF$T$u20$as$u20$core..fmt..Debug$GT$3fmt17h27797dbcdede635bE>:
f8001f00:	ff010113          	add	sp,sp,-16
f8001f04:	00112623          	sw	ra,12(sp)
f8001f08:	00812423          	sw	s0,8(sp)
f8001f0c:	01010413          	add	s0,sp,16
f8001f10:	00452603          	lw	a2,4(a0)
f8001f14:	00052503          	lw	a0,0(a0)
f8001f18:	00c62303          	lw	t1,12(a2)
f8001f1c:	00c12083          	lw	ra,12(sp)
f8001f20:	00812403          	lw	s0,8(sp)
f8001f24:	01010113          	add	sp,sp,16
f8001f28:	00030067          	jr	t1

f8001f2c <_ZN44_$LT$$RF$T$u20$as$u20$core..fmt..Display$GT$3fmt17hb2d97efcf68fd173E>:
f8001f2c:	ff010113          	add	sp,sp,-16
f8001f30:	00112623          	sw	ra,12(sp)
f8001f34:	00812423          	sw	s0,8(sp)
f8001f38:	01010413          	add	s0,sp,16
f8001f3c:	00052683          	lw	a3,0(a0)
f8001f40:	00452603          	lw	a2,4(a0)
f8001f44:	00058513          	mv	a0,a1
f8001f48:	00068593          	mv	a1,a3
f8001f4c:	00c12083          	lw	ra,12(sp)
f8001f50:	00812403          	lw	s0,8(sp)
f8001f54:	01010113          	add	sp,sp,16
f8001f58:	fffff317          	auipc	t1,0xfffff
f8001f5c:	76830067          	jr	1896(t1) # f80016c0 <_ZN4core3fmt9Formatter3pad17hf58a3ce2f8d352a7E>

f8001f60 <__mulsi3>:
f8001f60:	ff010113          	add	sp,sp,-16
f8001f64:	00112623          	sw	ra,12(sp)
f8001f68:	00812423          	sw	s0,8(sp)
f8001f6c:	01010413          	add	s0,sp,16
f8001f70:	00000613          	li	a2,0
f8001f74:	02050063          	beqz	a0,f8001f94 <__mulsi3+0x34>
f8001f78:	01f51693          	sll	a3,a0,0x1f
f8001f7c:	41f6d693          	sra	a3,a3,0x1f
f8001f80:	00b6f6b3          	and	a3,a3,a1
f8001f84:	00c68633          	add	a2,a3,a2
f8001f88:	00155513          	srl	a0,a0,0x1
f8001f8c:	00159593          	sll	a1,a1,0x1
f8001f90:	fe0514e3          	bnez	a0,f8001f78 <__mulsi3+0x18>
f8001f94:	00060513          	mv	a0,a2
f8001f98:	00c12083          	lw	ra,12(sp)
f8001f9c:	00812403          	lw	s0,8(sp)
f8001fa0:	01010113          	add	sp,sp,16
f8001fa4:	00008067          	ret

f8001fa8 <_ZN17compiler_builtins3int19specialized_div_rem11u32_div_rem17h86f903d3e615ce21E>:
f8001fa8:	ff010113          	add	sp,sp,-16
f8001fac:	00112623          	sw	ra,12(sp)
f8001fb0:	00812423          	sw	s0,8(sp)
f8001fb4:	01010413          	add	s0,sp,16
f8001fb8:	00050613          	mv	a2,a0
f8001fbc:	00b57663          	bgeu	a0,a1,f8001fc8 <_ZN17compiler_builtins3int19specialized_div_rem11u32_div_rem17h86f903d3e615ce21E+0x20>
f8001fc0:	00000513          	li	a0,0
f8001fc4:	1140006f          	j	f80020d8 <_ZN17compiler_builtins3int19specialized_div_rem11u32_div_rem17h86f903d3e615ce21E+0x130>
f8001fc8:	01065713          	srl	a4,a2,0x10
f8001fcc:	00b73533          	sltu	a0,a4,a1
f8001fd0:	00154693          	xor	a3,a0,1
f8001fd4:	00060513          	mv	a0,a2
f8001fd8:	00b76463          	bltu	a4,a1,f8001fe0 <_ZN17compiler_builtins3int19specialized_div_rem11u32_div_rem17h86f903d3e615ce21E+0x38>
f8001fdc:	00070513          	mv	a0,a4
f8001fe0:	00469693          	sll	a3,a3,0x4
f8001fe4:	00855793          	srl	a5,a0,0x8
f8001fe8:	00b7b733          	sltu	a4,a5,a1
f8001fec:	00174713          	xor	a4,a4,1
f8001ff0:	00b7e463          	bltu	a5,a1,f8001ff8 <_ZN17compiler_builtins3int19specialized_div_rem11u32_div_rem17h86f903d3e615ce21E+0x50>
f8001ff4:	00078513          	mv	a0,a5
f8001ff8:	00371713          	sll	a4,a4,0x3
f8001ffc:	00d766b3          	or	a3,a4,a3
f8002000:	00455793          	srl	a5,a0,0x4
f8002004:	00b7b733          	sltu	a4,a5,a1
f8002008:	00174713          	xor	a4,a4,1
f800200c:	00b7e463          	bltu	a5,a1,f8002014 <_ZN17compiler_builtins3int19specialized_div_rem11u32_div_rem17h86f903d3e615ce21E+0x6c>
f8002010:	00078513          	mv	a0,a5
f8002014:	00271713          	sll	a4,a4,0x2
f8002018:	00e6e6b3          	or	a3,a3,a4
f800201c:	00255793          	srl	a5,a0,0x2
f8002020:	00b7b733          	sltu	a4,a5,a1
f8002024:	00174713          	xor	a4,a4,1
f8002028:	00b7e463          	bltu	a5,a1,f8002030 <_ZN17compiler_builtins3int19specialized_div_rem11u32_div_rem17h86f903d3e615ce21E+0x88>
f800202c:	00078513          	mv	a0,a5
f8002030:	00171713          	sll	a4,a4,0x1
f8002034:	00155513          	srl	a0,a0,0x1
f8002038:	00b53533          	sltu	a0,a0,a1
f800203c:	00154513          	xor	a0,a0,1
f8002040:	00a76533          	or	a0,a4,a0
f8002044:	00a6e6b3          	or	a3,a3,a0
f8002048:	00d59733          	sll	a4,a1,a3
f800204c:	40e60633          	sub	a2,a2,a4
f8002050:	00100513          	li	a0,1
f8002054:	00d51533          	sll	a0,a0,a3
f8002058:	08b66063          	bltu	a2,a1,f80020d8 <_ZN17compiler_builtins3int19specialized_div_rem11u32_div_rem17h86f903d3e615ce21E+0x130>
f800205c:	00074663          	bltz	a4,f8002068 <_ZN17compiler_builtins3int19specialized_div_rem11u32_div_rem17h86f903d3e615ce21E+0xc0>
f8002060:	00050793          	mv	a5,a0
f8002064:	0380006f          	j	f800209c <_ZN17compiler_builtins3int19specialized_div_rem11u32_div_rem17h86f903d3e615ce21E+0xf4>
f8002068:	00175713          	srl	a4,a4,0x1
f800206c:	fff68693          	add	a3,a3,-1
f8002070:	00100793          	li	a5,1
f8002074:	00d797b3          	sll	a5,a5,a3
f8002078:	40e60833          	sub	a6,a2,a4
f800207c:	00082893          	slti	a7,a6,0
f8002080:	fff88893          	add	a7,a7,-1
f8002084:	00f8f8b3          	and	a7,a7,a5
f8002088:	00085463          	bgez	a6,f8002090 <_ZN17compiler_builtins3int19specialized_div_rem11u32_div_rem17h86f903d3e615ce21E+0xe8>
f800208c:	00060813          	mv	a6,a2
f8002090:	00a8e533          	or	a0,a7,a0
f8002094:	00080613          	mv	a2,a6
f8002098:	04b86063          	bltu	a6,a1,f80020d8 <_ZN17compiler_builtins3int19specialized_div_rem11u32_div_rem17h86f903d3e615ce21E+0x130>
f800209c:	fff78793          	add	a5,a5,-1 # 10ffff <.Lline_table_start1+0x10f50f>
f80020a0:	02068663          	beqz	a3,f80020cc <_ZN17compiler_builtins3int19specialized_div_rem11u32_div_rem17h86f903d3e615ce21E+0x124>
f80020a4:	00068593          	mv	a1,a3
f80020a8:	00c0006f          	j	f80020b4 <_ZN17compiler_builtins3int19specialized_div_rem11u32_div_rem17h86f903d3e615ce21E+0x10c>
f80020ac:	fff58593          	add	a1,a1,-1
f80020b0:	00058e63          	beqz	a1,f80020cc <_ZN17compiler_builtins3int19specialized_div_rem11u32_div_rem17h86f903d3e615ce21E+0x124>
f80020b4:	00161613          	sll	a2,a2,0x1
f80020b8:	40e60833          	sub	a6,a2,a4
f80020bc:	00180813          	add	a6,a6,1
f80020c0:	fe0846e3          	bltz	a6,f80020ac <_ZN17compiler_builtins3int19specialized_div_rem11u32_div_rem17h86f903d3e615ce21E+0x104>
f80020c4:	00080613          	mv	a2,a6
f80020c8:	fe5ff06f          	j	f80020ac <_ZN17compiler_builtins3int19specialized_div_rem11u32_div_rem17h86f903d3e615ce21E+0x104>
f80020cc:	00f677b3          	and	a5,a2,a5
f80020d0:	00a7e533          	or	a0,a5,a0
f80020d4:	00d65633          	srl	a2,a2,a3
f80020d8:	00060593          	mv	a1,a2
f80020dc:	00c12083          	lw	ra,12(sp)
f80020e0:	00812403          	lw	s0,8(sp)
f80020e4:	01010113          	add	sp,sp,16
f80020e8:	00008067          	ret

f80020ec <memset>:
f80020ec:	ff010113          	add	sp,sp,-16
f80020f0:	00112623          	sw	ra,12(sp)
f80020f4:	00812423          	sw	s0,8(sp)
f80020f8:	01010413          	add	s0,sp,16
f80020fc:	00c12083          	lw	ra,12(sp)
f8002100:	00812403          	lw	s0,8(sp)
f8002104:	01010113          	add	sp,sp,16
f8002108:	00000317          	auipc	t1,0x0
f800210c:	00830067          	jr	8(t1) # f8002110 <_ZN17compiler_builtins3mem6memset17hf0f6813a4d8faca9E>

f8002110 <_ZN17compiler_builtins3mem6memset17hf0f6813a4d8faca9E>:
f8002110:	fe010113          	add	sp,sp,-32
f8002114:	00112e23          	sw	ra,28(sp)
f8002118:	00812c23          	sw	s0,24(sp)
f800211c:	00912a23          	sw	s1,20(sp)
f8002120:	01212823          	sw	s2,16(sp)
f8002124:	01312623          	sw	s3,12(sp)
f8002128:	01412423          	sw	s4,8(sp)
f800212c:	02010413          	add	s0,sp,32
f8002130:	01000693          	li	a3,16
f8002134:	00058493          	mv	s1,a1
f8002138:	06d66463          	bltu	a2,a3,f80021a0 <_ZN17compiler_builtins3mem6memset17hf0f6813a4d8faca9E+0x90>
f800213c:	40a005b3          	neg	a1,a0
f8002140:	0035f593          	and	a1,a1,3
f8002144:	00b50933          	add	s2,a0,a1
f8002148:	00058a63          	beqz	a1,f800215c <_ZN17compiler_builtins3mem6memset17hf0f6813a4d8faca9E+0x4c>
f800214c:	00050693          	mv	a3,a0
f8002150:	00968023          	sb	s1,0(a3)
f8002154:	00168693          	add	a3,a3,1
f8002158:	ff26ece3          	bltu	a3,s2,f8002150 <_ZN17compiler_builtins3mem6memset17hf0f6813a4d8faca9E+0x40>
f800215c:	00050993          	mv	s3,a0
f8002160:	40b60a33          	sub	s4,a2,a1
f8002164:	0ff4f513          	zext.b	a0,s1
f8002168:	010105b7          	lui	a1,0x1010
f800216c:	10158593          	add	a1,a1,257 # 1010101 <.Lline_table_start1+0x100f611>
f8002170:	00000097          	auipc	ra,0x0
f8002174:	df0080e7          	jalr	-528(ra) # f8001f60 <__mulsi3>
f8002178:	ffca7613          	and	a2,s4,-4
f800217c:	00c905b3          	add	a1,s2,a2
f8002180:	00c05863          	blez	a2,f8002190 <_ZN17compiler_builtins3mem6memset17hf0f6813a4d8faca9E+0x80>
f8002184:	00a92023          	sw	a0,0(s2)
f8002188:	00490913          	add	s2,s2,4
f800218c:	feb96ce3          	bltu	s2,a1,f8002184 <_ZN17compiler_builtins3mem6memset17hf0f6813a4d8faca9E+0x74>
f8002190:	003a7613          	and	a2,s4,3
f8002194:	00098513          	mv	a0,s3
f8002198:	00061863          	bnez	a2,f80021a8 <_ZN17compiler_builtins3mem6memset17hf0f6813a4d8faca9E+0x98>
f800219c:	01c0006f          	j	f80021b8 <_ZN17compiler_builtins3mem6memset17hf0f6813a4d8faca9E+0xa8>
f80021a0:	00050593          	mv	a1,a0
f80021a4:	00060a63          	beqz	a2,f80021b8 <_ZN17compiler_builtins3mem6memset17hf0f6813a4d8faca9E+0xa8>
f80021a8:	00c58633          	add	a2,a1,a2
f80021ac:	00958023          	sb	s1,0(a1)
f80021b0:	00158593          	add	a1,a1,1
f80021b4:	fec5ece3          	bltu	a1,a2,f80021ac <_ZN17compiler_builtins3mem6memset17hf0f6813a4d8faca9E+0x9c>
f80021b8:	01c12083          	lw	ra,28(sp)
f80021bc:	01812403          	lw	s0,24(sp)
f80021c0:	01412483          	lw	s1,20(sp)
f80021c4:	01012903          	lw	s2,16(sp)
f80021c8:	00c12983          	lw	s3,12(sp)
f80021cc:	00812a03          	lw	s4,8(sp)
f80021d0:	02010113          	add	sp,sp,32
f80021d4:	00008067          	ret

f80021d8 <__udivsi3>:
f80021d8:	ff010113          	add	sp,sp,-16
f80021dc:	00112623          	sw	ra,12(sp)
f80021e0:	00812423          	sw	s0,8(sp)
f80021e4:	01010413          	add	s0,sp,16
f80021e8:	00c12083          	lw	ra,12(sp)
f80021ec:	00812403          	lw	s0,8(sp)
f80021f0:	01010113          	add	sp,sp,16
f80021f4:	00000317          	auipc	t1,0x0
f80021f8:	db430067          	jr	-588(t1) # f8001fa8 <_ZN17compiler_builtins3int19specialized_div_rem11u32_div_rem17h86f903d3e615ce21E>

f80021fc <.Lanon.fad58de7366495db4650cfefac2fcd61.0>:
f80021fc:	2928                	.2byte	0x2928

f80021fe <.Lanon.fad58de7366495db4650cfefac2fcd61.1>:
f80021fe:	6573552f          	.4byte	0x6573552f
f8002202:	7372                	.2byte	0x7372
f8002204:	61696c2f          	.4byte	0x61696c2f
f8002208:	2f6d                	.2byte	0x2f6d
f800220a:	7672                	.2byte	0x7672
f800220c:	6d66                	.2byte	0x6d66
f800220e:	2f32                	.2byte	0x2f32
f8002210:	2f6b6473          	.4byte	0x2f6b6473
f8002214:	7572                	.2byte	0x7572
f8002216:	722f7473          	.4byte	0x722f7473
f800221a:	6676                	.2byte	0x6676
f800221c:	2f6d                	.2byte	0x2f6d
f800221e:	2f637273          	.4byte	0x2f637273
f8002222:	6d6d6f63          	bltu	s10,s6,f8002900 <_etext+0x2b4>
f8002226:	6e61                	.2byte	0x6e61
f8002228:	5f64                	.2byte	0x5f64
f800222a:	696c                	.2byte	0x696c
f800222c:	722e7473          	.4byte	0x722e7473
f8002230:	00000073          	ecall

f8002234 <.Lanon.fad58de7366495db4650cfefac2fcd61.2>:
f8002234:	21fe                	.2byte	0x21fe
f8002236:	f800                	.2byte	0xf800
f8002238:	00000033          	add	zero,zero,zero
f800223c:	003a                	.2byte	0x3a
f800223e:	0000                	.2byte	0x0
f8002240:	0014                	.2byte	0x14
	...

f8002244 <.Lanon.fad58de7366495db4650cfefac2fcd61.3>:
f8002244:	0000                	.2byte	0x0
f8002246:	0000                	.2byte	0x0
f8002248:	0000                	.2byte	0x0
f800224a:	bf00                	.2byte	0xbf00
f800224c:	0000                	.2byte	0x0
f800224e:	0000                	.2byte	0x0
f8002250:	0000                	.2byte	0x0
f8002252:	3f80                	.2byte	0x3f80
f8002254:	0000                	.2byte	0x0
f8002256:	0000                	.2byte	0x0
f8002258:	0000                	.2byte	0x0
f800225a:	3f80                	.2byte	0x3f80
f800225c:	0000                	.2byte	0x0
f800225e:	bf00                	.2byte	0xbf00
f8002260:	0000                	.2byte	0x0
f8002262:	3f00                	.2byte	0x3f00
f8002264:	0000                	.2byte	0x0
f8002266:	0000                	.2byte	0x0
f8002268:	0000                	.2byte	0x0
f800226a:	3f80                	.2byte	0x3f80
f800226c:	0000                	.2byte	0x0
f800226e:	3f80                	.2byte	0x3f80
f8002270:	0000                	.2byte	0x0
f8002272:	0000                	.2byte	0x0
f8002274:	0000                	.2byte	0x0
f8002276:	3f00                	.2byte	0x3f00
f8002278:	0000                	.2byte	0x0
f800227a:	3f00                	.2byte	0x3f00
	...
f8002284:	0000                	.2byte	0x0
f8002286:	3f80                	.2byte	0x3f80
f8002288:	0000                	.2byte	0x0
f800228a:	3f80                	.2byte	0x3f80
f800228c:	6172                	.2byte	0x6172
f800228e:	676e                	.2byte	0x676e
f8002290:	2065                	.2byte	0x2065
f8002292:	6e65                	.2byte	0x6e65
f8002294:	2064                	.2byte	0x2064
f8002296:	6e69                	.2byte	0x6e69
f8002298:	6564                	.2byte	0x6564
f800229a:	2078                	.2byte	0x2078
f800229c:	0000                	.2byte	0x0
f800229e:	0000                	.2byte	0x0
f80022a0:	0000                	.2byte	0x0
f80022a2:	3f80                	.2byte	0x3f80
f80022a4:	0000                	.2byte	0x0
f80022a6:	0000                	.2byte	0x0
f80022a8:	0000                	.2byte	0x0
f80022aa:	3f80                	.2byte	0x3f80

f80022ac <.Lanon.fad58de7366495db4650cfefac2fcd61.5>:
f80022ac:	0204                	.2byte	0x204
f80022ae:	0100                	.2byte	0x100
f80022b0:	0410                	.2byte	0x410
f80022b2:	1002                	.2byte	0x1002
f80022b4:	1101                	.2byte	0x1101
f80022b6:	0006                	.2byte	0x6
f80022b8:	0300                	.2byte	0x300
f80022ba:	0300                	.2byte	0x300
f80022bc:	03100207          	.4byte	0x3100207
	...

f80022c2 <.Lanon.fad58de7366495db4650cfefac2fcd61.6>:
f80022c2:	0204                	.2byte	0x204
f80022c4:	0110                	.2byte	0x110
f80022c6:	0010                	.2byte	0x10

f80022c8 <.Lanon.fad58de7366495db4650cfefac2fcd61.7>:
f80022c8:	0010                	.2byte	0x10
f80022ca:	0212                	.2byte	0x212
f80022cc:	0000                	.2byte	0x0
f80022ce:	0000                	.2byte	0x0
f80022d0:	0018                	.2byte	0x18
f80022d2:	0000                	.2byte	0x0
f80022d4:	0011                	.2byte	0x11
f80022d6:	0212                	.2byte	0x212
f80022d8:	000c                	.2byte	0xc
f80022da:	0000                	.2byte	0x0
f80022dc:	0018                	.2byte	0x18
	...

f80022e0 <.Lanon.fad58de7366495db4650cfefac2fcd61.8>:
f80022e0:	22c8                	.2byte	0x22c8
f80022e2:	f800                	.2byte	0xf800
f80022e4:	0002                	.2byte	0x2
	...

f80022e8 <.Lanon.fad58de7366495db4650cfefac2fcd61.9>:
f80022e8:	0010                	.2byte	0x10
f80022ea:	0304                	.2byte	0x304
	...

f80022f4 <.Lanon.fad58de7366495db4650cfefac2fcd61.10>:
f80022f4:	0000                	.2byte	0x0
f80022f6:	0000                	.2byte	0x0
f80022f8:	22e8                	.2byte	0x22e8
f80022fa:	f800                	.2byte	0xf800
f80022fc:	0001                	.2byte	0x1
f80022fe:	0000                	.2byte	0x0
f8002300:	00100203          	lb	tp,1(zero) # 1 <_bss+0x1>
f8002304:	0000                	.2byte	0x0
f8002306:	0000                	.2byte	0x0
f8002308:	0100                	.2byte	0x100
f800230a:	          	lh	tp,16(zero) # 10 <_bss+0x10>

f800230c <.Lanon.fad58de7366495db4650cfefac2fcd61.13>:
f800230c:	0100                	.2byte	0x100

f800230e <.Lanon.fad58de7366495db4650cfefac2fcd61.14>:
	...

f8002310 <.Lanon.fad58de7366495db4650cfefac2fcd61.15>:
f8002310:	2300                	.2byte	0x2300
f8002312:	f800                	.2byte	0xf800
f8002314:	2304                	.2byte	0x2304
f8002316:	f800                	.2byte	0xf800
f8002318:	230c                	.2byte	0x230c
f800231a:	f800                	.2byte	0xf800
f800231c:	230e                	.2byte	0x230e
f800231e:	f800                	.2byte	0xf800
f8002320:	0101                	.2byte	0x101
f8002322:	0102                	.2byte	0x102

f8002324 <.Lanon.fad58de7366495db4650cfefac2fcd61.16>:
f8002324:	22e0                	.2byte	0x22e0
f8002326:	f800                	.2byte	0xf800
f8002328:	22f4                	.2byte	0x22f4
f800232a:	f800                	.2byte	0xf800
f800232c:	2310                	.2byte	0x2310
f800232e:	f800                	.2byte	0xf800
f8002330:	74696177          	.4byte	0x74696177
f8002334:	6e69                	.2byte	0x6e69
f8002336:	6f662067          	.4byte	0x6f662067
f800233a:	2072                	.2byte	0x2072
f800233c:	6d627573          	.4byte	0x6d627573
f8002340:	7469                	.2byte	0x7469
f8002342:	6320                	.2byte	0x6320
f8002344:	6c706d6f          	jal	s10,f800920a <_etext+0x6bbe>
f8002348:	7465                	.2byte	0x7465
f800234a:	6f69                	.2byte	0x6f69
f800234c:	2e6e                	.2byte	0x2e6e
f800234e:	2e2e                	.2byte	0x2e2e

f8002350 <.Lanon.fad58de7366495db4650cfefac2fcd61.18>:
f8002350:	74696177          	.4byte	0x74696177
f8002354:	6e69                	.2byte	0x6e69
f8002356:	6f662067          	.4byte	0x6f662067
f800235a:	2072                	.2byte	0x2072
f800235c:	7270                	.2byte	0x7270
f800235e:	7365                	.2byte	0x7365
f8002360:	6e65                	.2byte	0x6e65
f8002362:	2074                	.2byte	0x2074
f8002364:	706d6f63          	bltu	s10,t1,f8002a82 <_etext+0x436>
f8002368:	656c                	.2byte	0x656c
f800236a:	6974                	.2byte	0x6974
f800236c:	2e2e6e6f          	jal	t3,f80e864e <_etext+0xe6002>
f8002370:	                	.2byte	0x662e

f8002371 <.Lanon.fad58de7366495db4650cfefac2fcd61.19>:
f8002371:	6966                	.2byte	0x6966
f8002373:	696e                	.2byte	0x696e
f8002375:	64656873          	.4byte	0x64656873
f8002379:	0021                	.2byte	0x21
	...

f800237c <.Lanon.fad58de7366495db4650cfefac2fcd61.20>:
	...
f8002384:	0001                	.2byte	0x1
f8002386:	0000                	.2byte	0x0
f8002388:	0098                	.2byte	0x98
f800238a:	f800                	.2byte	0xf800

f800238c <.Lanon.fad58de7366495db4650cfefac2fcd61.21>:
f800238c:	6c6c6163          	bltu	s8,t1,f8002a4e <_etext+0x402>
f8002390:	6465                	.2byte	0x6465
f8002392:	6020                	.2byte	0x6020
f8002394:	6552                	.2byte	0x6552
f8002396:	746c7573          	.4byte	0x746c7573
f800239a:	3a3a                	.2byte	0x3a3a
f800239c:	6e75                	.2byte	0x6e75
f800239e:	70617277          	.4byte	0x70617277
f80023a2:	2928                	.2byte	0x2928
f80023a4:	2060                	.2byte	0x2060
f80023a6:	61206e6f          	jal	t3,f80089b8 <_etext+0x636c>
f80023aa:	206e                	.2byte	0x206e
f80023ac:	4560                	.2byte	0x4560
f80023ae:	7272                	.2byte	0x7272
f80023b0:	2060                	.2byte	0x2060
f80023b2:	6176                	.2byte	0x6176
f80023b4:	756c                	.2byte	0x756c
f80023b6:	                	.2byte	0x7365

f80023b7 <.Lanon.fad58de7366495db4650cfefac2fcd61.22>:
f80023b7:	2f637273          	.4byte	0x2f637273
f80023bb:	616d                	.2byte	0x616d
f80023bd:	6e69                	.2byte	0x6e69
f80023bf:	722e                	.2byte	0x722e
f80023c1:	          	.4byte	0xb7000073

f80023c4 <.Lanon.fad58de7366495db4650cfefac2fcd61.23>:
f80023c4:	f80023b7          	lui	t2,0xf8002
f80023c8:	0000000b          	.4byte	0xb
f80023cc:	008c                	.2byte	0x8c
f80023ce:	0000                	.2byte	0x0
f80023d0:	00000083          	lb	ra,0(zero) # 0 <_bss>

f80023d4 <.Lanon.ed8adcc0edac9d2cca8975dbe52d9d3b.0>:
	...
f80023dc:	0001                	.2byte	0x1
f80023de:	0000                	.2byte	0x0
f80023e0:	0df8                	.2byte	0xdf8
f80023e2:	f800                	.2byte	0xf800
f80023e4:	0540                	.2byte	0x540
f80023e6:	f800                	.2byte	0xf800
f80023e8:	0624                	.2byte	0x624
f80023ea:	f800                	.2byte	0xf800

f80023ec <.Lanon.ed8adcc0edac9d2cca8975dbe52d9d3b.1>:
f80023ec:	6573552f          	.4byte	0x6573552f
f80023f0:	7372                	.2byte	0x7372
f80023f2:	61696c2f          	.4byte	0x61696c2f
f80023f6:	2f6d                	.2byte	0x2f6d
f80023f8:	7672                	.2byte	0x7672
f80023fa:	6d66                	.2byte	0x6d66
f80023fc:	2f32                	.2byte	0x2f32
f80023fe:	2f6b6473          	.4byte	0x2f6b6473
f8002402:	7572                	.2byte	0x7572
f8002404:	722f7473          	.4byte	0x722f7473
f8002408:	6676                	.2byte	0x6676
f800240a:	2f6d                	.2byte	0x2f6d
f800240c:	2f637273          	.4byte	0x2f637273
f8002410:	2f757067          	.4byte	0x2f757067
f8002414:	6d6d6f63          	bltu	s10,s6,f8002af2 <_etext+0x4a6>
f8002418:	6e61                	.2byte	0x6e61
f800241a:	2e64                	.2byte	0x2e64
f800241c:	7372                	.2byte	0x7372
	...

f8002420 <.Lanon.ed8adcc0edac9d2cca8975dbe52d9d3b.2>:
f8002420:	23ec                	.2byte	0x23ec
f8002422:	f800                	.2byte	0xf800
f8002424:	0032                	.2byte	0x32
f8002426:	0000                	.2byte	0x0
f8002428:	0000018f          	.4byte	0x18f
f800242c:	00000013          	nop

f8002430 <.Lanon.ed8adcc0edac9d2cca8975dbe52d9d3b.3>:
f8002430:	6e69                	.2byte	0x6e69
f8002432:	6574                	.2byte	0x6574
f8002434:	6e72                	.2byte	0x6e72
f8002436:	6c61                	.2byte	0x6c61
f8002438:	6520                	.2byte	0x6520
f800243a:	7272                	.2byte	0x7272
f800243c:	203a726f          	jal	tp,f80a9e3e <_etext+0xa77f2>
f8002440:	6e65                	.2byte	0x6e65
f8002442:	6574                	.2byte	0x6574
f8002444:	6572                	.2byte	0x6572
f8002446:	2064                	.2byte	0x2064
f8002448:	6e75                	.2byte	0x6e75
f800244a:	6572                	.2byte	0x6572
f800244c:	6361                	.2byte	0x6361
f800244e:	6168                	.2byte	0x6168
f8002450:	6c62                	.2byte	0x6c62
f8002452:	2065                	.2byte	0x2065
f8002454:	65646f63          	bltu	s0,s6,f8002ab2 <_etext+0x466>

f8002458 <.Lanon.ed8adcc0edac9d2cca8975dbe52d9d3b.4>:
f8002458:	6573552f          	.4byte	0x6573552f
f800245c:	7372                	.2byte	0x7372
f800245e:	61696c2f          	.4byte	0x61696c2f
f8002462:	2f6d                	.2byte	0x2f6d
f8002464:	7672                	.2byte	0x7672
f8002466:	6d66                	.2byte	0x6d66
f8002468:	2f32                	.2byte	0x2f32
f800246a:	2f6b6473          	.4byte	0x2f6b6473
f800246e:	7572                	.2byte	0x7572
f8002470:	722f7473          	.4byte	0x722f7473
f8002474:	6676                	.2byte	0x6676
f8002476:	2f6d                	.2byte	0x2f6d
f8002478:	2f637273          	.4byte	0x2f637273
f800247c:	6168                	.2byte	0x6168
f800247e:	7472                	.2byte	0x7472
f8002480:	722e                	.2byte	0x722e
f8002482:	          	.4byte	0x24580073

f8002484 <.Lanon.ed8adcc0edac9d2cca8975dbe52d9d3b.5>:
f8002484:	2458                	.2byte	0x2458
f8002486:	f800                	.2byte	0xf800
f8002488:	0000002b          	.4byte	0x2b
f800248c:	0015                	.2byte	0x15
f800248e:	0000                	.2byte	0x0
f8002490:	0012                	.2byte	0x12
	...

f8002494 <.Lanon.ed8adcc0edac9d2cca8975dbe52d9d3b.6>:
f8002494:	6573552f          	.4byte	0x6573552f
f8002498:	7372                	.2byte	0x7372
f800249a:	61696c2f          	.4byte	0x61696c2f
f800249e:	2f6d                	.2byte	0x2f6d
f80024a0:	7672                	.2byte	0x7672
f80024a2:	6d66                	.2byte	0x6d66
f80024a4:	2f32                	.2byte	0x2f32
f80024a6:	2f6b6473          	.4byte	0x2f6b6473
f80024aa:	7572                	.2byte	0x7572
f80024ac:	722f7473          	.4byte	0x722f7473
f80024b0:	6676                	.2byte	0x6676
f80024b2:	2f6d                	.2byte	0x2f6d
f80024b4:	2f637273          	.4byte	0x2f637273
f80024b8:	6d6d6f63          	bltu	s10,s6,f8002b96 <_etext+0x54a>
f80024bc:	6e61                	.2byte	0x6e61
f80024be:	5f64                	.2byte	0x5f64
f80024c0:	696c                	.2byte	0x696c
f80024c2:	722e7473          	.4byte	0x722e7473
f80024c6:	          	.4byte	0x24940073

f80024c8 <.Lanon.ed8adcc0edac9d2cca8975dbe52d9d3b.7>:
f80024c8:	2494                	.2byte	0x2494
f80024ca:	f800                	.2byte	0xf800
f80024cc:	00000033          	add	zero,zero,zero
f80024d0:	002c                	.2byte	0x2c
f80024d2:	0000                	.2byte	0x0
f80024d4:	00000013          	nop

f80024d8 <.Lanon.ed8adcc0edac9d2cca8975dbe52d9d3b.10>:
f80024d8:	6168                	.2byte	0x6168
f80024da:	7472                	.2byte	0x7472
f80024dc:	                	.2byte	0x2020

f80024dd <.Lanon.ed8adcc0edac9d2cca8975dbe52d9d3b.11>:
f80024dd:	7020                	.2byte	0x7020
f80024df:	6e61                	.2byte	0x6e61
f80024e1:	6369                	.2byte	0x6369
f80024e3:	0a21                	.2byte	0xa21
f80024e5:	2040                	.2byte	0x2040

f80024e7 <.Lanon.ed8adcc0edac9d2cca8975dbe52d9d3b.12>:
f80024e7:	                	.2byte	0xd83a

f80024e8 <.Lanon.ed8adcc0edac9d2cca8975dbe52d9d3b.13>:
f80024e8:	24d8                	.2byte	0x24d8
f80024ea:	f800                	.2byte	0xf800
f80024ec:	0005                	.2byte	0x5
f80024ee:	0000                	.2byte	0x0
f80024f0:	24dd                	.2byte	0x24dd
f80024f2:	f800                	.2byte	0xf800
f80024f4:	000a                	.2byte	0xa
f80024f6:	0000                	.2byte	0x0
f80024f8:	f80024e7          	.4byte	0xf80024e7
f80024fc:	0001                	.2byte	0x1
f80024fe:	0000                	.2byte	0x0
f8002500:	f80024e7          	.4byte	0xf80024e7
f8002504:	0001                	.2byte	0x1
	...

f8002508 <.Lanon.2fd07056217eab97579f900aab253104.282>:
f8002508:	203a                	.2byte	0x203a
	...

f800250c <.Lanon.2fd07056217eab97579f900aab253104.283>:
f800250c:	0001                	.2byte	0x1
f800250e:	0000                	.2byte	0x0
f8002510:	0000                	.2byte	0x0
f8002512:	0000                	.2byte	0x0
f8002514:	2508                	.2byte	0x2508
f8002516:	f800                	.2byte	0xf800
f8002518:	0002                	.2byte	0x2
	...

f800251c <.Lanon.2fd07056217eab97579f900aab253104.317>:
f800251c:	3030                	.2byte	0x3030
f800251e:	3130                	.2byte	0x3130
f8002520:	3230                	.2byte	0x3230
f8002522:	3330                	.2byte	0x3330
f8002524:	3430                	.2byte	0x3430
f8002526:	3530                	.2byte	0x3530
f8002528:	3630                	.2byte	0x3630
f800252a:	3730                	.2byte	0x3730
f800252c:	3830                	.2byte	0x3830
f800252e:	3930                	.2byte	0x3930
f8002530:	3031                	.2byte	0x3031
f8002532:	3131                	.2byte	0x3131
f8002534:	3231                	.2byte	0x3231
f8002536:	3331                	.2byte	0x3331
f8002538:	3431                	.2byte	0x3431
f800253a:	3531                	.2byte	0x3531
f800253c:	3631                	.2byte	0x3631
f800253e:	3731                	.2byte	0x3731
f8002540:	3831                	.2byte	0x3831
f8002542:	3931                	.2byte	0x3931
f8002544:	3032                	.2byte	0x3032
f8002546:	3132                	.2byte	0x3132
f8002548:	3232                	.2byte	0x3232
f800254a:	3332                	.2byte	0x3332
f800254c:	3432                	.2byte	0x3432
f800254e:	3532                	.2byte	0x3532
f8002550:	3632                	.2byte	0x3632
f8002552:	3732                	.2byte	0x3732
f8002554:	3832                	.2byte	0x3832
f8002556:	3932                	.2byte	0x3932
f8002558:	31333033          	.4byte	0x31333033
f800255c:	33333233          	.4byte	0x33333233
f8002560:	35333433          	.4byte	0x35333433
f8002564:	37333633          	.4byte	0x37333633
f8002568:	39333833          	.4byte	0x39333833
f800256c:	3034                	.2byte	0x3034
f800256e:	3134                	.2byte	0x3134
f8002570:	3234                	.2byte	0x3234
f8002572:	3334                	.2byte	0x3334
f8002574:	3434                	.2byte	0x3434
f8002576:	3534                	.2byte	0x3534
f8002578:	3634                	.2byte	0x3634
f800257a:	3734                	.2byte	0x3734
f800257c:	3834                	.2byte	0x3834
f800257e:	3934                	.2byte	0x3934
f8002580:	3035                	.2byte	0x3035
f8002582:	3135                	.2byte	0x3135
f8002584:	3235                	.2byte	0x3235
f8002586:	3335                	.2byte	0x3335
f8002588:	3435                	.2byte	0x3435
f800258a:	3535                	.2byte	0x3535
f800258c:	3635                	.2byte	0x3635
f800258e:	3735                	.2byte	0x3735
f8002590:	3835                	.2byte	0x3835
f8002592:	3935                	.2byte	0x3935
f8002594:	3036                	.2byte	0x3036
f8002596:	3136                	.2byte	0x3136
f8002598:	3236                	.2byte	0x3236
f800259a:	3336                	.2byte	0x3336
f800259c:	3436                	.2byte	0x3436
f800259e:	3536                	.2byte	0x3536
f80025a0:	3636                	.2byte	0x3636
f80025a2:	3736                	.2byte	0x3736
f80025a4:	3836                	.2byte	0x3836
f80025a6:	3936                	.2byte	0x3936
f80025a8:	31373037          	lui	zero,0x31373
f80025ac:	33373237          	lui	tp,0x33373
f80025b0:	35373437          	lui	s0,0x35373
f80025b4:	37373637          	lui	a2,0x37373
f80025b8:	39373837          	lui	a6,0x39373
f80025bc:	3038                	.2byte	0x3038
f80025be:	3138                	.2byte	0x3138
f80025c0:	3238                	.2byte	0x3238
f80025c2:	3338                	.2byte	0x3338
f80025c4:	3438                	.2byte	0x3438
f80025c6:	3538                	.2byte	0x3538
f80025c8:	3638                	.2byte	0x3638
f80025ca:	3738                	.2byte	0x3738
f80025cc:	3838                	.2byte	0x3838
f80025ce:	3938                	.2byte	0x3938
f80025d0:	3039                	.2byte	0x3039
f80025d2:	3139                	.2byte	0x3139
f80025d4:	3239                	.2byte	0x3239
f80025d6:	3339                	.2byte	0x3339
f80025d8:	3439                	.2byte	0x3439
f80025da:	3539                	.2byte	0x3539
f80025dc:	3639                	.2byte	0x3639
f80025de:	3739                	.2byte	0x3739
f80025e0:	3839                	.2byte	0x3839
f80025e2:	3939                	.2byte	0x3939

f80025e4 <.Lanon.2fd07056217eab97579f900aab253104.342>:
f80025e4:	6f20                	.2byte	0x6f20
f80025e6:	7475                	.2byte	0x7475
f80025e8:	6f20                	.2byte	0x6f20
f80025ea:	2066                	.2byte	0x2066
f80025ec:	6172                	.2byte	0x6172
f80025ee:	676e                	.2byte	0x676e
f80025f0:	2065                	.2byte	0x2065
f80025f2:	6f66                	.2byte	0x6f66
f80025f4:	2072                	.2byte	0x2072
f80025f6:	63696c73          	.4byte	0x63696c73
f80025fa:	2065                	.2byte	0x2065
f80025fc:	6c20666f          	jal	a2,f8008cbe <_etext+0x6672>
f8002600:	6e65                	.2byte	0x6e65
f8002602:	20687467          	.4byte	0x20687467
	...

f8002608 <.Lanon.2fd07056217eab97579f900aab253104.345>:
f8002608:	228c                	.2byte	0x228c
f800260a:	f800                	.2byte	0xf800
f800260c:	0010                	.2byte	0x10
f800260e:	0000                	.2byte	0x0
f8002610:	25e4                	.2byte	0x25e4
f8002612:	f800                	.2byte	0xf800
f8002614:	0022                	.2byte	0x22
	...

f8002618 <.Lanon.2fd07056217eab97579f900aab253104.346>:
f8002618:	63696c73          	.4byte	0x63696c73
f800261c:	2065                	.2byte	0x2065
f800261e:	6e69                	.2byte	0x6e69
f8002620:	6564                	.2byte	0x6564
f8002622:	2078                	.2byte	0x2078
f8002624:	72617473          	.4byte	0x72617473
f8002628:	7374                	.2byte	0x7374
f800262a:	6120                	.2byte	0x6120
f800262c:	2074                	.2byte	0x2074

f800262e <.Lanon.2fd07056217eab97579f900aab253104.347>:
f800262e:	6220                	.2byte	0x6220
f8002630:	7475                	.2byte	0x7475
f8002632:	6520                	.2byte	0x6520
f8002634:	646e                	.2byte	0x646e
f8002636:	74612073          	.4byte	0x74612073
f800263a:	0020                	.2byte	0x20

f800263c <.Lanon.2fd07056217eab97579f900aab253104.348>:
f800263c:	2618                	.2byte	0x2618
f800263e:	f800                	.2byte	0xf800
f8002640:	0016                	.2byte	0x16
f8002642:	0000                	.2byte	0x0
f8002644:	262e                	.2byte	0x262e
f8002646:	f800                	.2byte	0xf800
f8002648:	000d                	.2byte	0xd
	...

Disassembly of section .eh_frame:

f800264c <.eh_frame>:
f800264c:	0010                	.2byte	0x10
f800264e:	0000                	.2byte	0x0
f8002650:	0000                	.2byte	0x0
f8002652:	0000                	.2byte	0x0
f8002654:	7a01                	.2byte	0x7a01
f8002656:	0052                	.2byte	0x52
f8002658:	7c01                	.2byte	0x7c01
f800265a:	0101                	.2byte	0x101
f800265c:	00020c1b          	.4byte	0x20c1b
f8002660:	0014                	.2byte	0x14
f8002662:	0000                	.2byte	0x0
f8002664:	0018                	.2byte	0x18
f8002666:	0000                	.2byte	0x0
f8002668:	d998                	.2byte	0xd998
f800266a:	ffff                	.2byte	0xffff
f800266c:	0098                	.2byte	0x98
f800266e:	0000                	.2byte	0x0
f8002670:	0700                	.2byte	0x700
f8002672:	0701                	.2byte	0x701
f8002674:	00000003          	lb	zero,0(zero) # 0 <_bss>
f8002678:	001c                	.2byte	0x1c
f800267a:	0000                	.2byte	0x0
f800267c:	0030                	.2byte	0x30
f800267e:	0000                	.2byte	0x0
f8002680:	e8b4                	.2byte	0xe8b4
f8002682:	ffff                	.2byte	0xffff
f8002684:	0058                	.2byte	0x58
f8002686:	0000                	.2byte	0x0
f8002688:	4400                	.2byte	0x4400
f800268a:	300e                	.2byte	0x300e
f800268c:	8148                	.2byte	0x8148
f800268e:	8801                	.2byte	0x8801
f8002690:	4402                	.2byte	0x4402
f8002692:	080c                	.2byte	0x80c
f8002694:	0000                	.2byte	0x0
f8002696:	0000                	.2byte	0x0
f8002698:	001c                	.2byte	0x1c
f800269a:	0000                	.2byte	0x0
f800269c:	0050                	.2byte	0x50
f800269e:	0000                	.2byte	0x0
f80026a0:	e8ec                	.2byte	0xe8ec
f80026a2:	ffff                	.2byte	0xffff
f80026a4:	0048                	.2byte	0x48
f80026a6:	0000                	.2byte	0x0
f80026a8:	4400                	.2byte	0x4400
f80026aa:	300e                	.2byte	0x300e
f80026ac:	8148                	.2byte	0x8148
f80026ae:	8801                	.2byte	0x8801
f80026b0:	4402                	.2byte	0x4402
f80026b2:	080c                	.2byte	0x80c
f80026b4:	0000                	.2byte	0x0
f80026b6:	0000                	.2byte	0x0
f80026b8:	001c                	.2byte	0x1c
f80026ba:	0000                	.2byte	0x0
f80026bc:	0070                	.2byte	0x70
f80026be:	0000                	.2byte	0x0
f80026c0:	e914                	.2byte	0xe914
f80026c2:	ffff                	.2byte	0xffff
f80026c4:	007c                	.2byte	0x7c
f80026c6:	0000                	.2byte	0x0
f80026c8:	4400                	.2byte	0x4400
f80026ca:	400e                	.2byte	0x400e
f80026cc:	8148                	.2byte	0x8148
f80026ce:	8801                	.2byte	0x8801
f80026d0:	4402                	.2byte	0x4402
f80026d2:	080c                	.2byte	0x80c
f80026d4:	0000                	.2byte	0x0
f80026d6:	0000                	.2byte	0x0
f80026d8:	002c                	.2byte	0x2c
f80026da:	0000                	.2byte	0x0
f80026dc:	0090                	.2byte	0x90
f80026de:	0000                	.2byte	0x0
f80026e0:	e970                	.2byte	0xe970
f80026e2:	ffff                	.2byte	0xffff
f80026e4:	026c                	.2byte	0x26c
f80026e6:	0000                	.2byte	0x0
f80026e8:	4400                	.2byte	0x4400
f80026ea:	500e                	.2byte	0x500e
f80026ec:	8168                	.2byte	0x8168
f80026ee:	8801                	.2byte	0x8801
f80026f0:	8902                	.2byte	0x8902
f80026f2:	93049203          	lh	tp,-1744(s1)
f80026f6:	9405                	.2byte	0x9405
f80026f8:	9506                	.2byte	0x9506
f80026fa:	97089607          	.4byte	0x97089607
f80026fe:	9809                	.2byte	0x9809
f8002700:	440a                	.2byte	0x440a
f8002702:	080c                	.2byte	0x80c
f8002704:	0000                	.2byte	0x0
f8002706:	0000                	.2byte	0x0
f8002708:	0030                	.2byte	0x30
f800270a:	0000                	.2byte	0x0
f800270c:	00c0                	.2byte	0xc0
f800270e:	0000                	.2byte	0x0
f8002710:	ebac                	.2byte	0xebac
f8002712:	ffff                	.2byte	0xffff
f8002714:	0358                	.2byte	0x358
f8002716:	0000                	.2byte	0x0
f8002718:	4400                	.2byte	0x4400
f800271a:	400e                	.2byte	0x400e
f800271c:	8174                	.2byte	0x8174
f800271e:	8801                	.2byte	0x8801
f8002720:	8902                	.2byte	0x8902
f8002722:	93049203          	lh	tp,-1744(s1)
f8002726:	9405                	.2byte	0x9405
f8002728:	9506                	.2byte	0x9506
f800272a:	97089607          	.4byte	0x97089607
f800272e:	9809                	.2byte	0x9809
f8002730:	990a                	.2byte	0x990a
f8002732:	9b0c9a0b          	.4byte	0x9b0c9a0b
f8002736:	440d                	.2byte	0x440d
f8002738:	080c                	.2byte	0x80c
f800273a:	0000                	.2byte	0x0
f800273c:	0024                	.2byte	0x24
f800273e:	0000                	.2byte	0x0
f8002740:	00f4                	.2byte	0xf4
f8002742:	0000                	.2byte	0x0
f8002744:	eed0                	.2byte	0xeed0
f8002746:	ffff                	.2byte	0xffff
f8002748:	00ac                	.2byte	0xac
f800274a:	0000                	.2byte	0x0
f800274c:	4400                	.2byte	0x4400
f800274e:	200e                	.2byte	0x200e
f8002750:	8158                	.2byte	0x8158
f8002752:	8801                	.2byte	0x8801
f8002754:	8902                	.2byte	0x8902
f8002756:	93049203          	lh	tp,-1744(s1)
f800275a:	9405                	.2byte	0x9405
f800275c:	4406                	.2byte	0x4406
f800275e:	080c                	.2byte	0x80c
f8002760:	0000                	.2byte	0x0
f8002762:	0000                	.2byte	0x0
f8002764:	0028                	.2byte	0x28
f8002766:	0000                	.2byte	0x0
f8002768:	011c                	.2byte	0x11c
f800276a:	0000                	.2byte	0x0
f800276c:	ef54                	.2byte	0xef54
f800276e:	ffff                	.2byte	0xffff
f8002770:	0294                	.2byte	0x294
f8002772:	0000                	.2byte	0x0
f8002774:	4400                	.2byte	0x4400
f8002776:	300e                	.2byte	0x300e
f8002778:	8164                	.2byte	0x8164
f800277a:	8801                	.2byte	0x8801
f800277c:	8902                	.2byte	0x8902
f800277e:	93049203          	lh	tp,-1744(s1)
f8002782:	9405                	.2byte	0x9405
f8002784:	9506                	.2byte	0x9506
f8002786:	97089607          	.4byte	0x97089607
f800278a:	4409                	.2byte	0x4409
f800278c:	080c                	.2byte	0x80c
f800278e:	0000                	.2byte	0x0
f8002790:	001c                	.2byte	0x1c
f8002792:	0000                	.2byte	0x0
f8002794:	0148                	.2byte	0x148
f8002796:	0000                	.2byte	0x0
f8002798:	f1bc                	.2byte	0xf1bc
f800279a:	ffff                	.2byte	0xffff
f800279c:	0034                	.2byte	0x34
f800279e:	0000                	.2byte	0x0
f80027a0:	4400                	.2byte	0x4400
f80027a2:	100e                	.2byte	0x100e
f80027a4:	8148                	.2byte	0x8148
f80027a6:	8801                	.2byte	0x8801
f80027a8:	4402                	.2byte	0x4402
f80027aa:	080c                	.2byte	0x80c
f80027ac:	0000                	.2byte	0x0
f80027ae:	0000                	.2byte	0x0
f80027b0:	001c                	.2byte	0x1c
f80027b2:	0000                	.2byte	0x0
f80027b4:	0168                	.2byte	0x168
f80027b6:	0000                	.2byte	0x0
f80027b8:	f1d0                	.2byte	0xf1d0
f80027ba:	ffff                	.2byte	0xffff
f80027bc:	006c                	.2byte	0x6c
f80027be:	0000                	.2byte	0x0
f80027c0:	4400                	.2byte	0x4400
f80027c2:	400e                	.2byte	0x400e
f80027c4:	8148                	.2byte	0x8148
f80027c6:	8801                	.2byte	0x8801
f80027c8:	4402                	.2byte	0x4402
f80027ca:	080c                	.2byte	0x80c
f80027cc:	0000                	.2byte	0x0
f80027ce:	0000                	.2byte	0x0
f80027d0:	001c                	.2byte	0x1c
f80027d2:	0000                	.2byte	0x0
f80027d4:	0188                	.2byte	0x188
f80027d6:	0000                	.2byte	0x0
f80027d8:	f21c                	.2byte	0xf21c
f80027da:	ffff                	.2byte	0xffff
f80027dc:	006c                	.2byte	0x6c
f80027de:	0000                	.2byte	0x0
f80027e0:	4400                	.2byte	0x4400
f80027e2:	400e                	.2byte	0x400e
f80027e4:	8148                	.2byte	0x8148
f80027e6:	8801                	.2byte	0x8801
f80027e8:	4402                	.2byte	0x4402
f80027ea:	080c                	.2byte	0x80c
f80027ec:	0000                	.2byte	0x0
f80027ee:	0000                	.2byte	0x0
f80027f0:	001c                	.2byte	0x1c
f80027f2:	0000                	.2byte	0x0
f80027f4:	01a8                	.2byte	0x1a8
f80027f6:	0000                	.2byte	0x0
f80027f8:	f268                	.2byte	0xf268
f80027fa:	ffff                	.2byte	0xffff
f80027fc:	0234                	.2byte	0x234
f80027fe:	0000                	.2byte	0x0
f8002800:	4400                	.2byte	0x4400
f8002802:	100e                	.2byte	0x100e
f8002804:	8148                	.2byte	0x8148
f8002806:	8801                	.2byte	0x8801
f8002808:	4402                	.2byte	0x4402
f800280a:	080c                	.2byte	0x80c
f800280c:	0000                	.2byte	0x0
f800280e:	0000                	.2byte	0x0
f8002810:	0030                	.2byte	0x30
f8002812:	0000                	.2byte	0x0
f8002814:	01c8                	.2byte	0x1c8
f8002816:	0000                	.2byte	0x0
f8002818:	f47c                	.2byte	0xf47c
f800281a:	ffff                	.2byte	0xffff
f800281c:	023c                	.2byte	0x23c
f800281e:	0000                	.2byte	0x0
f8002820:	4400                	.2byte	0x4400
f8002822:	600e                	.2byte	0x600e
f8002824:	8174                	.2byte	0x8174
f8002826:	8801                	.2byte	0x8801
f8002828:	8902                	.2byte	0x8902
f800282a:	93049203          	lh	tp,-1744(s1)
f800282e:	9405                	.2byte	0x9405
f8002830:	9506                	.2byte	0x9506
f8002832:	97089607          	.4byte	0x97089607
f8002836:	9809                	.2byte	0x9809
f8002838:	990a                	.2byte	0x990a
f800283a:	9b0c9a0b          	.4byte	0x9b0c9a0b
f800283e:	440d                	.2byte	0x440d
f8002840:	080c                	.2byte	0x80c
f8002842:	0000                	.2byte	0x0
f8002844:	001c                	.2byte	0x1c
f8002846:	0000                	.2byte	0x0
f8002848:	01fc                	.2byte	0x1fc
f800284a:	0000                	.2byte	0x0
f800284c:	f684                	.2byte	0xf684
f800284e:	ffff                	.2byte	0xffff
f8002850:	0030                	.2byte	0x30
f8002852:	0000                	.2byte	0x0
f8002854:	4400                	.2byte	0x4400
f8002856:	100e                	.2byte	0x100e
f8002858:	8148                	.2byte	0x8148
f800285a:	8801                	.2byte	0x8801
f800285c:	4402                	.2byte	0x4402
f800285e:	080c                	.2byte	0x80c
f8002860:	0000                	.2byte	0x0
f8002862:	0000                	.2byte	0x0
f8002864:	001c                	.2byte	0x1c
f8002866:	0000                	.2byte	0x0
f8002868:	021c                	.2byte	0x21c
f800286a:	0000                	.2byte	0x0
f800286c:	f694                	.2byte	0xf694
f800286e:	ffff                	.2byte	0xffff
f8002870:	002c                	.2byte	0x2c
f8002872:	0000                	.2byte	0x0
f8002874:	4400                	.2byte	0x4400
f8002876:	100e                	.2byte	0x100e
f8002878:	8148                	.2byte	0x8148
f800287a:	8801                	.2byte	0x8801
f800287c:	4402                	.2byte	0x4402
f800287e:	080c                	.2byte	0x80c
f8002880:	0000                	.2byte	0x0
f8002882:	0000                	.2byte	0x0
f8002884:	001c                	.2byte	0x1c
f8002886:	0000                	.2byte	0x0
f8002888:	023c                	.2byte	0x23c
f800288a:	0000                	.2byte	0x0
f800288c:	f6a0                	.2byte	0xf6a0
f800288e:	ffff                	.2byte	0xffff
f8002890:	0034                	.2byte	0x34
f8002892:	0000                	.2byte	0x0
f8002894:	4400                	.2byte	0x4400
f8002896:	100e                	.2byte	0x100e
f8002898:	8148                	.2byte	0x8148
f800289a:	8801                	.2byte	0x8801
f800289c:	4402                	.2byte	0x4402
f800289e:	080c                	.2byte	0x80c
f80028a0:	0000                	.2byte	0x0
f80028a2:	0000                	.2byte	0x0
f80028a4:	001c                	.2byte	0x1c
f80028a6:	0000                	.2byte	0x0
f80028a8:	025c                	.2byte	0x25c
f80028aa:	0000                	.2byte	0x0
f80028ac:	f6b4                	.2byte	0xf6b4
f80028ae:	ffff                	.2byte	0xffff
f80028b0:	0048                	.2byte	0x48
f80028b2:	0000                	.2byte	0x0
f80028b4:	4400                	.2byte	0x4400
f80028b6:	100e                	.2byte	0x100e
f80028b8:	8148                	.2byte	0x8148
f80028ba:	8801                	.2byte	0x8801
f80028bc:	4402                	.2byte	0x4402
f80028be:	080c                	.2byte	0x80c
f80028c0:	0000                	.2byte	0x0
f80028c2:	0000                	.2byte	0x0
f80028c4:	001c                	.2byte	0x1c
f80028c6:	0000                	.2byte	0x0
f80028c8:	027c                	.2byte	0x27c
f80028ca:	0000                	.2byte	0x0
f80028cc:	f6dc                	.2byte	0xf6dc
f80028ce:	ffff                	.2byte	0xffff
f80028d0:	0144                	.2byte	0x144
f80028d2:	0000                	.2byte	0x0
f80028d4:	4400                	.2byte	0x4400
f80028d6:	100e                	.2byte	0x100e
f80028d8:	8148                	.2byte	0x8148
f80028da:	8801                	.2byte	0x8801
f80028dc:	4402                	.2byte	0x4402
f80028de:	080c                	.2byte	0x80c
f80028e0:	0000                	.2byte	0x0
f80028e2:	0000                	.2byte	0x0
f80028e4:	001c                	.2byte	0x1c
f80028e6:	0000                	.2byte	0x0
f80028e8:	029c                	.2byte	0x29c
f80028ea:	0000                	.2byte	0x0
f80028ec:	f800                	.2byte	0xf800
f80028ee:	ffff                	.2byte	0xffff
f80028f0:	0024                	.2byte	0x24
f80028f2:	0000                	.2byte	0x0
f80028f4:	4400                	.2byte	0x4400
f80028f6:	100e                	.2byte	0x100e
f80028f8:	8148                	.2byte	0x8148
f80028fa:	8801                	.2byte	0x8801
f80028fc:	4402                	.2byte	0x4402
f80028fe:	080c                	.2byte	0x80c
f8002900:	0000                	.2byte	0x0
f8002902:	0000                	.2byte	0x0
f8002904:	0024                	.2byte	0x24
f8002906:	0000                	.2byte	0x0
f8002908:	02bc                	.2byte	0x2bc
f800290a:	0000                	.2byte	0x0
f800290c:	f804                	.2byte	0xf804
f800290e:	ffff                	.2byte	0xffff
f8002910:	00c8                	.2byte	0xc8
f8002912:	0000                	.2byte	0x0
f8002914:	4400                	.2byte	0x4400
f8002916:	200e                	.2byte	0x200e
f8002918:	8158                	.2byte	0x8158
f800291a:	8801                	.2byte	0x8801
f800291c:	8902                	.2byte	0x8902
f800291e:	93049203          	lh	tp,-1744(s1)
f8002922:	9405                	.2byte	0x9405
f8002924:	4406                	.2byte	0x4406
f8002926:	080c                	.2byte	0x80c
f8002928:	0000                	.2byte	0x0
f800292a:	0000                	.2byte	0x0
f800292c:	001c                	.2byte	0x1c
f800292e:	0000                	.2byte	0x0
f8002930:	02e4                	.2byte	0x2e4
f8002932:	0000                	.2byte	0x0
f8002934:	f8a4                	.2byte	0xf8a4
f8002936:	ffff                	.2byte	0xffff
f8002938:	0024                	.2byte	0x24
f800293a:	0000                	.2byte	0x0
f800293c:	4400                	.2byte	0x4400
f800293e:	100e                	.2byte	0x100e
f8002940:	8148                	.2byte	0x8148
f8002942:	8801                	.2byte	0x8801
f8002944:	4402                	.2byte	0x4402
f8002946:	080c                	.2byte	0x80c
	...

Disassembly of section .comment:

00000000 <.comment>:
   0:	694c                	.2byte	0x694c
   2:	6b6e                	.2byte	0x6b6e
   4:	7265                	.2byte	0x7265
   6:	203a                	.2byte	0x203a
   8:	4c4c                	.2byte	0x4c4c
   a:	2044                	.2byte	0x2044
   c:	3831                	.2byte	0x3831
   e:	312e                	.2byte	0x312e
  10:	372e                	.2byte	0x372e
  12:	0000                	.2byte	0x0
  14:	7572                	.2byte	0x7572
  16:	20637473          	.4byte	0x20637473
  1a:	6576                	.2byte	0x6576
  1c:	7372                	.2byte	0x7372
  1e:	6f69                	.2byte	0x6f69
  20:	206e                	.2byte	0x206e
  22:	2e31                	.2byte	0x2e31
  24:	3138                	.2byte	0x3138
  26:	302e                	.2byte	0x302e
  28:	6e2d                	.2byte	0x6e2d
  2a:	6769                	.2byte	0x6769
  2c:	7468                	.2byte	0x7468
  2e:	796c                	.2byte	0x796c
  30:	2820                	.2byte	0x2820
  32:	3039                	.2byte	0x3039
  34:	3735                	.2byte	0x3735
  36:	66663363          	.4byte	0x66663363
  3a:	2065                	.2byte	0x2065
  3c:	3032                	.2byte	0x3032
  3e:	3432                	.2byte	0x3432
  40:	302d                	.2byte	0x302d
  42:	39312d37          	lui	s10,0x39312
  46:	0029                	.2byte	0x29

Disassembly of section .riscv.attributes:

00000000 <.riscv.attributes>:
   0:	1b41                	.2byte	0x1b41
   2:	0000                	.2byte	0x0
   4:	7200                	.2byte	0x7200
   6:	7369                	.2byte	0x7369
   8:	01007663          	bgeu	zero,a6,14 <_bss+0x14>
   c:	0011                	.2byte	0x11
   e:	0000                	.2byte	0x0
  10:	1004                	.2byte	0x1004
  12:	7205                	.2byte	0x7205
  14:	3376                	.2byte	0x3376
  16:	6932                	.2byte	0x6932
  18:	7032                	.2byte	0x7032
  1a:	0031                	.2byte	0x31
