
./target/riscv32i-unknown-none-elf/release/main:     file format elf32-littleriscv


Disassembly of section .text:

f8000000 <_start>:
f8000000:	00000093          	li	ra,0
f8000004:	00000113          	li	sp,0
f8000008:	00000193          	li	gp,0
f800000c:	00000213          	li	tp,0
f8000010:	00000293          	li	t0,0
f8000014:	00000313          	li	t1,0
f8000018:	00000393          	li	t2,0
f800001c:	00000413          	li	s0,0
f8000020:	00000493          	li	s1,0
f8000024:	00000513          	li	a0,0
f8000028:	00000593          	li	a1,0
f800002c:	00000613          	li	a2,0
f8000030:	00000693          	li	a3,0
f8000034:	00000713          	li	a4,0
f8000038:	00000793          	li	a5,0
f800003c:	00000813          	li	a6,0
f8000040:	00000893          	li	a7,0
f8000044:	00000913          	li	s2,0
f8000048:	00000993          	li	s3,0
f800004c:	00000a13          	li	s4,0
f8000050:	00000a93          	li	s5,0
f8000054:	00000b13          	li	s6,0
f8000058:	00000b93          	li	s7,0
f800005c:	00000c13          	li	s8,0
f8000060:	00000c93          	li	s9,0
f8000064:	00000d13          	li	s10,0
f8000068:	00000d93          	li	s11,0
f800006c:	00000e13          	li	t3,0
f8000070:	00000e93          	li	t4,0
f8000074:	00000f13          	li	t5,0
f8000078:	00000f93          	li	t6,0
f800007c:	000011b7          	lui	gp,0x1
f8000080:	80018193          	add	gp,gp,-2048 # 800 <__global_pointer>
f8000084:	08000137          	lui	sp,0x8000
f8000088:	00010113          	mv	sp,sp
f800008c:	02c000ef          	jal	f80000b8 <main>

f8000090 <wfi_loop>:
f8000090:	10500073          	wfi
f8000094:	ffdff06f          	j	f8000090 <wfi_loop>

f8000098 <_ZN45_$LT$$LP$$RP$$u20$as$u20$core..fmt..Debug$GT$3fmt17hcfc27cdd3d9cdc65E>:
f8000098:	f8002537          	lui	a0,0xf8002
f800009c:	04850693          	add	a3,a0,72 # f8002048 <.Lanon.fad58de7366495db4650cfefac2fcd61.0>
f80000a0:	00200613          	li	a2,2
f80000a4:	00058513          	mv	a0,a1
f80000a8:	00068593          	mv	a1,a3
f80000ac:	00001317          	auipc	t1,0x1
f80000b0:	3c830067          	jr	968(t1) # f8001474 <_ZN4core3fmt9Formatter3pad17hdb3cd97c63ef5752E>

f80000b4 <_ZN4core3ptr29drop_in_place$LT$$LP$$RP$$GT$17h6ed12548bc6f8339E>:
f80000b4:	00008067          	ret

f80000b8 <main>:
f80000b8:	ae010113          	add	sp,sp,-1312 # 7fffae0 <.Lline_table_start1+0x7ffeff0>
f80000bc:	50112e23          	sw	ra,1308(sp)
f80000c0:	50812c23          	sw	s0,1304(sp)
f80000c4:	50912a23          	sw	s1,1300(sp)
f80000c8:	00012423          	sw	zero,8(sp)
f80000cc:	00012623          	sw	zero,12(sp)
f80000d0:	01210413          	add	s0,sp,18
f80000d4:	01210513          	add	a0,sp,18
f80000d8:	40000613          	li	a2,1024
f80000dc:	40000493          	li	s1,1024
f80000e0:	00000593          	li	a1,0
f80000e4:	00002097          	auipc	ra,0x2
f80000e8:	f40080e7          	jalr	-192(ra) # f8002024 <memset>
f80000ec:	00200513          	li	a0,2
f80000f0:	40a11b23          	sh	a0,1046(sp)
f80000f4:	20000513          	li	a0,512
f80000f8:	40a11923          	sh	a0,1042(sp)
f80000fc:	18000513          	li	a0,384
f8000100:	40a11a23          	sh	a0,1044(sp)
f8000104:	4e812423          	sw	s0,1256(sp)
f8000108:	4e912623          	sw	s1,1260(sp)
f800010c:	00800513          	li	a0,8
f8000110:	4ea12823          	sw	a0,1264(sp)
f8000114:	48810513          	add	a0,sp,1160
f8000118:	4e810593          	add	a1,sp,1256
f800011c:	00100613          	li	a2,1
f8000120:	02400693          	li	a3,36
f8000124:	00000097          	auipc	ra,0x0
f8000128:	734080e7          	jalr	1844(ra) # f8000858 <_ZN138_$LT$rvfm..command_list..CommandListBuilder$LT$rvfm..gpu..command..GpuCommands$GT$$u20$as$u20$rvfm..gpu..command..GpuCommandBuilderExt$GT$16configure_buffer17hab92a12f7a3eeafaE>
f800012c:	48812503          	lw	a0,1160(sp)
f8000130:	28050463          	beqz	a0,f80003b8 <main+0x300>
f8000134:	49012503          	lw	a0,1168(sp)
f8000138:	48c12583          	lw	a1,1164(sp)
f800013c:	48812603          	lw	a2,1160(sp)
f8000140:	48a12e23          	sw	a0,1180(sp)
f8000144:	48b12c23          	sw	a1,1176(sp)
f8000148:	48c12a23          	sw	a2,1172(sp)
f800014c:	f8002537          	lui	a0,0xf8002
f8000150:	09050693          	add	a3,a0,144 # f8002090 <.Lanon.fad58de7366495db4650cfefac2fcd61.3>
f8000154:	47c10513          	add	a0,sp,1148
f8000158:	49410593          	add	a1,sp,1172
f800015c:	00000613          	li	a2,0
f8000160:	00000097          	auipc	ra,0x0
f8000164:	79c080e7          	jalr	1948(ra) # f80008fc <_ZN138_$LT$rvfm..command_list..CommandListBuilder$LT$rvfm..gpu..command..GpuCommands$GT$$u20$as$u20$rvfm..gpu..command..GpuCommandBuilderExt$GT$13upload_buffer17hd63b38f6d246eaaeE>
f8000168:	47c12503          	lw	a0,1148(sp)
f800016c:	24050663          	beqz	a0,f80003b8 <main+0x300>
f8000170:	48412503          	lw	a0,1156(sp)
f8000174:	48012583          	lw	a1,1152(sp)
f8000178:	47c12603          	lw	a2,1148(sp)
f800017c:	4aa12423          	sw	a0,1192(sp)
f8000180:	4ab12223          	sw	a1,1188(sp)
f8000184:	4ac12023          	sw	a2,1184(sp)
f8000188:	47010513          	add	a0,sp,1136
f800018c:	4a010593          	add	a1,sp,1184
f8000190:	01000693          	li	a3,16
f8000194:	00000613          	li	a2,0
f8000198:	00000097          	auipc	ra,0x0
f800019c:	6c0080e7          	jalr	1728(ra) # f8000858 <_ZN138_$LT$rvfm..command_list..CommandListBuilder$LT$rvfm..gpu..command..GpuCommands$GT$$u20$as$u20$rvfm..gpu..command..GpuCommandBuilderExt$GT$16configure_buffer17hab92a12f7a3eeafaE>
f80001a0:	47012503          	lw	a0,1136(sp)
f80001a4:	20050a63          	beqz	a0,f80003b8 <main+0x300>
f80001a8:	47812503          	lw	a0,1144(sp)
f80001ac:	47412583          	lw	a1,1140(sp)
f80001b0:	47012603          	lw	a2,1136(sp)
f80001b4:	4aa12a23          	sw	a0,1204(sp)
f80001b8:	4ab12823          	sw	a1,1200(sp)
f80001bc:	4ac12623          	sw	a2,1196(sp)
f80001c0:	46410513          	add	a0,sp,1124
f80001c4:	4ac10593          	add	a1,sp,1196
f80001c8:	41210693          	add	a3,sp,1042
f80001cc:	00000613          	li	a2,0
f80001d0:	00000097          	auipc	ra,0x0
f80001d4:	5c8080e7          	jalr	1480(ra) # f8000798 <_ZN138_$LT$rvfm..command_list..CommandListBuilder$LT$rvfm..gpu..command..GpuCommands$GT$$u20$as$u20$rvfm..gpu..command..GpuCommandBuilderExt$GT$17configure_texture17ha2c6cdf3b095e425E>
f80001d8:	46412503          	lw	a0,1124(sp)
f80001dc:	1c050e63          	beqz	a0,f80003b8 <main+0x300>
f80001e0:	46c12503          	lw	a0,1132(sp)
f80001e4:	46812583          	lw	a1,1128(sp)
f80001e8:	46412603          	lw	a2,1124(sp)
f80001ec:	4ca12023          	sw	a0,1216(sp)
f80001f0:	4ab12e23          	sw	a1,1212(sp)
f80001f4:	4ac12c23          	sw	a2,1208(sp)
f80001f8:	f8002537          	lui	a0,0xf8002
f80001fc:	0b450713          	add	a4,a0,180 # f80020b4 <.Lanon.fad58de7366495db4650cfefac2fcd61.4>
f8000200:	45810513          	add	a0,sp,1112
f8000204:	4b810593          	add	a1,sp,1208
f8000208:	00500793          	li	a5,5
f800020c:	00000613          	li	a2,0
f8000210:	00000693          	li	a3,0
f8000214:	00000097          	auipc	ra,0x0
f8000218:	78c080e7          	jalr	1932(ra) # f80009a0 <_ZN138_$LT$rvfm..command_list..CommandListBuilder$LT$rvfm..gpu..command..GpuCommands$GT$$u20$as$u20$rvfm..gpu..command..GpuCommandBuilderExt$GT$13upload_shader17h84bc48cfd7fce74dE>
f800021c:	45812503          	lw	a0,1112(sp)
f8000220:	18050c63          	beqz	a0,f80003b8 <main+0x300>
f8000224:	46012503          	lw	a0,1120(sp)
f8000228:	45c12583          	lw	a1,1116(sp)
f800022c:	45812603          	lw	a2,1112(sp)
f8000230:	4ca12623          	sw	a0,1228(sp)
f8000234:	4cb12423          	sw	a1,1224(sp)
f8000238:	4cc12223          	sw	a2,1220(sp)
f800023c:	f8002537          	lui	a0,0xf8002
f8000240:	0b950713          	add	a4,a0,185 # f80020b9 <.Lanon.fad58de7366495db4650cfefac2fcd61.5>
f8000244:	44c10513          	add	a0,sp,1100
f8000248:	4c410593          	add	a1,sp,1220
f800024c:	00100613          	li	a2,1
f8000250:	00100693          	li	a3,1
f8000254:	00500793          	li	a5,5
f8000258:	00000097          	auipc	ra,0x0
f800025c:	748080e7          	jalr	1864(ra) # f80009a0 <_ZN138_$LT$rvfm..command_list..CommandListBuilder$LT$rvfm..gpu..command..GpuCommands$GT$$u20$as$u20$rvfm..gpu..command..GpuCommandBuilderExt$GT$13upload_shader17h84bc48cfd7fce74dE>
f8000260:	44c12503          	lw	a0,1100(sp)
f8000264:	14050a63          	beqz	a0,f80003b8 <main+0x300>
f8000268:	45412503          	lw	a0,1108(sp)
f800026c:	45012583          	lw	a1,1104(sp)
f8000270:	44c12603          	lw	a2,1100(sp)
f8000274:	4ca12c23          	sw	a0,1240(sp)
f8000278:	4cb12a23          	sw	a1,1236(sp)
f800027c:	4cc12823          	sw	a2,1232(sp)
f8000280:	f8002537          	lui	a0,0xf8002
f8000284:	11050693          	add	a3,a0,272 # f8002110 <.Lanon.fad58de7366495db4650cfefac2fcd61.15>
f8000288:	44010513          	add	a0,sp,1088
f800028c:	4d010593          	add	a1,sp,1232
f8000290:	00000613          	li	a2,0
f8000294:	00000097          	auipc	ra,0x0
f8000298:	7c4080e7          	jalr	1988(ra) # f8000a58 <_ZN138_$LT$rvfm..command_list..CommandListBuilder$LT$rvfm..gpu..command..GpuCommands$GT$$u20$as$u20$rvfm..gpu..command..GpuCommandBuilderExt$GT$30upload_graphics_pipeline_state17h27b8e124cf368675E>
f800029c:	44012503          	lw	a0,1088(sp)
f80002a0:	10050c63          	beqz	a0,f80003b8 <main+0x300>
f80002a4:	44812503          	lw	a0,1096(sp)
f80002a8:	44412583          	lw	a1,1092(sp)
f80002ac:	44012603          	lw	a2,1088(sp)
f80002b0:	4ea12223          	sw	a0,1252(sp)
f80002b4:	4eb12023          	sw	a1,1248(sp)
f80002b8:	4cc12e23          	sw	a2,1244(sp)
f80002bc:	4e012423          	sw	zero,1256(sp)
f80002c0:	4e012623          	sw	zero,1260(sp)
f80002c4:	4e012823          	sw	zero,1264(sp)
f80002c8:	3f800537          	lui	a0,0x3f800
f80002cc:	4ea12a23          	sw	a0,1268(sp)
f80002d0:	43410513          	add	a0,sp,1076
f80002d4:	4dc10593          	add	a1,sp,1244
f80002d8:	4e810693          	add	a3,sp,1256
f80002dc:	00000613          	li	a2,0
f80002e0:	00000097          	auipc	ra,0x0
f80002e4:	364080e7          	jalr	868(ra) # f8000644 <_ZN138_$LT$rvfm..command_list..CommandListBuilder$LT$rvfm..gpu..command..GpuCommands$GT$$u20$as$u20$rvfm..gpu..command..GpuCommandBuilderExt$GT$24set_constant_sampler_f3217h4202c7189e09698fE>
f80002e8:	43412503          	lw	a0,1076(sp)
f80002ec:	0c050663          	beqz	a0,f80003b8 <main+0x300>
f80002f0:	43c12503          	lw	a0,1084(sp)
f80002f4:	43812583          	lw	a1,1080(sp)
f80002f8:	43412603          	lw	a2,1076(sp)
f80002fc:	50a12023          	sw	a0,1280(sp)
f8000300:	4eb12e23          	sw	a1,1276(sp)
f8000304:	4ec12c23          	sw	a2,1272(sp)
f8000308:	42810513          	add	a0,sp,1064
f800030c:	4f810593          	add	a1,sp,1272
f8000310:	00000613          	li	a2,0
f8000314:	00000693          	li	a3,0
f8000318:	00000097          	auipc	ra,0x0
f800031c:	200080e7          	jalr	512(ra) # f8000518 <_ZN138_$LT$rvfm..command_list..CommandListBuilder$LT$rvfm..gpu..command..GpuCommands$GT$$u20$as$u20$rvfm..gpu..command..GpuCommandBuilderExt$GT$13clear_texture17h99b619923b95d955E>
f8000320:	42812503          	lw	a0,1064(sp)
f8000324:	08050a63          	beqz	a0,f80003b8 <main+0x300>
f8000328:	43012503          	lw	a0,1072(sp)
f800032c:	42c12583          	lw	a1,1068(sp)
f8000330:	42812603          	lw	a2,1064(sp)
f8000334:	50a12623          	sw	a0,1292(sp)
f8000338:	50b12423          	sw	a1,1288(sp)
f800033c:	50c12223          	sw	a2,1284(sp)
f8000340:	41810513          	add	a0,sp,1048
f8000344:	50410593          	add	a1,sp,1284
f8000348:	00c10693          	add	a3,sp,12
f800034c:	00000613          	li	a2,0
f8000350:	00000713          	li	a4,0
f8000354:	00000097          	auipc	ra,0x0
f8000358:	248080e7          	jalr	584(ra) # f800059c <_ZN138_$LT$rvfm..command_list..CommandListBuilder$LT$rvfm..gpu..command..GpuCommands$GT$$u20$as$u20$rvfm..gpu..command..GpuCommandBuilderExt$GT$15present_texture17h3f1d832202c0201bE>
f800035c:	41812503          	lw	a0,1048(sp)
f8000360:	04050c63          	beqz	a0,f80003b8 <main+0x300>
f8000364:	41c12583          	lw	a1,1052(sp)
f8000368:	00300613          	li	a2,3
f800036c:	06b67a63          	bgeu	a2,a1,f80003e0 <main+0x328>
f8000370:	42012603          	lw	a2,1056(sp)
f8000374:	ff860613          	add	a2,a2,-8
f8000378:	00c50023          	sb	a2,0(a0) # 3f800000 <__stack_ptr+0x37800000>
f800037c:	01865693          	srl	a3,a2,0x18
f8000380:	00d501a3          	sb	a3,3(a0)
f8000384:	01065693          	srl	a3,a2,0x10
f8000388:	00d50123          	sb	a3,2(a0)
f800038c:	00865613          	srl	a2,a2,0x8
f8000390:	00c500a3          	sb	a2,1(a0)
f8000394:	00810613          	add	a2,sp,8
f8000398:	00000097          	auipc	ra,0x0
f800039c:	764080e7          	jalr	1892(ra) # f8000afc <_ZN4rvfm3gpu7command10gpu_submit17h6d2b5bbf77eddb45E>
f80003a0:	4ea12423          	sw	a0,1256(sp)
f80003a4:	4e810513          	add	a0,sp,1256
f80003a8:	00000097          	auipc	ra,0x0
f80003ac:	7a0080e7          	jalr	1952(ra) # f8000b48 <_ZN83_$LT$rvfm..command_list..CommandListCompletion$u20$as$u20$core..ops..drop..Drop$GT$4drop17h12e44fd117c56e4eE>
f80003b0:	10500073          	wfi
f80003b4:	ffdff06f          	j	f80003b0 <main+0x2f8>
f80003b8:	f8002537          	lui	a0,0xf8002
f80003bc:	11c50513          	add	a0,a0,284 # f800211c <.Lanon.fad58de7366495db4650cfefac2fcd61.16>
f80003c0:	f80025b7          	lui	a1,0xf8002
f80003c4:	14858693          	add	a3,a1,328 # f8002148 <.Lanon.fad58de7366495db4650cfefac2fcd61.17>
f80003c8:	f80025b7          	lui	a1,0xf8002
f80003cc:	16458713          	add	a4,a1,356 # f8002164 <.Lanon.fad58de7366495db4650cfefac2fcd61.19>
f80003d0:	02b00593          	li	a1,43
f80003d4:	51310613          	add	a2,sp,1299
f80003d8:	00001097          	auipc	ra,0x1
f80003dc:	9b0080e7          	jalr	-1616(ra) # f8000d88 <_ZN4core6result13unwrap_failed17hedb28de3d790df58E>
f80003e0:	f8002537          	lui	a0,0xf8002
f80003e4:	08050613          	add	a2,a0,128 # f8002080 <.Lanon.fad58de7366495db4650cfefac2fcd61.2>
f80003e8:	00400513          	li	a0,4
f80003ec:	00001097          	auipc	ra,0x1
f80003f0:	3b8080e7          	jalr	952(ra) # f80017a4 <_ZN4core5slice5index24slice_end_index_len_fail17h2cc6c563155bcb9fE>

f80003f4 <_ZN44_$LT$$RF$T$u20$as$u20$core..fmt..Display$GT$3fmt17h3964ac1bd09498ebE>:
f80003f4:	00052603          	lw	a2,0(a0)
f80003f8:	00452683          	lw	a3,4(a0)
f80003fc:	00058713          	mv	a4,a1
f8000400:	00060513          	mv	a0,a2
f8000404:	00068593          	mv	a1,a3
f8000408:	00070613          	mv	a2,a4
f800040c:	00001317          	auipc	t1,0x1
f8000410:	36430067          	jr	868(t1) # f8001770 <_ZN42_$LT$str$u20$as$u20$core..fmt..Display$GT$3fmt17ha14fcfe32539fe4cE>

f8000414 <_ZN4core3fmt5Write10write_char17h71826567ee6801c9E>:
f8000414:	ff010113          	add	sp,sp,-16
f8000418:	08000513          	li	a0,128
f800041c:	00012623          	sw	zero,12(sp)
f8000420:	00a5f863          	bgeu	a1,a0,f8000430 <_ZN4core3fmt5Write10write_char17h71826567ee6801c9E+0x1c>
f8000424:	00b10623          	sb	a1,12(sp)
f8000428:	00100513          	li	a0,1
f800042c:	0a40006f          	j	f80004d0 <_ZN4core3fmt5Write10write_char17h71826567ee6801c9E+0xbc>
f8000430:	00b5d513          	srl	a0,a1,0xb
f8000434:	02051263          	bnez	a0,f8000458 <_ZN4core3fmt5Write10write_char17h71826567ee6801c9E+0x44>
f8000438:	0065d513          	srl	a0,a1,0x6
f800043c:	0c056513          	or	a0,a0,192
f8000440:	00a10623          	sb	a0,12(sp)
f8000444:	03f5f513          	and	a0,a1,63
f8000448:	08050513          	add	a0,a0,128
f800044c:	00a106a3          	sb	a0,13(sp)
f8000450:	00200513          	li	a0,2
f8000454:	07c0006f          	j	f80004d0 <_ZN4core3fmt5Write10write_char17h71826567ee6801c9E+0xbc>
f8000458:	0105d513          	srl	a0,a1,0x10
f800045c:	02051a63          	bnez	a0,f8000490 <_ZN4core3fmt5Write10write_char17h71826567ee6801c9E+0x7c>
f8000460:	00c5d513          	srl	a0,a1,0xc
f8000464:	0e056513          	or	a0,a0,224
f8000468:	00a10623          	sb	a0,12(sp)
f800046c:	01459513          	sll	a0,a1,0x14
f8000470:	01a55513          	srl	a0,a0,0x1a
f8000474:	08050513          	add	a0,a0,128
f8000478:	00a106a3          	sb	a0,13(sp)
f800047c:	03f5f513          	and	a0,a1,63
f8000480:	08050513          	add	a0,a0,128
f8000484:	00a10723          	sb	a0,14(sp)
f8000488:	00300513          	li	a0,3
f800048c:	0440006f          	j	f80004d0 <_ZN4core3fmt5Write10write_char17h71826567ee6801c9E+0xbc>
f8000490:	00b59513          	sll	a0,a1,0xb
f8000494:	01d55513          	srl	a0,a0,0x1d
f8000498:	0f050513          	add	a0,a0,240
f800049c:	00a10623          	sb	a0,12(sp)
f80004a0:	00e59513          	sll	a0,a1,0xe
f80004a4:	01a55513          	srl	a0,a0,0x1a
f80004a8:	08050513          	add	a0,a0,128
f80004ac:	00a106a3          	sb	a0,13(sp)
f80004b0:	01459513          	sll	a0,a1,0x14
f80004b4:	01a55513          	srl	a0,a0,0x1a
f80004b8:	08050513          	add	a0,a0,128
f80004bc:	00a10723          	sb	a0,14(sp)
f80004c0:	03f5f513          	and	a0,a1,63
f80004c4:	08050513          	add	a0,a0,128
f80004c8:	00a107a3          	sb	a0,15(sp)
f80004cc:	00400513          	li	a0,4
f80004d0:	800005b7          	lui	a1,0x80000
f80004d4:	00a5a223          	sw	a0,4(a1) # 80000004 <__stack_ptr+0x78000004>
f80004d8:	00c10513          	add	a0,sp,12
f80004dc:	00a5a023          	sw	a0,0(a1)
f80004e0:	00100513          	li	a0,1
f80004e4:	00a5a623          	sw	a0,12(a1)
f80004e8:	0085a503          	lw	a0,8(a1)
f80004ec:	00a03533          	snez	a0,a0
f80004f0:	01010113          	add	sp,sp,16
f80004f4:	00008067          	ret

f80004f8 <_ZN4core3fmt5Write9write_fmt17hbb82cdc73abcefc7E>:
f80004f8:	f8002637          	lui	a2,0xf8002
f80004fc:	17460613          	add	a2,a2,372 # f8002174 <.Lanon.63019b6cee9d0381df4292a7156adc92.0>
f8000500:	00058693          	mv	a3,a1
f8000504:	00060593          	mv	a1,a2
f8000508:	00068613          	mv	a2,a3
f800050c:	00001317          	auipc	t1,0x1
f8000510:	8f830067          	jr	-1800(t1) # f8000e04 <_ZN4core3fmt5write17h68b072aff6485a9eE>

f8000514 <_ZN4core3ptr45drop_in_place$LT$rvfm..debug..DebugWriter$GT$17h609285577f6b40b0E>:
f8000514:	00008067          	ret

f8000518 <_ZN138_$LT$rvfm..command_list..CommandListBuilder$LT$rvfm..gpu..command..GpuCommands$GT$$u20$as$u20$rvfm..gpu..command..GpuCommandBuilderExt$GT$13clear_texture17h99b619923b95d955E>:
f8000518:	00058793          	mv	a5,a1
f800051c:	0045a583          	lw	a1,4(a1)
f8000520:	0087a703          	lw	a4,8(a5)
f8000524:	40e58833          	sub	a6,a1,a4
f8000528:	00400893          	li	a7,4
f800052c:	0308fe63          	bgeu	a7,a6,f8000568 <_ZN138_$LT$rvfm..command_list..CommandListBuilder$LT$rvfm..gpu..command..GpuCommands$GT$$u20$as$u20$rvfm..gpu..command..GpuCommandBuilderExt$GT$13clear_texture17h99b619923b95d955E+0x50>
f8000530:	ffb00893          	li	a7,-5
f8000534:	00470813          	add	a6,a4,4
f8000538:	02e8ec63          	bltu	a7,a4,f8000570 <_ZN138_$LT$rvfm..command_list..CommandListBuilder$LT$rvfm..gpu..command..GpuCommands$GT$$u20$as$u20$rvfm..gpu..command..GpuCommandBuilderExt$GT$13clear_texture17h99b619923b95d955E+0x58>
f800053c:	0505e663          	bltu	a1,a6,f8000588 <_ZN138_$LT$rvfm..command_list..CommandListBuilder$LT$rvfm..gpu..command..GpuCommands$GT$$u20$as$u20$rvfm..gpu..command..GpuCommandBuilderExt$GT$13clear_texture17h99b619923b95d955E+0x70>
f8000540:	0007a783          	lw	a5,0(a5)
f8000544:	00e78733          	add	a4,a5,a4
f8000548:	00070023          	sb	zero,0(a4)
f800054c:	000700a3          	sb	zero,1(a4)
f8000550:	00c70123          	sb	a2,2(a4)
f8000554:	00d701a3          	sb	a3,3(a4)
f8000558:	00f52023          	sw	a5,0(a0)
f800055c:	00b52223          	sw	a1,4(a0)
f8000560:	01052423          	sw	a6,8(a0)
f8000564:	00008067          	ret
f8000568:	00052023          	sw	zero,0(a0)
f800056c:	00008067          	ret
f8000570:	f8002537          	lui	a0,0xf8002
f8000574:	26850613          	add	a2,a0,616 # f8002268 <.Lanon.63019b6cee9d0381df4292a7156adc92.7>
f8000578:	00070513          	mv	a0,a4
f800057c:	00080593          	mv	a1,a6
f8000580:	00001097          	auipc	ra,0x1
f8000584:	2a8080e7          	jalr	680(ra) # f8001828 <_ZN4core5slice5index22slice_index_order_fail17h4bef6ffad0bff137E>
f8000588:	f8002537          	lui	a0,0xf8002
f800058c:	26850613          	add	a2,a0,616 # f8002268 <.Lanon.63019b6cee9d0381df4292a7156adc92.7>
f8000590:	00080513          	mv	a0,a6
f8000594:	00001097          	auipc	ra,0x1
f8000598:	210080e7          	jalr	528(ra) # f80017a4 <_ZN4core5slice5index24slice_end_index_len_fail17h2cc6c563155bcb9fE>

f800059c <_ZN138_$LT$rvfm..command_list..CommandListBuilder$LT$rvfm..gpu..command..GpuCommands$GT$$u20$as$u20$rvfm..gpu..command..GpuCommandBuilderExt$GT$15present_texture17h3f1d832202c0201bE>:
f800059c:	00058893          	mv	a7,a1
f80005a0:	0045a583          	lw	a1,4(a1)
f80005a4:	0088a783          	lw	a5,8(a7)
f80005a8:	40f58833          	sub	a6,a1,a5
f80005ac:	00900293          	li	t0,9
f80005b0:	06586063          	bltu	a6,t0,f8000610 <_ZN138_$LT$rvfm..command_list..CommandListBuilder$LT$rvfm..gpu..command..GpuCommands$GT$$u20$as$u20$rvfm..gpu..command..GpuCommandBuilderExt$GT$15present_texture17h3f1d832202c0201bE+0x74>
f80005b4:	ff700293          	li	t0,-9
f80005b8:	00878813          	add	a6,a5,8
f80005bc:	04f2ee63          	bltu	t0,a5,f8000618 <_ZN138_$LT$rvfm..command_list..CommandListBuilder$LT$rvfm..gpu..command..GpuCommands$GT$$u20$as$u20$rvfm..gpu..command..GpuCommandBuilderExt$GT$15present_texture17h3f1d832202c0201bE+0x7c>
f80005c0:	0705e863          	bltu	a1,a6,f8000630 <_ZN138_$LT$rvfm..command_list..CommandListBuilder$LT$rvfm..gpu..command..GpuCommands$GT$$u20$as$u20$rvfm..gpu..command..GpuCommandBuilderExt$GT$15present_texture17h3f1d832202c0201bE+0x94>
f80005c4:	0008a883          	lw	a7,0(a7)
f80005c8:	0086d293          	srl	t0,a3,0x8
f80005cc:	0106d313          	srl	t1,a3,0x10
f80005d0:	0186d393          	srl	t2,a3,0x18
f80005d4:	00f887b3          	add	a5,a7,a5
f80005d8:	00100e13          	li	t3,1
f80005dc:	01c78023          	sb	t3,0(a5)
f80005e0:	000780a3          	sb	zero,1(a5)
f80005e4:	00c78123          	sb	a2,2(a5)
f80005e8:	00e781a3          	sb	a4,3(a5)
f80005ec:	00d78223          	sb	a3,4(a5)
f80005f0:	005782a3          	sb	t0,5(a5)
f80005f4:	00678323          	sb	t1,6(a5)
f80005f8:	007783a3          	sb	t2,7(a5)
f80005fc:	01152023          	sw	a7,0(a0)
f8000600:	00b52223          	sw	a1,4(a0)
f8000604:	01052423          	sw	a6,8(a0)
f8000608:	00d52623          	sw	a3,12(a0)
f800060c:	00008067          	ret
f8000610:	00052023          	sw	zero,0(a0)
f8000614:	00008067          	ret
f8000618:	f8002537          	lui	a0,0xf8002
f800061c:	26850613          	add	a2,a0,616 # f8002268 <.Lanon.63019b6cee9d0381df4292a7156adc92.7>
f8000620:	00078513          	mv	a0,a5
f8000624:	00080593          	mv	a1,a6
f8000628:	00001097          	auipc	ra,0x1
f800062c:	200080e7          	jalr	512(ra) # f8001828 <_ZN4core5slice5index22slice_index_order_fail17h4bef6ffad0bff137E>
f8000630:	f8002537          	lui	a0,0xf8002
f8000634:	26850613          	add	a2,a0,616 # f8002268 <.Lanon.63019b6cee9d0381df4292a7156adc92.7>
f8000638:	00080513          	mv	a0,a6
f800063c:	00001097          	auipc	ra,0x1
f8000640:	168080e7          	jalr	360(ra) # f80017a4 <_ZN4core5slice5index24slice_end_index_len_fail17h2cc6c563155bcb9fE>

f8000644 <_ZN138_$LT$rvfm..command_list..CommandListBuilder$LT$rvfm..gpu..command..GpuCommands$GT$$u20$as$u20$rvfm..gpu..command..GpuCommandBuilderExt$GT$24set_constant_sampler_f3217h4202c7189e09698fE>:
f8000644:	fe010113          	add	sp,sp,-32
f8000648:	00812e23          	sw	s0,28(sp)
f800064c:	00912c23          	sw	s1,24(sp)
f8000650:	01212a23          	sw	s2,20(sp)
f8000654:	01312823          	sw	s3,16(sp)
f8000658:	01412623          	sw	s4,12(sp)
f800065c:	01512423          	sw	s5,8(sp)
f8000660:	01612223          	sw	s6,4(sp)
f8000664:	01712023          	sw	s7,0(sp)
f8000668:	00058793          	mv	a5,a1
f800066c:	0045a583          	lw	a1,4(a1)
f8000670:	0087a703          	lw	a4,8(a5)
f8000674:	40e58833          	sub	a6,a1,a4
f8000678:	01400893          	li	a7,20
f800067c:	0d08f263          	bgeu	a7,a6,f8000740 <_ZN138_$LT$rvfm..command_list..CommandListBuilder$LT$rvfm..gpu..command..GpuCommands$GT$$u20$as$u20$rvfm..gpu..command..GpuCommandBuilderExt$GT$24set_constant_sampler_f3217h4202c7189e09698fE+0xfc>
f8000680:	feb00893          	li	a7,-21
f8000684:	01470813          	add	a6,a4,20
f8000688:	0ee8e263          	bltu	a7,a4,f800076c <_ZN138_$LT$rvfm..command_list..CommandListBuilder$LT$rvfm..gpu..command..GpuCommands$GT$$u20$as$u20$rvfm..gpu..command..GpuCommandBuilderExt$GT$24set_constant_sampler_f3217h4202c7189e09698fE+0x128>
f800068c:	0f05ec63          	bltu	a1,a6,f8000784 <_ZN138_$LT$rvfm..command_list..CommandListBuilder$LT$rvfm..gpu..command..GpuCommands$GT$$u20$as$u20$rvfm..gpu..command..GpuCommandBuilderExt$GT$24set_constant_sampler_f3217h4202c7189e09698fE+0x140>
f8000690:	0006c883          	lbu	a7,0(a3)
f8000694:	0016c283          	lbu	t0,1(a3)
f8000698:	0026c303          	lbu	t1,2(a3)
f800069c:	0036c383          	lbu	t2,3(a3)
f80006a0:	0046ce03          	lbu	t3,4(a3)
f80006a4:	0056ce83          	lbu	t4,5(a3)
f80006a8:	0066cf03          	lbu	t5,6(a3)
f80006ac:	0076cf83          	lbu	t6,7(a3)
f80006b0:	0086c403          	lbu	s0,8(a3)
f80006b4:	0096c483          	lbu	s1,9(a3)
f80006b8:	00a6c903          	lbu	s2,10(a3)
f80006bc:	00b6c983          	lbu	s3,11(a3)
f80006c0:	00c6ca03          	lbu	s4,12(a3)
f80006c4:	0007a783          	lw	a5,0(a5)
f80006c8:	00d6ca83          	lbu	s5,13(a3)
f80006cc:	00e6cb03          	lbu	s6,14(a3)
f80006d0:	00f6c683          	lbu	a3,15(a3)
f80006d4:	00e78733          	add	a4,a5,a4
f80006d8:	00200b93          	li	s7,2
f80006dc:	01770023          	sb	s7,0(a4)
f80006e0:	000700a3          	sb	zero,1(a4)
f80006e4:	00c70123          	sb	a2,2(a4)
f80006e8:	00700613          	li	a2,7
f80006ec:	00c701a3          	sb	a2,3(a4)
f80006f0:	01170223          	sb	a7,4(a4)
f80006f4:	005702a3          	sb	t0,5(a4)
f80006f8:	00670323          	sb	t1,6(a4)
f80006fc:	007703a3          	sb	t2,7(a4)
f8000700:	01c70423          	sb	t3,8(a4)
f8000704:	01d704a3          	sb	t4,9(a4)
f8000708:	01e70523          	sb	t5,10(a4)
f800070c:	01f705a3          	sb	t6,11(a4)
f8000710:	00870623          	sb	s0,12(a4)
f8000714:	009706a3          	sb	s1,13(a4)
f8000718:	01270723          	sb	s2,14(a4)
f800071c:	013707a3          	sb	s3,15(a4)
f8000720:	01470823          	sb	s4,16(a4)
f8000724:	015708a3          	sb	s5,17(a4)
f8000728:	01670923          	sb	s6,18(a4)
f800072c:	00d709a3          	sb	a3,19(a4)
f8000730:	00f52023          	sw	a5,0(a0)
f8000734:	00b52223          	sw	a1,4(a0)
f8000738:	01052423          	sw	a6,8(a0)
f800073c:	0080006f          	j	f8000744 <_ZN138_$LT$rvfm..command_list..CommandListBuilder$LT$rvfm..gpu..command..GpuCommands$GT$$u20$as$u20$rvfm..gpu..command..GpuCommandBuilderExt$GT$24set_constant_sampler_f3217h4202c7189e09698fE+0x100>
f8000740:	00052023          	sw	zero,0(a0)
f8000744:	01c12403          	lw	s0,28(sp)
f8000748:	01812483          	lw	s1,24(sp)
f800074c:	01412903          	lw	s2,20(sp)
f8000750:	01012983          	lw	s3,16(sp)
f8000754:	00c12a03          	lw	s4,12(sp)
f8000758:	00812a83          	lw	s5,8(sp)
f800075c:	00412b03          	lw	s6,4(sp)
f8000760:	00012b83          	lw	s7,0(sp)
f8000764:	02010113          	add	sp,sp,32
f8000768:	00008067          	ret
f800076c:	f8002537          	lui	a0,0xf8002
f8000770:	26850613          	add	a2,a0,616 # f8002268 <.Lanon.63019b6cee9d0381df4292a7156adc92.7>
f8000774:	00070513          	mv	a0,a4
f8000778:	00080593          	mv	a1,a6
f800077c:	00001097          	auipc	ra,0x1
f8000780:	0ac080e7          	jalr	172(ra) # f8001828 <_ZN4core5slice5index22slice_index_order_fail17h4bef6ffad0bff137E>
f8000784:	f8002537          	lui	a0,0xf8002
f8000788:	26850613          	add	a2,a0,616 # f8002268 <.Lanon.63019b6cee9d0381df4292a7156adc92.7>
f800078c:	00080513          	mv	a0,a6
f8000790:	00001097          	auipc	ra,0x1
f8000794:	014080e7          	jalr	20(ra) # f80017a4 <_ZN4core5slice5index24slice_end_index_len_fail17h2cc6c563155bcb9fE>

f8000798 <_ZN138_$LT$rvfm..command_list..CommandListBuilder$LT$rvfm..gpu..command..GpuCommands$GT$$u20$as$u20$rvfm..gpu..command..GpuCommandBuilderExt$GT$17configure_texture17ha2c6cdf3b095e425E>:
f8000798:	00058793          	mv	a5,a1
f800079c:	0045a583          	lw	a1,4(a1)
f80007a0:	0087a703          	lw	a4,8(a5)
f80007a4:	40e58833          	sub	a6,a1,a4
f80007a8:	00c00893          	li	a7,12
f80007ac:	0708fc63          	bgeu	a7,a6,f8000824 <_ZN138_$LT$rvfm..command_list..CommandListBuilder$LT$rvfm..gpu..command..GpuCommands$GT$$u20$as$u20$rvfm..gpu..command..GpuCommandBuilderExt$GT$17configure_texture17ha2c6cdf3b095e425E+0x8c>
f80007b0:	ff300893          	li	a7,-13
f80007b4:	00c70813          	add	a6,a4,12
f80007b8:	06e8ea63          	bltu	a7,a4,f800082c <_ZN138_$LT$rvfm..command_list..CommandListBuilder$LT$rvfm..gpu..command..GpuCommands$GT$$u20$as$u20$rvfm..gpu..command..GpuCommandBuilderExt$GT$17configure_texture17ha2c6cdf3b095e425E+0x94>
f80007bc:	0905e463          	bltu	a1,a6,f8000844 <_ZN138_$LT$rvfm..command_list..CommandListBuilder$LT$rvfm..gpu..command..GpuCommands$GT$$u20$as$u20$rvfm..gpu..command..GpuCommandBuilderExt$GT$17configure_texture17ha2c6cdf3b095e425E+0xac>
f80007c0:	0006d883          	lhu	a7,0(a3)
f80007c4:	0026d283          	lhu	t0,2(a3)
f80007c8:	0088d313          	srl	t1,a7,0x8
f80007cc:	0007a783          	lw	a5,0(a5)
f80007d0:	0082d393          	srl	t2,t0,0x8
f80007d4:	0046ce03          	lbu	t3,4(a3)
f80007d8:	0056c683          	lbu	a3,5(a3)
f80007dc:	00e78733          	add	a4,a5,a4
f80007e0:	00500e93          	li	t4,5
f80007e4:	01d70023          	sb	t4,0(a4)
f80007e8:	000700a3          	sb	zero,1(a4)
f80007ec:	01170123          	sb	a7,2(a4)
f80007f0:	006701a3          	sb	t1,3(a4)
f80007f4:	00570223          	sb	t0,4(a4)
f80007f8:	007702a3          	sb	t2,5(a4)
f80007fc:	00c70323          	sb	a2,6(a4)
f8000800:	01c703a3          	sb	t3,7(a4)
f8000804:	00d70423          	sb	a3,8(a4)
f8000808:	000704a3          	sb	zero,9(a4)
f800080c:	00070523          	sb	zero,10(a4)
f8000810:	000705a3          	sb	zero,11(a4)
f8000814:	00f52023          	sw	a5,0(a0)
f8000818:	00b52223          	sw	a1,4(a0)
f800081c:	01052423          	sw	a6,8(a0)
f8000820:	00008067          	ret
f8000824:	00052023          	sw	zero,0(a0)
f8000828:	00008067          	ret
f800082c:	f8002537          	lui	a0,0xf8002
f8000830:	26850613          	add	a2,a0,616 # f8002268 <.Lanon.63019b6cee9d0381df4292a7156adc92.7>
f8000834:	00070513          	mv	a0,a4
f8000838:	00080593          	mv	a1,a6
f800083c:	00001097          	auipc	ra,0x1
f8000840:	fec080e7          	jalr	-20(ra) # f8001828 <_ZN4core5slice5index22slice_index_order_fail17h4bef6ffad0bff137E>
f8000844:	f8002537          	lui	a0,0xf8002
f8000848:	26850613          	add	a2,a0,616 # f8002268 <.Lanon.63019b6cee9d0381df4292a7156adc92.7>
f800084c:	00080513          	mv	a0,a6
f8000850:	00001097          	auipc	ra,0x1
f8000854:	f54080e7          	jalr	-172(ra) # f80017a4 <_ZN4core5slice5index24slice_end_index_len_fail17h2cc6c563155bcb9fE>

f8000858 <_ZN138_$LT$rvfm..command_list..CommandListBuilder$LT$rvfm..gpu..command..GpuCommands$GT$$u20$as$u20$rvfm..gpu..command..GpuCommandBuilderExt$GT$16configure_buffer17hab92a12f7a3eeafaE>:
f8000858:	00058813          	mv	a6,a1
f800085c:	0045a583          	lw	a1,4(a1)
f8000860:	00882703          	lw	a4,8(a6)
f8000864:	40e587b3          	sub	a5,a1,a4
f8000868:	00800893          	li	a7,8
f800086c:	04f8fe63          	bgeu	a7,a5,f80008c8 <_ZN138_$LT$rvfm..command_list..CommandListBuilder$LT$rvfm..gpu..command..GpuCommands$GT$$u20$as$u20$rvfm..gpu..command..GpuCommandBuilderExt$GT$16configure_buffer17hab92a12f7a3eeafaE+0x70>
f8000870:	ff700893          	li	a7,-9
f8000874:	00870793          	add	a5,a4,8
f8000878:	04e8ec63          	bltu	a7,a4,f80008d0 <_ZN138_$LT$rvfm..command_list..CommandListBuilder$LT$rvfm..gpu..command..GpuCommands$GT$$u20$as$u20$rvfm..gpu..command..GpuCommandBuilderExt$GT$16configure_buffer17hab92a12f7a3eeafaE+0x78>
f800087c:	06f5e663          	bltu	a1,a5,f80008e8 <_ZN138_$LT$rvfm..command_list..CommandListBuilder$LT$rvfm..gpu..command..GpuCommands$GT$$u20$as$u20$rvfm..gpu..command..GpuCommandBuilderExt$GT$16configure_buffer17hab92a12f7a3eeafaE+0x90>
f8000880:	00082803          	lw	a6,0(a6)
f8000884:	0086d893          	srl	a7,a3,0x8
f8000888:	0106d293          	srl	t0,a3,0x10
f800088c:	0186d313          	srl	t1,a3,0x18
f8000890:	00e80733          	add	a4,a6,a4
f8000894:	00700393          	li	t2,7
f8000898:	00770023          	sb	t2,0(a4)
f800089c:	000700a3          	sb	zero,1(a4)
f80008a0:	00070123          	sb	zero,2(a4)
f80008a4:	00c701a3          	sb	a2,3(a4)
f80008a8:	00d70223          	sb	a3,4(a4)
f80008ac:	011702a3          	sb	a7,5(a4)
f80008b0:	00570323          	sb	t0,6(a4)
f80008b4:	006703a3          	sb	t1,7(a4)
f80008b8:	01052023          	sw	a6,0(a0)
f80008bc:	00b52223          	sw	a1,4(a0)
f80008c0:	00f52423          	sw	a5,8(a0)
f80008c4:	00008067          	ret
f80008c8:	00052023          	sw	zero,0(a0)
f80008cc:	00008067          	ret
f80008d0:	f8002537          	lui	a0,0xf8002
f80008d4:	26850613          	add	a2,a0,616 # f8002268 <.Lanon.63019b6cee9d0381df4292a7156adc92.7>
f80008d8:	00070513          	mv	a0,a4
f80008dc:	00078593          	mv	a1,a5
f80008e0:	00001097          	auipc	ra,0x1
f80008e4:	f48080e7          	jalr	-184(ra) # f8001828 <_ZN4core5slice5index22slice_index_order_fail17h4bef6ffad0bff137E>
f80008e8:	f8002537          	lui	a0,0xf8002
f80008ec:	26850613          	add	a2,a0,616 # f8002268 <.Lanon.63019b6cee9d0381df4292a7156adc92.7>
f80008f0:	00078513          	mv	a0,a5
f80008f4:	00001097          	auipc	ra,0x1
f80008f8:	eb0080e7          	jalr	-336(ra) # f80017a4 <_ZN4core5slice5index24slice_end_index_len_fail17h2cc6c563155bcb9fE>

f80008fc <_ZN138_$LT$rvfm..command_list..CommandListBuilder$LT$rvfm..gpu..command..GpuCommands$GT$$u20$as$u20$rvfm..gpu..command..GpuCommandBuilderExt$GT$13upload_buffer17hd63b38f6d246eaaeE>:
f80008fc:	00058813          	mv	a6,a1
f8000900:	0045a583          	lw	a1,4(a1)
f8000904:	00882703          	lw	a4,8(a6)
f8000908:	40e587b3          	sub	a5,a1,a4
f800090c:	00800893          	li	a7,8
f8000910:	04f8fe63          	bgeu	a7,a5,f800096c <_ZN138_$LT$rvfm..command_list..CommandListBuilder$LT$rvfm..gpu..command..GpuCommands$GT$$u20$as$u20$rvfm..gpu..command..GpuCommandBuilderExt$GT$13upload_buffer17hd63b38f6d246eaaeE+0x70>
f8000914:	ff700893          	li	a7,-9
f8000918:	00870793          	add	a5,a4,8
f800091c:	04e8ec63          	bltu	a7,a4,f8000974 <_ZN138_$LT$rvfm..command_list..CommandListBuilder$LT$rvfm..gpu..command..GpuCommands$GT$$u20$as$u20$rvfm..gpu..command..GpuCommandBuilderExt$GT$13upload_buffer17hd63b38f6d246eaaeE+0x78>
f8000920:	06f5e663          	bltu	a1,a5,f800098c <_ZN138_$LT$rvfm..command_list..CommandListBuilder$LT$rvfm..gpu..command..GpuCommands$GT$$u20$as$u20$rvfm..gpu..command..GpuCommandBuilderExt$GT$13upload_buffer17hd63b38f6d246eaaeE+0x90>
f8000924:	00082803          	lw	a6,0(a6)
f8000928:	0086d893          	srl	a7,a3,0x8
f800092c:	0106d293          	srl	t0,a3,0x10
f8000930:	0186d313          	srl	t1,a3,0x18
f8000934:	00e80733          	add	a4,a6,a4
f8000938:	00800393          	li	t2,8
f800093c:	00770023          	sb	t2,0(a4)
f8000940:	000700a3          	sb	zero,1(a4)
f8000944:	00070123          	sb	zero,2(a4)
f8000948:	00c701a3          	sb	a2,3(a4)
f800094c:	00d70223          	sb	a3,4(a4)
f8000950:	011702a3          	sb	a7,5(a4)
f8000954:	00570323          	sb	t0,6(a4)
f8000958:	006703a3          	sb	t1,7(a4)
f800095c:	01052023          	sw	a6,0(a0)
f8000960:	00b52223          	sw	a1,4(a0)
f8000964:	00f52423          	sw	a5,8(a0)
f8000968:	00008067          	ret
f800096c:	00052023          	sw	zero,0(a0)
f8000970:	00008067          	ret
f8000974:	f8002537          	lui	a0,0xf8002
f8000978:	26850613          	add	a2,a0,616 # f8002268 <.Lanon.63019b6cee9d0381df4292a7156adc92.7>
f800097c:	00070513          	mv	a0,a4
f8000980:	00078593          	mv	a1,a5
f8000984:	00001097          	auipc	ra,0x1
f8000988:	ea4080e7          	jalr	-348(ra) # f8001828 <_ZN4core5slice5index22slice_index_order_fail17h4bef6ffad0bff137E>
f800098c:	f8002537          	lui	a0,0xf8002
f8000990:	26850613          	add	a2,a0,616 # f8002268 <.Lanon.63019b6cee9d0381df4292a7156adc92.7>
f8000994:	00078513          	mv	a0,a5
f8000998:	00001097          	auipc	ra,0x1
f800099c:	e0c080e7          	jalr	-500(ra) # f80017a4 <_ZN4core5slice5index24slice_end_index_len_fail17h2cc6c563155bcb9fE>

f80009a0 <_ZN138_$LT$rvfm..command_list..CommandListBuilder$LT$rvfm..gpu..command..GpuCommands$GT$$u20$as$u20$rvfm..gpu..command..GpuCommandBuilderExt$GT$13upload_shader17h84bc48cfd7fce74dE>:
f80009a0:	00058293          	mv	t0,a1
f80009a4:	0045a583          	lw	a1,4(a1)
f80009a8:	0082a803          	lw	a6,8(t0)
f80009ac:	410588b3          	sub	a7,a1,a6
f80009b0:	00c00313          	li	t1,12
f80009b4:	07137863          	bgeu	t1,a7,f8000a24 <_ZN138_$LT$rvfm..command_list..CommandListBuilder$LT$rvfm..gpu..command..GpuCommands$GT$$u20$as$u20$rvfm..gpu..command..GpuCommandBuilderExt$GT$13upload_shader17h84bc48cfd7fce74dE+0x84>
f80009b8:	ff300313          	li	t1,-13
f80009bc:	00c80893          	add	a7,a6,12
f80009c0:	07036663          	bltu	t1,a6,f8000a2c <_ZN138_$LT$rvfm..command_list..CommandListBuilder$LT$rvfm..gpu..command..GpuCommands$GT$$u20$as$u20$rvfm..gpu..command..GpuCommandBuilderExt$GT$13upload_shader17h84bc48cfd7fce74dE+0x8c>
f80009c4:	0915e063          	bltu	a1,a7,f8000a44 <_ZN138_$LT$rvfm..command_list..CommandListBuilder$LT$rvfm..gpu..command..GpuCommands$GT$$u20$as$u20$rvfm..gpu..command..GpuCommandBuilderExt$GT$13upload_shader17h84bc48cfd7fce74dE+0xa4>
f80009c8:	0087d313          	srl	t1,a5,0x8
f80009cc:	0002a283          	lw	t0,0(t0)
f80009d0:	00875393          	srl	t2,a4,0x8
f80009d4:	01075e13          	srl	t3,a4,0x10
f80009d8:	01875e93          	srl	t4,a4,0x18
f80009dc:	01028833          	add	a6,t0,a6
f80009e0:	00c00f13          	li	t5,12
f80009e4:	01e80023          	sb	t5,0(a6)
f80009e8:	000800a3          	sb	zero,1(a6)
f80009ec:	00f80123          	sb	a5,2(a6)
f80009f0:	006801a3          	sb	t1,3(a6)
f80009f4:	00e80223          	sb	a4,4(a6)
f80009f8:	007802a3          	sb	t2,5(a6)
f80009fc:	01c80323          	sb	t3,6(a6)
f8000a00:	01d803a3          	sb	t4,7(a6)
f8000a04:	00080423          	sb	zero,8(a6)
f8000a08:	000804a3          	sb	zero,9(a6)
f8000a0c:	00c80523          	sb	a2,10(a6)
f8000a10:	00d805a3          	sb	a3,11(a6)
f8000a14:	00552023          	sw	t0,0(a0)
f8000a18:	00b52223          	sw	a1,4(a0)
f8000a1c:	01152423          	sw	a7,8(a0)
f8000a20:	00008067          	ret
f8000a24:	00052023          	sw	zero,0(a0)
f8000a28:	00008067          	ret
f8000a2c:	f8002537          	lui	a0,0xf8002
f8000a30:	26850613          	add	a2,a0,616 # f8002268 <.Lanon.63019b6cee9d0381df4292a7156adc92.7>
f8000a34:	00080513          	mv	a0,a6
f8000a38:	00088593          	mv	a1,a7
f8000a3c:	00001097          	auipc	ra,0x1
f8000a40:	dec080e7          	jalr	-532(ra) # f8001828 <_ZN4core5slice5index22slice_index_order_fail17h4bef6ffad0bff137E>
f8000a44:	f8002537          	lui	a0,0xf8002
f8000a48:	26850613          	add	a2,a0,616 # f8002268 <.Lanon.63019b6cee9d0381df4292a7156adc92.7>
f8000a4c:	00088513          	mv	a0,a7
f8000a50:	00001097          	auipc	ra,0x1
f8000a54:	d54080e7          	jalr	-684(ra) # f80017a4 <_ZN4core5slice5index24slice_end_index_len_fail17h2cc6c563155bcb9fE>

f8000a58 <_ZN138_$LT$rvfm..command_list..CommandListBuilder$LT$rvfm..gpu..command..GpuCommands$GT$$u20$as$u20$rvfm..gpu..command..GpuCommandBuilderExt$GT$30upload_graphics_pipeline_state17h27b8e124cf368675E>:
f8000a58:	00058813          	mv	a6,a1
f8000a5c:	0045a583          	lw	a1,4(a1)
f8000a60:	00882703          	lw	a4,8(a6)
f8000a64:	40e587b3          	sub	a5,a1,a4
f8000a68:	00800893          	li	a7,8
f8000a6c:	04f8fe63          	bgeu	a7,a5,f8000ac8 <_ZN138_$LT$rvfm..command_list..CommandListBuilder$LT$rvfm..gpu..command..GpuCommands$GT$$u20$as$u20$rvfm..gpu..command..GpuCommandBuilderExt$GT$30upload_graphics_pipeline_state17h27b8e124cf368675E+0x70>
f8000a70:	ff700893          	li	a7,-9
f8000a74:	00870793          	add	a5,a4,8
f8000a78:	04e8ec63          	bltu	a7,a4,f8000ad0 <_ZN138_$LT$rvfm..command_list..CommandListBuilder$LT$rvfm..gpu..command..GpuCommands$GT$$u20$as$u20$rvfm..gpu..command..GpuCommandBuilderExt$GT$30upload_graphics_pipeline_state17h27b8e124cf368675E+0x78>
f8000a7c:	06f5e663          	bltu	a1,a5,f8000ae8 <_ZN138_$LT$rvfm..command_list..CommandListBuilder$LT$rvfm..gpu..command..GpuCommands$GT$$u20$as$u20$rvfm..gpu..command..GpuCommandBuilderExt$GT$30upload_graphics_pipeline_state17h27b8e124cf368675E+0x90>
f8000a80:	00082803          	lw	a6,0(a6)
f8000a84:	0086d893          	srl	a7,a3,0x8
f8000a88:	0106d293          	srl	t0,a3,0x10
f8000a8c:	0186d313          	srl	t1,a3,0x18
f8000a90:	00e80733          	add	a4,a6,a4
f8000a94:	00d00393          	li	t2,13
f8000a98:	00770023          	sb	t2,0(a4)
f8000a9c:	000700a3          	sb	zero,1(a4)
f8000aa0:	00c70123          	sb	a2,2(a4)
f8000aa4:	000701a3          	sb	zero,3(a4)
f8000aa8:	00d70223          	sb	a3,4(a4)
f8000aac:	011702a3          	sb	a7,5(a4)
f8000ab0:	00570323          	sb	t0,6(a4)
f8000ab4:	006703a3          	sb	t1,7(a4)
f8000ab8:	01052023          	sw	a6,0(a0)
f8000abc:	00b52223          	sw	a1,4(a0)
f8000ac0:	00f52423          	sw	a5,8(a0)
f8000ac4:	00008067          	ret
f8000ac8:	00052023          	sw	zero,0(a0)
f8000acc:	00008067          	ret
f8000ad0:	f8002537          	lui	a0,0xf8002
f8000ad4:	26850613          	add	a2,a0,616 # f8002268 <.Lanon.63019b6cee9d0381df4292a7156adc92.7>
f8000ad8:	00070513          	mv	a0,a4
f8000adc:	00078593          	mv	a1,a5
f8000ae0:	00001097          	auipc	ra,0x1
f8000ae4:	d48080e7          	jalr	-696(ra) # f8001828 <_ZN4core5slice5index22slice_index_order_fail17h4bef6ffad0bff137E>
f8000ae8:	f8002537          	lui	a0,0xf8002
f8000aec:	26850613          	add	a2,a0,616 # f8002268 <.Lanon.63019b6cee9d0381df4292a7156adc92.7>
f8000af0:	00078513          	mv	a0,a5
f8000af4:	00001097          	auipc	ra,0x1
f8000af8:	cb0080e7          	jalr	-848(ra) # f80017a4 <_ZN4core5slice5index24slice_end_index_len_fail17h2cc6c563155bcb9fE>

f8000afc <_ZN4rvfm3gpu7command10gpu_submit17h6d2b5bbf77eddb45E>:
f8000afc:	00700693          	li	a3,7
f8000b00:	00062023          	sw	zero,0(a2)
f8000b04:	02b6f863          	bgeu	a3,a1,f8000b34 <_ZN4rvfm3gpu7command10gpu_submit17h6d2b5bbf77eddb45E+0x38>
f8000b08:	00c50223          	sb	a2,4(a0)
f8000b0c:	01865593          	srl	a1,a2,0x18
f8000b10:	00b503a3          	sb	a1,7(a0)
f8000b14:	01065593          	srl	a1,a2,0x10
f8000b18:	00b50323          	sb	a1,6(a0)
f8000b1c:	00865593          	srl	a1,a2,0x8
f8000b20:	00b502a3          	sb	a1,5(a0)
f8000b24:	800105b7          	lui	a1,0x80010
f8000b28:	00a5a023          	sw	a0,0(a1) # 80010000 <__stack_ptr+0x78010000>
f8000b2c:	00060513          	mv	a0,a2
f8000b30:	00008067          	ret
f8000b34:	f8002537          	lui	a0,0xf8002
f8000b38:	1c050613          	add	a2,a0,448 # f80021c0 <.Lanon.63019b6cee9d0381df4292a7156adc92.2>
f8000b3c:	00800513          	li	a0,8
f8000b40:	00001097          	auipc	ra,0x1
f8000b44:	c64080e7          	jalr	-924(ra) # f80017a4 <_ZN4core5slice5index24slice_end_index_len_fail17h2cc6c563155bcb9fE>

f8000b48 <_ZN83_$LT$rvfm..command_list..CommandListCompletion$u20$as$u20$core..ops..drop..Drop$GT$4drop17h12e44fd117c56e4eE>:
f8000b48:	00052503          	lw	a0,0(a0)
f8000b4c:	00052583          	lw	a1,0(a0)
f8000b50:	fe058ee3          	beqz	a1,f8000b4c <_ZN83_$LT$rvfm..command_list..CommandListCompletion$u20$as$u20$core..ops..drop..Drop$GT$4drop17h12e44fd117c56e4eE+0x4>
f8000b54:	00008067          	ret

f8000b58 <_ZN61_$LT$rvfm..debug..DebugWriter$u20$as$u20$core..fmt..Write$GT$9write_str17ha39d2e50a4b7162dE>:
f8000b58:	80000537          	lui	a0,0x80000
f8000b5c:	00c52223          	sw	a2,4(a0) # 80000004 <__stack_ptr+0x78000004>
f8000b60:	00b52023          	sw	a1,0(a0)
f8000b64:	00100593          	li	a1,1
f8000b68:	00b52623          	sw	a1,12(a0)
f8000b6c:	00852503          	lw	a0,8(a0)
f8000b70:	00a03533          	snez	a0,a0
f8000b74:	00008067          	ret

f8000b78 <rust_begin_unwind>:
f8000b78:	fa010113          	add	sp,sp,-96
f8000b7c:	04112e23          	sw	ra,92(sp)
f8000b80:	800005b7          	lui	a1,0x80000
f8000b84:	00100613          	li	a2,1
f8000b88:	00c5a823          	sw	a2,16(a1) # 80000010 <__stack_ptr+0x78000010>
f8000b8c:	f14025f3          	.4byte	0xf14025f3
f8000b90:	00b64a63          	blt	a2,a1,f8000ba4 <rust_begin_unwind+0x2c>
f8000b94:	02058463          	beqz	a1,f8000bbc <rust_begin_unwind+0x44>
f8000b98:	00100613          	li	a2,1
f8000b9c:	00c58c63          	beq	a1,a2,f8000bb4 <rust_begin_unwind+0x3c>
f8000ba0:	0d80006f          	j	f8000c78 <rust_begin_unwind+0x100>
f8000ba4:	00200613          	li	a2,2
f8000ba8:	00c58663          	beq	a1,a2,f8000bb4 <rust_begin_unwind+0x3c>
f8000bac:	00300613          	li	a2,3
f8000bb0:	0cc59463          	bne	a1,a2,f8000c78 <rust_begin_unwind+0x100>
f8000bb4:	00c12623          	sw	a2,12(sp)
f8000bb8:	0080006f          	j	f8000bc0 <rust_begin_unwind+0x48>
f8000bbc:	00012623          	sw	zero,12(sp)
f8000bc0:	00c52503          	lw	a0,12(a0)
f8000bc4:	00052583          	lw	a1,0(a0)
f8000bc8:	00452603          	lw	a2,4(a0)
f8000bcc:	00852683          	lw	a3,8(a0)
f8000bd0:	00c52503          	lw	a0,12(a0)
f8000bd4:	04b12423          	sw	a1,72(sp)
f8000bd8:	04c12623          	sw	a2,76(sp)
f8000bdc:	04d12823          	sw	a3,80(sp)
f8000be0:	04a12a23          	sw	a0,84(sp)
f8000be4:	00c10513          	add	a0,sp,12
f8000be8:	02a12423          	sw	a0,40(sp)
f8000bec:	f8002537          	lui	a0,0xf8002
f8000bf0:	d1c50513          	add	a0,a0,-740 # f8001d1c <_ZN4core3fmt3num3imp52_$LT$impl$u20$core..fmt..Display$u20$for$u20$u32$GT$3fmt17h824d6ece991163ffE>
f8000bf4:	02a12623          	sw	a0,44(sp)
f8000bf8:	04810593          	add	a1,sp,72
f8000bfc:	02b12823          	sw	a1,48(sp)
f8000c00:	f80005b7          	lui	a1,0xf8000
f8000c04:	3f458593          	add	a1,a1,1012 # f80003f4 <_ZN44_$LT$$RF$T$u20$as$u20$core..fmt..Display$GT$3fmt17h3964ac1bd09498ebE>
f8000c08:	02b12a23          	sw	a1,52(sp)
f8000c0c:	05010593          	add	a1,sp,80
f8000c10:	02b12c23          	sw	a1,56(sp)
f8000c14:	02a12e23          	sw	a0,60(sp)
f8000c18:	05410593          	add	a1,sp,84
f8000c1c:	04b12023          	sw	a1,64(sp)
f8000c20:	04a12223          	sw	a0,68(sp)
f8000c24:	f8002537          	lui	a0,0xf8002
f8000c28:	28850513          	add	a0,a0,648 # f8002288 <.Lanon.63019b6cee9d0381df4292a7156adc92.13>
f8000c2c:	00a12823          	sw	a0,16(sp)
f8000c30:	00400513          	li	a0,4
f8000c34:	00a12a23          	sw	a0,20(sp)
f8000c38:	02012023          	sw	zero,32(sp)
f8000c3c:	02810593          	add	a1,sp,40
f8000c40:	00b12c23          	sw	a1,24(sp)
f8000c44:	00a12e23          	sw	a0,28(sp)
f8000c48:	f8002537          	lui	a0,0xf8002
f8000c4c:	17450593          	add	a1,a0,372 # f8002174 <.Lanon.63019b6cee9d0381df4292a7156adc92.0>
f8000c50:	05b10513          	add	a0,sp,91
f8000c54:	01010613          	add	a2,sp,16
f8000c58:	00000097          	auipc	ra,0x0
f8000c5c:	1ac080e7          	jalr	428(ra) # f8000e04 <_ZN4core3fmt5write17h68b072aff6485a9eE>
f8000c60:	80000537          	lui	a0,0x80000
f8000c64:	00100593          	li	a1,1
f8000c68:	00b52823          	sw	a1,16(a0) # 80000010 <__stack_ptr+0x78000010>
f8000c6c:	00b52823          	sw	a1,16(a0)
f8000c70:	10500073          	wfi
f8000c74:	ffdff06f          	j	f8000c70 <rust_begin_unwind+0xf8>
f8000c78:	f8002537          	lui	a0,0xf8002
f8000c7c:	1d050513          	add	a0,a0,464 # f80021d0 <.Lanon.63019b6cee9d0381df4292a7156adc92.3>
f8000c80:	f80025b7          	lui	a1,0xf8002
f8000c84:	22458613          	add	a2,a1,548 # f8002224 <.Lanon.63019b6cee9d0381df4292a7156adc92.5>
f8000c88:	02800593          	li	a1,40
f8000c8c:	00000097          	auipc	ra,0x0
f8000c90:	0b4080e7          	jalr	180(ra) # f8000d40 <_ZN4core9panicking5panic17h05165f7dd52b591aE>

f8000c94 <_ZN4core3ptr37drop_in_place$LT$core..fmt..Error$GT$17h6ebbb2c2411513f8E>:
f8000c94:	ff010113          	add	sp,sp,-16
f8000c98:	00112623          	sw	ra,12(sp)
f8000c9c:	00812423          	sw	s0,8(sp)
f8000ca0:	01010413          	add	s0,sp,16
f8000ca4:	00c12083          	lw	ra,12(sp)
f8000ca8:	00812403          	lw	s0,8(sp)
f8000cac:	01010113          	add	sp,sp,16
f8000cb0:	00008067          	ret

f8000cb4 <_ZN36_$LT$T$u20$as$u20$core..any..Any$GT$7type_id17hdf7a52cf3ffb0bc9E>:
f8000cb4:	ff010113          	add	sp,sp,-16
f8000cb8:	00112623          	sw	ra,12(sp)
f8000cbc:	00812423          	sw	s0,8(sp)
f8000cc0:	01010413          	add	s0,sp,16
f8000cc4:	809fe5b7          	lui	a1,0x809fe
f8000cc8:	b9d58593          	add	a1,a1,-1123 # 809fdb9d <__stack_ptr+0x789fdb9d>
f8000ccc:	00b52623          	sw	a1,12(a0)
f8000cd0:	611c15b7          	lui	a1,0x611c1
f8000cd4:	f3158593          	add	a1,a1,-207 # 611c0f31 <__stack_ptr+0x591c0f31>
f8000cd8:	00b52423          	sw	a1,8(a0)
f8000cdc:	17e865b7          	lui	a1,0x17e86
f8000ce0:	83858593          	add	a1,a1,-1992 # 17e85838 <__stack_ptr+0xfe85838>
f8000ce4:	00b52223          	sw	a1,4(a0)
f8000ce8:	224cb5b7          	lui	a1,0x224cb
f8000cec:	31458593          	add	a1,a1,788 # 224cb314 <__stack_ptr+0x1a4cb314>
f8000cf0:	00b52023          	sw	a1,0(a0)
f8000cf4:	00c12083          	lw	ra,12(sp)
f8000cf8:	00812403          	lw	s0,8(sp)
f8000cfc:	01010113          	add	sp,sp,16
f8000d00:	00008067          	ret

f8000d04 <_ZN4core9panicking9panic_fmt17hd720f60f34678786E>:
f8000d04:	fe010113          	add	sp,sp,-32
f8000d08:	00112e23          	sw	ra,28(sp)
f8000d0c:	00812c23          	sw	s0,24(sp)
f8000d10:	02010413          	add	s0,sp,32
f8000d14:	00100613          	li	a2,1
f8000d18:	fec42223          	sw	a2,-28(s0)
f8000d1c:	f80026b7          	lui	a3,0xf8002
f8000d20:	2b868693          	add	a3,a3,696 # f80022b8 <.Lanon.417d308534643a9a09c6c2eafbd8258e.255>
f8000d24:	fed42423          	sw	a3,-24(s0)
f8000d28:	fea42623          	sw	a0,-20(s0)
f8000d2c:	feb42823          	sw	a1,-16(s0)
f8000d30:	fec41a23          	sh	a2,-12(s0)
f8000d34:	fe440513          	add	a0,s0,-28
f8000d38:	00000097          	auipc	ra,0x0
f8000d3c:	e40080e7          	jalr	-448(ra) # f8000b78 <rust_begin_unwind>

f8000d40 <_ZN4core9panicking5panic17h05165f7dd52b591aE>:
f8000d40:	fd010113          	add	sp,sp,-48
f8000d44:	02112623          	sw	ra,44(sp)
f8000d48:	02812423          	sw	s0,40(sp)
f8000d4c:	03010413          	add	s0,sp,48
f8000d50:	fea42823          	sw	a0,-16(s0)
f8000d54:	feb42a23          	sw	a1,-12(s0)
f8000d58:	ff040513          	add	a0,s0,-16
f8000d5c:	fca42c23          	sw	a0,-40(s0)
f8000d60:	00100513          	li	a0,1
f8000d64:	fca42e23          	sw	a0,-36(s0)
f8000d68:	fe042423          	sw	zero,-24(s0)
f8000d6c:	00400513          	li	a0,4
f8000d70:	fea42023          	sw	a0,-32(s0)
f8000d74:	fe042223          	sw	zero,-28(s0)
f8000d78:	fd840513          	add	a0,s0,-40
f8000d7c:	00060593          	mv	a1,a2
f8000d80:	00000097          	auipc	ra,0x0
f8000d84:	f84080e7          	jalr	-124(ra) # f8000d04 <_ZN4core9panicking9panic_fmt17hd720f60f34678786E>

f8000d88 <_ZN4core6result13unwrap_failed17hedb28de3d790df58E>:
f8000d88:	fc010113          	add	sp,sp,-64
f8000d8c:	02112e23          	sw	ra,60(sp)
f8000d90:	02812c23          	sw	s0,56(sp)
f8000d94:	04010413          	add	s0,sp,64
f8000d98:	fca42023          	sw	a0,-64(s0)
f8000d9c:	fcb42223          	sw	a1,-60(s0)
f8000da0:	fcc42423          	sw	a2,-56(s0)
f8000da4:	fcd42623          	sw	a3,-52(s0)
f8000da8:	fc040513          	add	a0,s0,-64
f8000dac:	fea42423          	sw	a0,-24(s0)
f8000db0:	f8002537          	lui	a0,0xf8002
f8000db4:	d7850513          	add	a0,a0,-648 # f8001d78 <_ZN44_$LT$$RF$T$u20$as$u20$core..fmt..Display$GT$3fmt17h3a9d78b35f284d42E>
f8000db8:	fea42623          	sw	a0,-20(s0)
f8000dbc:	fc840513          	add	a0,s0,-56
f8000dc0:	fea42823          	sw	a0,-16(s0)
f8000dc4:	f8002537          	lui	a0,0xf8002
f8000dc8:	d4c50513          	add	a0,a0,-692 # f8001d4c <_ZN42_$LT$$RF$T$u20$as$u20$core..fmt..Debug$GT$3fmt17hef4461665dbca0eaE>
f8000dcc:	fea42a23          	sw	a0,-12(s0)
f8000dd0:	f8002537          	lui	a0,0xf8002
f8000dd4:	2cc50513          	add	a0,a0,716 # f80022cc <.Lanon.417d308534643a9a09c6c2eafbd8258e.283>
f8000dd8:	fca42823          	sw	a0,-48(s0)
f8000ddc:	00200513          	li	a0,2
f8000de0:	fca42a23          	sw	a0,-44(s0)
f8000de4:	fe042023          	sw	zero,-32(s0)
f8000de8:	fe840593          	add	a1,s0,-24
f8000dec:	fcb42c23          	sw	a1,-40(s0)
f8000df0:	fca42e23          	sw	a0,-36(s0)
f8000df4:	fd040513          	add	a0,s0,-48
f8000df8:	00070593          	mv	a1,a4
f8000dfc:	00000097          	auipc	ra,0x0
f8000e00:	f08080e7          	jalr	-248(ra) # f8000d04 <_ZN4core9panicking9panic_fmt17hd720f60f34678786E>

f8000e04 <_ZN4core3fmt5write17h68b072aff6485a9eE>:
f8000e04:	fb010113          	add	sp,sp,-80
f8000e08:	04112623          	sw	ra,76(sp)
f8000e0c:	04812423          	sw	s0,72(sp)
f8000e10:	04912223          	sw	s1,68(sp)
f8000e14:	05212023          	sw	s2,64(sp)
f8000e18:	03312e23          	sw	s3,60(sp)
f8000e1c:	03412c23          	sw	s4,56(sp)
f8000e20:	03512a23          	sw	s5,52(sp)
f8000e24:	03612823          	sw	s6,48(sp)
f8000e28:	03712623          	sw	s7,44(sp)
f8000e2c:	03812423          	sw	s8,40(sp)
f8000e30:	05010413          	add	s0,sp,80
f8000e34:	00060493          	mv	s1,a2
f8000e38:	fc042823          	sw	zero,-48(s0)
f8000e3c:	02000613          	li	a2,32
f8000e40:	fcc42223          	sw	a2,-60(s0)
f8000e44:	00300613          	li	a2,3
f8000e48:	fcc40a23          	sb	a2,-44(s0)
f8000e4c:	0104ab03          	lw	s6,16(s1)
f8000e50:	fa042a23          	sw	zero,-76(s0)
f8000e54:	fa042e23          	sw	zero,-68(s0)
f8000e58:	fca42423          	sw	a0,-56(s0)
f8000e5c:	fcb42623          	sw	a1,-52(s0)
f8000e60:	120b0263          	beqz	s6,f8000f84 <_ZN4core3fmt5write17h68b072aff6485a9eE+0x180>
f8000e64:	0144aa83          	lw	s5,20(s1)
f8000e68:	180a8c63          	beqz	s5,f8001000 <_ZN4core3fmt5write17h68b072aff6485a9eE+0x1fc>
f8000e6c:	0004aa03          	lw	s4,0(s1)
f8000e70:	0084a983          	lw	s3,8(s1)
f8000e74:	fffa8513          	add	a0,s5,-1
f8000e78:	00551513          	sll	a0,a0,0x5
f8000e7c:	00555513          	srl	a0,a0,0x5
f8000e80:	00150913          	add	s2,a0,1
f8000e84:	004a0a13          	add	s4,s4,4
f8000e88:	005a9a93          	sll	s5,s5,0x5
f8000e8c:	010b0b13          	add	s6,s6,16
f8000e90:	00200b93          	li	s7,2
f8000e94:	00100c13          	li	s8,1
f8000e98:	000a2603          	lw	a2,0(s4)
f8000e9c:	00060e63          	beqz	a2,f8000eb8 <_ZN4core3fmt5write17h68b072aff6485a9eE+0xb4>
f8000ea0:	fcc42683          	lw	a3,-52(s0)
f8000ea4:	fc842503          	lw	a0,-56(s0)
f8000ea8:	ffca2583          	lw	a1,-4(s4)
f8000eac:	00c6a683          	lw	a3,12(a3)
f8000eb0:	000680e7          	jalr	a3
f8000eb4:	18051063          	bnez	a0,f8001034 <_ZN4core3fmt5write17h68b072aff6485a9eE+0x230>
f8000eb8:	000b2603          	lw	a2,0(s6)
f8000ebc:	00cb4683          	lbu	a3,12(s6)
f8000ec0:	008b2703          	lw	a4,8(s6)
f8000ec4:	ff8b2583          	lw	a1,-8(s6)
f8000ec8:	ffcb2503          	lw	a0,-4(s6)
f8000ecc:	fcc42223          	sw	a2,-60(s0)
f8000ed0:	fcd40a23          	sb	a3,-44(s0)
f8000ed4:	fce42823          	sw	a4,-48(s0)
f8000ed8:	02058a63          	beqz	a1,f8000f0c <_ZN4core3fmt5write17h68b072aff6485a9eE+0x108>
f8000edc:	01859a63          	bne	a1,s8,f8000ef0 <_ZN4core3fmt5write17h68b072aff6485a9eE+0xec>
f8000ee0:	00351513          	sll	a0,a0,0x3
f8000ee4:	00a98533          	add	a0,s3,a0
f8000ee8:	00452583          	lw	a1,4(a0)
f8000eec:	00058e63          	beqz	a1,f8000f08 <_ZN4core3fmt5write17h68b072aff6485a9eE+0x104>
f8000ef0:	00000593          	li	a1,0
f8000ef4:	ff0b2603          	lw	a2,-16(s6)
f8000ef8:	fa042a23          	sw	zero,-76(s0)
f8000efc:	faa42c23          	sw	a0,-72(s0)
f8000f00:	03761063          	bne	a2,s7,f8000f20 <_ZN4core3fmt5write17h68b072aff6485a9eE+0x11c>
f8000f04:	0340006f          	j	f8000f38 <_ZN4core3fmt5write17h68b072aff6485a9eE+0x134>
f8000f08:	00052503          	lw	a0,0(a0)
f8000f0c:	00100593          	li	a1,1
f8000f10:	ff0b2603          	lw	a2,-16(s6)
f8000f14:	fab42a23          	sw	a1,-76(s0)
f8000f18:	faa42c23          	sw	a0,-72(s0)
f8000f1c:	01760e63          	beq	a2,s7,f8000f38 <_ZN4core3fmt5write17h68b072aff6485a9eE+0x134>
f8000f20:	ff4b2583          	lw	a1,-12(s6)
f8000f24:	03861063          	bne	a2,s8,f8000f44 <_ZN4core3fmt5write17h68b072aff6485a9eE+0x140>
f8000f28:	00359513          	sll	a0,a1,0x3
f8000f2c:	00a98533          	add	a0,s3,a0
f8000f30:	00452583          	lw	a1,4(a0)
f8000f34:	00058663          	beqz	a1,f8000f40 <_ZN4core3fmt5write17h68b072aff6485a9eE+0x13c>
f8000f38:	00000613          	li	a2,0
f8000f3c:	00c0006f          	j	f8000f48 <_ZN4core3fmt5write17h68b072aff6485a9eE+0x144>
f8000f40:	00052583          	lw	a1,0(a0)
f8000f44:	00100613          	li	a2,1
f8000f48:	004b2503          	lw	a0,4(s6)
f8000f4c:	00351513          	sll	a0,a0,0x3
f8000f50:	00a98533          	add	a0,s3,a0
f8000f54:	00452683          	lw	a3,4(a0)
f8000f58:	00052503          	lw	a0,0(a0)
f8000f5c:	fac42e23          	sw	a2,-68(s0)
f8000f60:	fcb42023          	sw	a1,-64(s0)
f8000f64:	fb440593          	add	a1,s0,-76
f8000f68:	000680e7          	jalr	a3
f8000f6c:	0c051463          	bnez	a0,f8001034 <_ZN4core3fmt5write17h68b072aff6485a9eE+0x230>
f8000f70:	008a0a13          	add	s4,s4,8
f8000f74:	fe0a8a93          	add	s5,s5,-32
f8000f78:	020b0b13          	add	s6,s6,32
f8000f7c:	f00a9ee3          	bnez	s5,f8000e98 <_ZN4core3fmt5write17h68b072aff6485a9eE+0x94>
f8000f80:	0740006f          	j	f8000ff4 <_ZN4core3fmt5write17h68b072aff6485a9eE+0x1f0>
f8000f84:	00c4aa03          	lw	s4,12(s1)
f8000f88:	060a0c63          	beqz	s4,f8001000 <_ZN4core3fmt5write17h68b072aff6485a9eE+0x1fc>
f8000f8c:	0084aa83          	lw	s5,8(s1)
f8000f90:	0004a983          	lw	s3,0(s1)
f8000f94:	fffa0513          	add	a0,s4,-1
f8000f98:	00351513          	sll	a0,a0,0x3
f8000f9c:	00355513          	srl	a0,a0,0x3
f8000fa0:	00150913          	add	s2,a0,1
f8000fa4:	00498993          	add	s3,s3,4
f8000fa8:	003a1a13          	sll	s4,s4,0x3
f8000fac:	004a8a93          	add	s5,s5,4
f8000fb0:	0009a603          	lw	a2,0(s3)
f8000fb4:	00060e63          	beqz	a2,f8000fd0 <_ZN4core3fmt5write17h68b072aff6485a9eE+0x1cc>
f8000fb8:	fcc42683          	lw	a3,-52(s0)
f8000fbc:	fc842503          	lw	a0,-56(s0)
f8000fc0:	ffc9a583          	lw	a1,-4(s3)
f8000fc4:	00c6a683          	lw	a3,12(a3)
f8000fc8:	000680e7          	jalr	a3
f8000fcc:	06051463          	bnez	a0,f8001034 <_ZN4core3fmt5write17h68b072aff6485a9eE+0x230>
f8000fd0:	000aa603          	lw	a2,0(s5)
f8000fd4:	ffcaa503          	lw	a0,-4(s5)
f8000fd8:	fb440593          	add	a1,s0,-76
f8000fdc:	000600e7          	jalr	a2
f8000fe0:	04051a63          	bnez	a0,f8001034 <_ZN4core3fmt5write17h68b072aff6485a9eE+0x230>
f8000fe4:	00898993          	add	s3,s3,8
f8000fe8:	ff8a0a13          	add	s4,s4,-8
f8000fec:	008a8a93          	add	s5,s5,8
f8000ff0:	fc0a10e3          	bnez	s4,f8000fb0 <_ZN4core3fmt5write17h68b072aff6485a9eE+0x1ac>
f8000ff4:	0044a503          	lw	a0,4(s1)
f8000ff8:	00a96a63          	bltu	s2,a0,f800100c <_ZN4core3fmt5write17h68b072aff6485a9eE+0x208>
f8000ffc:	0400006f          	j	f800103c <_ZN4core3fmt5write17h68b072aff6485a9eE+0x238>
f8001000:	00000913          	li	s2,0
f8001004:	0044a503          	lw	a0,4(s1)
f8001008:	02a07a63          	bgeu	zero,a0,f800103c <_ZN4core3fmt5write17h68b072aff6485a9eE+0x238>
f800100c:	0004a503          	lw	a0,0(s1)
f8001010:	00391913          	sll	s2,s2,0x3
f8001014:	01250933          	add	s2,a0,s2
f8001018:	fcc42683          	lw	a3,-52(s0)
f800101c:	fc842503          	lw	a0,-56(s0)
f8001020:	00092583          	lw	a1,0(s2)
f8001024:	00492603          	lw	a2,4(s2)
f8001028:	00c6a683          	lw	a3,12(a3)
f800102c:	000680e7          	jalr	a3
f8001030:	00050663          	beqz	a0,f800103c <_ZN4core3fmt5write17h68b072aff6485a9eE+0x238>
f8001034:	00100513          	li	a0,1
f8001038:	0080006f          	j	f8001040 <_ZN4core3fmt5write17h68b072aff6485a9eE+0x23c>
f800103c:	00000513          	li	a0,0
f8001040:	04c12083          	lw	ra,76(sp)
f8001044:	04812403          	lw	s0,72(sp)
f8001048:	04412483          	lw	s1,68(sp)
f800104c:	04012903          	lw	s2,64(sp)
f8001050:	03c12983          	lw	s3,60(sp)
f8001054:	03812a03          	lw	s4,56(sp)
f8001058:	03412a83          	lw	s5,52(sp)
f800105c:	03012b03          	lw	s6,48(sp)
f8001060:	02c12b83          	lw	s7,44(sp)
f8001064:	02812c03          	lw	s8,40(sp)
f8001068:	05010113          	add	sp,sp,80
f800106c:	00008067          	ret

f8001070 <_ZN4core3fmt9Formatter12pad_integral17h70a270d80229ce9dE>:
f8001070:	fc010113          	add	sp,sp,-64
f8001074:	02112e23          	sw	ra,60(sp)
f8001078:	02812c23          	sw	s0,56(sp)
f800107c:	02912a23          	sw	s1,52(sp)
f8001080:	03212823          	sw	s2,48(sp)
f8001084:	03312623          	sw	s3,44(sp)
f8001088:	03412423          	sw	s4,40(sp)
f800108c:	03512223          	sw	s5,36(sp)
f8001090:	03612023          	sw	s6,32(sp)
f8001094:	01712e23          	sw	s7,28(sp)
f8001098:	01812c23          	sw	s8,24(sp)
f800109c:	01912a23          	sw	s9,20(sp)
f80010a0:	01a12823          	sw	s10,16(sp)
f80010a4:	01b12623          	sw	s11,12(sp)
f80010a8:	04010413          	add	s0,sp,64
f80010ac:	00078493          	mv	s1,a5
f80010b0:	00070913          	mv	s2,a4
f80010b4:	00068993          	mv	s3,a3
f80010b8:	00060a13          	mv	s4,a2
f80010bc:	06058263          	beqz	a1,f8001120 <_ZN4core3fmt9Formatter12pad_integral17h70a270d80229ce9dE+0xb0>
f80010c0:	01c52b03          	lw	s6,28(a0)
f80010c4:	001b7c13          	and	s8,s6,1
f80010c8:	00110ab7          	lui	s5,0x110
f80010cc:	000c0463          	beqz	s8,f80010d4 <_ZN4core3fmt9Formatter12pad_integral17h70a270d80229ce9dE+0x64>
f80010d0:	02b00a93          	li	s5,43
f80010d4:	009c0c33          	add	s8,s8,s1
f80010d8:	004b7593          	and	a1,s6,4
f80010dc:	04058c63          	beqz	a1,f8001134 <_ZN4core3fmt9Formatter12pad_integral17h70a270d80229ce9dE+0xc4>
f80010e0:	01000593          	li	a1,16
f80010e4:	06b9f063          	bgeu	s3,a1,f8001144 <_ZN4core3fmt9Formatter12pad_integral17h70a270d80229ce9dE+0xd4>
f80010e8:	00000593          	li	a1,0
f80010ec:	02098263          	beqz	s3,f8001110 <_ZN4core3fmt9Formatter12pad_integral17h70a270d80229ce9dE+0xa0>
f80010f0:	013a0633          	add	a2,s4,s3
f80010f4:	000a0693          	mv	a3,s4
f80010f8:	00068703          	lb	a4,0(a3)
f80010fc:	fc072713          	slti	a4,a4,-64
f8001100:	00174713          	xor	a4,a4,1
f8001104:	00168693          	add	a3,a3,1
f8001108:	00e585b3          	add	a1,a1,a4
f800110c:	fec696e3          	bne	a3,a2,f80010f8 <_ZN4core3fmt9Formatter12pad_integral17h70a270d80229ce9dE+0x88>
f8001110:	01858c33          	add	s8,a1,s8
f8001114:	00052583          	lw	a1,0(a0)
f8001118:	04059a63          	bnez	a1,f800116c <_ZN4core3fmt9Formatter12pad_integral17h70a270d80229ce9dE+0xfc>
f800111c:	0780006f          	j	f8001194 <_ZN4core3fmt9Formatter12pad_integral17h70a270d80229ce9dE+0x124>
f8001120:	01c52b03          	lw	s6,28(a0)
f8001124:	00148c13          	add	s8,s1,1
f8001128:	02d00a93          	li	s5,45
f800112c:	004b7593          	and	a1,s6,4
f8001130:	fa0598e3          	bnez	a1,f80010e0 <_ZN4core3fmt9Formatter12pad_integral17h70a270d80229ce9dE+0x70>
f8001134:	00000a13          	li	s4,0
f8001138:	00052583          	lw	a1,0(a0)
f800113c:	02059863          	bnez	a1,f800116c <_ZN4core3fmt9Formatter12pad_integral17h70a270d80229ce9dE+0xfc>
f8001140:	0540006f          	j	f8001194 <_ZN4core3fmt9Formatter12pad_integral17h70a270d80229ce9dE+0x124>
f8001144:	00050b93          	mv	s7,a0
f8001148:	000a0513          	mv	a0,s4
f800114c:	00098593          	mv	a1,s3
f8001150:	00000097          	auipc	ra,0x0
f8001154:	75c080e7          	jalr	1884(ra) # f80018ac <_ZN4core3str5count14do_count_chars17hf65d4063b61adf80E>
f8001158:	00050593          	mv	a1,a0
f800115c:	000b8513          	mv	a0,s7
f8001160:	01858c33          	add	s8,a1,s8
f8001164:	000ba583          	lw	a1,0(s7)
f8001168:	02058663          	beqz	a1,f8001194 <_ZN4core3fmt9Formatter12pad_integral17h70a270d80229ce9dE+0x124>
f800116c:	00452c83          	lw	s9,4(a0)
f8001170:	039c7263          	bgeu	s8,s9,f8001194 <_ZN4core3fmt9Formatter12pad_integral17h70a270d80229ce9dE+0x124>
f8001174:	008b7593          	and	a1,s6,8
f8001178:	08059c63          	bnez	a1,f8001210 <_ZN4core3fmt9Formatter12pad_integral17h70a270d80229ce9dE+0x1a0>
f800117c:	02054583          	lbu	a1,32(a0)
f8001180:	00100613          	li	a2,1
f8001184:	418c8cb3          	sub	s9,s9,s8
f8001188:	0eb64c63          	blt	a2,a1,f8001280 <_ZN4core3fmt9Formatter12pad_integral17h70a270d80229ce9dE+0x210>
f800118c:	10058a63          	beqz	a1,f80012a0 <_ZN4core3fmt9Formatter12pad_integral17h70a270d80229ce9dE+0x230>
f8001190:	1080006f          	j	f8001298 <_ZN4core3fmt9Formatter12pad_integral17h70a270d80229ce9dE+0x228>
f8001194:	01452b03          	lw	s6,20(a0)
f8001198:	01852b83          	lw	s7,24(a0)
f800119c:	000b0513          	mv	a0,s6
f80011a0:	000b8593          	mv	a1,s7
f80011a4:	000a8613          	mv	a2,s5
f80011a8:	000a0693          	mv	a3,s4
f80011ac:	00098713          	mv	a4,s3
f80011b0:	00000097          	auipc	ra,0x0
f80011b4:	218080e7          	jalr	536(ra) # f80013c8 <_ZN4core3fmt9Formatter12pad_integral12write_prefix17h8712153fe199722dE>
f80011b8:	00050593          	mv	a1,a0
f80011bc:	00100513          	li	a0,1
f80011c0:	10059863          	bnez	a1,f80012d0 <_ZN4core3fmt9Formatter12pad_integral17h70a270d80229ce9dE+0x260>
f80011c4:	00cba303          	lw	t1,12(s7)
f80011c8:	000b0513          	mv	a0,s6
f80011cc:	00090593          	mv	a1,s2
f80011d0:	00048613          	mv	a2,s1
f80011d4:	03c12083          	lw	ra,60(sp)
f80011d8:	03812403          	lw	s0,56(sp)
f80011dc:	03412483          	lw	s1,52(sp)
f80011e0:	03012903          	lw	s2,48(sp)
f80011e4:	02c12983          	lw	s3,44(sp)
f80011e8:	02812a03          	lw	s4,40(sp)
f80011ec:	02412a83          	lw	s5,36(sp)
f80011f0:	02012b03          	lw	s6,32(sp)
f80011f4:	01c12b83          	lw	s7,28(sp)
f80011f8:	01812c03          	lw	s8,24(sp)
f80011fc:	01412c83          	lw	s9,20(sp)
f8001200:	01012d03          	lw	s10,16(sp)
f8001204:	00c12d83          	lw	s11,12(sp)
f8001208:	04010113          	add	sp,sp,64
f800120c:	00030067          	jr	t1
f8001210:	01052583          	lw	a1,16(a0)
f8001214:	fcb42423          	sw	a1,-56(s0)
f8001218:	03000593          	li	a1,48
f800121c:	02054d03          	lbu	s10,32(a0)
f8001220:	01452b03          	lw	s6,20(a0)
f8001224:	01852b83          	lw	s7,24(a0)
f8001228:	00b52823          	sw	a1,16(a0)
f800122c:	00100593          	li	a1,1
f8001230:	00050d93          	mv	s11,a0
f8001234:	02b50023          	sb	a1,32(a0)
f8001238:	000b0513          	mv	a0,s6
f800123c:	000b8593          	mv	a1,s7
f8001240:	000a8613          	mv	a2,s5
f8001244:	000a0693          	mv	a3,s4
f8001248:	00098713          	mv	a4,s3
f800124c:	00000097          	auipc	ra,0x0
f8001250:	17c080e7          	jalr	380(ra) # f80013c8 <_ZN4core3fmt9Formatter12pad_integral12write_prefix17h8712153fe199722dE>
f8001254:	06051c63          	bnez	a0,f80012cc <_ZN4core3fmt9Formatter12pad_integral17h70a270d80229ce9dE+0x25c>
f8001258:	418c89b3          	sub	s3,s9,s8
f800125c:	00198993          	add	s3,s3,1
f8001260:	fff98993          	add	s3,s3,-1
f8001264:	12098263          	beqz	s3,f8001388 <_ZN4core3fmt9Formatter12pad_integral17h70a270d80229ce9dE+0x318>
f8001268:	010ba603          	lw	a2,16(s7)
f800126c:	03000593          	li	a1,48
f8001270:	000b0513          	mv	a0,s6
f8001274:	000600e7          	jalr	a2
f8001278:	fe0504e3          	beqz	a0,f8001260 <_ZN4core3fmt9Formatter12pad_integral17h70a270d80229ce9dE+0x1f0>
f800127c:	0500006f          	j	f80012cc <_ZN4core3fmt9Formatter12pad_integral17h70a270d80229ce9dE+0x25c>
f8001280:	00200613          	li	a2,2
f8001284:	00c59a63          	bne	a1,a2,f8001298 <_ZN4core3fmt9Formatter12pad_integral17h70a270d80229ce9dE+0x228>
f8001288:	001cd593          	srl	a1,s9,0x1
f800128c:	001c8c93          	add	s9,s9,1
f8001290:	001cdc93          	srl	s9,s9,0x1
f8001294:	00c0006f          	j	f80012a0 <_ZN4core3fmt9Formatter12pad_integral17h70a270d80229ce9dE+0x230>
f8001298:	000c8593          	mv	a1,s9
f800129c:	00000c93          	li	s9,0
f80012a0:	01452b03          	lw	s6,20(a0)
f80012a4:	01852b83          	lw	s7,24(a0)
f80012a8:	01052c03          	lw	s8,16(a0)
f80012ac:	00158d13          	add	s10,a1,1
f80012b0:	fffd0d13          	add	s10,s10,-1
f80012b4:	040d0c63          	beqz	s10,f800130c <_ZN4core3fmt9Formatter12pad_integral17h70a270d80229ce9dE+0x29c>
f80012b8:	010ba603          	lw	a2,16(s7)
f80012bc:	000b0513          	mv	a0,s6
f80012c0:	000c0593          	mv	a1,s8
f80012c4:	000600e7          	jalr	a2
f80012c8:	fe0504e3          	beqz	a0,f80012b0 <_ZN4core3fmt9Formatter12pad_integral17h70a270d80229ce9dE+0x240>
f80012cc:	00100513          	li	a0,1
f80012d0:	03c12083          	lw	ra,60(sp)
f80012d4:	03812403          	lw	s0,56(sp)
f80012d8:	03412483          	lw	s1,52(sp)
f80012dc:	03012903          	lw	s2,48(sp)
f80012e0:	02c12983          	lw	s3,44(sp)
f80012e4:	02812a03          	lw	s4,40(sp)
f80012e8:	02412a83          	lw	s5,36(sp)
f80012ec:	02012b03          	lw	s6,32(sp)
f80012f0:	01c12b83          	lw	s7,28(sp)
f80012f4:	01812c03          	lw	s8,24(sp)
f80012f8:	01412c83          	lw	s9,20(sp)
f80012fc:	01012d03          	lw	s10,16(sp)
f8001300:	00c12d83          	lw	s11,12(sp)
f8001304:	04010113          	add	sp,sp,64
f8001308:	00008067          	ret
f800130c:	000b0513          	mv	a0,s6
f8001310:	000b8593          	mv	a1,s7
f8001314:	000a8613          	mv	a2,s5
f8001318:	000a0693          	mv	a3,s4
f800131c:	00098713          	mv	a4,s3
f8001320:	00000097          	auipc	ra,0x0
f8001324:	0a8080e7          	jalr	168(ra) # f80013c8 <_ZN4core3fmt9Formatter12pad_integral12write_prefix17h8712153fe199722dE>
f8001328:	00050593          	mv	a1,a0
f800132c:	00100513          	li	a0,1
f8001330:	fa0590e3          	bnez	a1,f80012d0 <_ZN4core3fmt9Formatter12pad_integral17h70a270d80229ce9dE+0x260>
f8001334:	00cba683          	lw	a3,12(s7)
f8001338:	000b0513          	mv	a0,s6
f800133c:	00090593          	mv	a1,s2
f8001340:	00048613          	mv	a2,s1
f8001344:	000680e7          	jalr	a3
f8001348:	00050593          	mv	a1,a0
f800134c:	00100513          	li	a0,1
f8001350:	f80590e3          	bnez	a1,f80012d0 <_ZN4core3fmt9Formatter12pad_integral17h70a270d80229ce9dE+0x260>
f8001354:	41900933          	neg	s2,s9
f8001358:	fff00993          	li	s3,-1
f800135c:	fff00493          	li	s1,-1
f8001360:	00990533          	add	a0,s2,s1
f8001364:	05350c63          	beq	a0,s3,f80013bc <_ZN4core3fmt9Formatter12pad_integral17h70a270d80229ce9dE+0x34c>
f8001368:	010ba603          	lw	a2,16(s7)
f800136c:	000b0513          	mv	a0,s6
f8001370:	000c0593          	mv	a1,s8
f8001374:	000600e7          	jalr	a2
f8001378:	00148493          	add	s1,s1,1
f800137c:	fe0502e3          	beqz	a0,f8001360 <_ZN4core3fmt9Formatter12pad_integral17h70a270d80229ce9dE+0x2f0>
f8001380:	0194b533          	sltu	a0,s1,s9
f8001384:	f4dff06f          	j	f80012d0 <_ZN4core3fmt9Formatter12pad_integral17h70a270d80229ce9dE+0x260>
f8001388:	00cba683          	lw	a3,12(s7)
f800138c:	000b0513          	mv	a0,s6
f8001390:	00090593          	mv	a1,s2
f8001394:	00048613          	mv	a2,s1
f8001398:	000680e7          	jalr	a3
f800139c:	00050593          	mv	a1,a0
f80013a0:	00100513          	li	a0,1
f80013a4:	f20596e3          	bnez	a1,f80012d0 <_ZN4core3fmt9Formatter12pad_integral17h70a270d80229ce9dE+0x260>
f80013a8:	00000513          	li	a0,0
f80013ac:	fc842583          	lw	a1,-56(s0)
f80013b0:	00bda823          	sw	a1,16(s11)
f80013b4:	03ad8023          	sb	s10,32(s11)
f80013b8:	f19ff06f          	j	f80012d0 <_ZN4core3fmt9Formatter12pad_integral17h70a270d80229ce9dE+0x260>
f80013bc:	000c8493          	mv	s1,s9
f80013c0:	019cb533          	sltu	a0,s9,s9
f80013c4:	f0dff06f          	j	f80012d0 <_ZN4core3fmt9Formatter12pad_integral17h70a270d80229ce9dE+0x260>

f80013c8 <_ZN4core3fmt9Formatter12pad_integral12write_prefix17h8712153fe199722dE>:
f80013c8:	fe010113          	add	sp,sp,-32
f80013cc:	00112e23          	sw	ra,28(sp)
f80013d0:	00812c23          	sw	s0,24(sp)
f80013d4:	00912a23          	sw	s1,20(sp)
f80013d8:	01212823          	sw	s2,16(sp)
f80013dc:	01312623          	sw	s3,12(sp)
f80013e0:	01412423          	sw	s4,8(sp)
f80013e4:	02010413          	add	s0,sp,32
f80013e8:	001107b7          	lui	a5,0x110
f80013ec:	00070493          	mv	s1,a4
f80013f0:	00068913          	mv	s2,a3
f80013f4:	00058993          	mv	s3,a1
f80013f8:	02f60263          	beq	a2,a5,f800141c <_ZN4core3fmt9Formatter12pad_integral12write_prefix17h8712153fe199722dE+0x54>
f80013fc:	0109a683          	lw	a3,16(s3)
f8001400:	00050a13          	mv	s4,a0
f8001404:	00060593          	mv	a1,a2
f8001408:	000680e7          	jalr	a3
f800140c:	00050613          	mv	a2,a0
f8001410:	000a0513          	mv	a0,s4
f8001414:	00100593          	li	a1,1
f8001418:	02061c63          	bnez	a2,f8001450 <_ZN4core3fmt9Formatter12pad_integral12write_prefix17h8712153fe199722dE+0x88>
f800141c:	02090863          	beqz	s2,f800144c <_ZN4core3fmt9Formatter12pad_integral12write_prefix17h8712153fe199722dE+0x84>
f8001420:	00c9a303          	lw	t1,12(s3)
f8001424:	00090593          	mv	a1,s2
f8001428:	00048613          	mv	a2,s1
f800142c:	01c12083          	lw	ra,28(sp)
f8001430:	01812403          	lw	s0,24(sp)
f8001434:	01412483          	lw	s1,20(sp)
f8001438:	01012903          	lw	s2,16(sp)
f800143c:	00c12983          	lw	s3,12(sp)
f8001440:	00812a03          	lw	s4,8(sp)
f8001444:	02010113          	add	sp,sp,32
f8001448:	00030067          	jr	t1
f800144c:	00000593          	li	a1,0
f8001450:	00058513          	mv	a0,a1
f8001454:	01c12083          	lw	ra,28(sp)
f8001458:	01812403          	lw	s0,24(sp)
f800145c:	01412483          	lw	s1,20(sp)
f8001460:	01012903          	lw	s2,16(sp)
f8001464:	00c12983          	lw	s3,12(sp)
f8001468:	00812a03          	lw	s4,8(sp)
f800146c:	02010113          	add	sp,sp,32
f8001470:	00008067          	ret

f8001474 <_ZN4core3fmt9Formatter3pad17hdb3cd97c63ef5752E>:
f8001474:	fd010113          	add	sp,sp,-48
f8001478:	02112623          	sw	ra,44(sp)
f800147c:	02812423          	sw	s0,40(sp)
f8001480:	02912223          	sw	s1,36(sp)
f8001484:	03212023          	sw	s2,32(sp)
f8001488:	01312e23          	sw	s3,28(sp)
f800148c:	01412c23          	sw	s4,24(sp)
f8001490:	01512a23          	sw	s5,20(sp)
f8001494:	01612823          	sw	s6,16(sp)
f8001498:	01712623          	sw	s7,12(sp)
f800149c:	03010413          	add	s0,sp,48
f80014a0:	00052683          	lw	a3,0(a0)
f80014a4:	00852703          	lw	a4,8(a0)
f80014a8:	00e6e7b3          	or	a5,a3,a4
f80014ac:	00060493          	mv	s1,a2
f80014b0:	00058913          	mv	s2,a1
f80014b4:	1a078863          	beqz	a5,f8001664 <_ZN4core3fmt9Formatter3pad17hdb3cd97c63ef5752E+0x1f0>
f80014b8:	12070663          	beqz	a4,f80015e4 <_ZN4core3fmt9Formatter3pad17hdb3cd97c63ef5752E+0x170>
f80014bc:	00c52703          	lw	a4,12(a0)
f80014c0:	00990633          	add	a2,s2,s1
f80014c4:	00000593          	li	a1,0
f80014c8:	08070c63          	beqz	a4,f8001560 <_ZN4core3fmt9Formatter3pad17hdb3cd97c63ef5752E+0xec>
f80014cc:	0e000793          	li	a5,224
f80014d0:	0f000813          	li	a6,240
f80014d4:	001108b7          	lui	a7,0x110
f80014d8:	00090293          	mv	t0,s2
f80014dc:	01c0006f          	j	f80014f8 <_ZN4core3fmt9Formatter3pad17hdb3cd97c63ef5752E+0x84>
f80014e0:	00128313          	add	t1,t0,1
f80014e4:	405585b3          	sub	a1,a1,t0
f80014e8:	fff70713          	add	a4,a4,-1
f80014ec:	006585b3          	add	a1,a1,t1
f80014f0:	00030293          	mv	t0,t1
f80014f4:	06070863          	beqz	a4,f8001564 <_ZN4core3fmt9Formatter3pad17hdb3cd97c63ef5752E+0xf0>
f80014f8:	0ec28663          	beq	t0,a2,f80015e4 <_ZN4core3fmt9Formatter3pad17hdb3cd97c63ef5752E+0x170>
f80014fc:	00028303          	lb	t1,0(t0)
f8001500:	fe0350e3          	bgez	t1,f80014e0 <_ZN4core3fmt9Formatter3pad17hdb3cd97c63ef5752E+0x6c>
f8001504:	0ff37313          	zext.b	t1,t1
f8001508:	04f36463          	bltu	t1,a5,f8001550 <_ZN4core3fmt9Formatter3pad17hdb3cd97c63ef5752E+0xdc>
f800150c:	05036663          	bltu	t1,a6,f8001558 <_ZN4core3fmt9Formatter3pad17hdb3cd97c63ef5752E+0xe4>
f8001510:	0012c383          	lbu	t2,1(t0)
f8001514:	0022ce03          	lbu	t3,2(t0)
f8001518:	03f3f393          	and	t2,t2,63
f800151c:	03fe7e13          	and	t3,t3,63
f8001520:	0032ce83          	lbu	t4,3(t0)
f8001524:	01d31313          	sll	t1,t1,0x1d
f8001528:	00b35313          	srl	t1,t1,0xb
f800152c:	00c39393          	sll	t2,t2,0xc
f8001530:	006e1e13          	sll	t3,t3,0x6
f8001534:	007e63b3          	or	t2,t3,t2
f8001538:	03fefe13          	and	t3,t4,63
f800153c:	01c3e3b3          	or	t2,t2,t3
f8001540:	0063e333          	or	t1,t2,t1
f8001544:	0b130063          	beq	t1,a7,f80015e4 <_ZN4core3fmt9Formatter3pad17hdb3cd97c63ef5752E+0x170>
f8001548:	00428313          	add	t1,t0,4
f800154c:	f99ff06f          	j	f80014e4 <_ZN4core3fmt9Formatter3pad17hdb3cd97c63ef5752E+0x70>
f8001550:	00228313          	add	t1,t0,2
f8001554:	f91ff06f          	j	f80014e4 <_ZN4core3fmt9Formatter3pad17hdb3cd97c63ef5752E+0x70>
f8001558:	00328313          	add	t1,t0,3
f800155c:	f89ff06f          	j	f80014e4 <_ZN4core3fmt9Formatter3pad17hdb3cd97c63ef5752E+0x70>
f8001560:	00090313          	mv	t1,s2
f8001564:	08c30063          	beq	t1,a2,f80015e4 <_ZN4core3fmt9Formatter3pad17hdb3cd97c63ef5752E+0x170>
f8001568:	00030603          	lb	a2,0(t1)
f800156c:	04065a63          	bgez	a2,f80015c0 <_ZN4core3fmt9Formatter3pad17hdb3cd97c63ef5752E+0x14c>
f8001570:	0ff67613          	zext.b	a2,a2
f8001574:	0e000713          	li	a4,224
f8001578:	04e66463          	bltu	a2,a4,f80015c0 <_ZN4core3fmt9Formatter3pad17hdb3cd97c63ef5752E+0x14c>
f800157c:	0f000713          	li	a4,240
f8001580:	04e66063          	bltu	a2,a4,f80015c0 <_ZN4core3fmt9Formatter3pad17hdb3cd97c63ef5752E+0x14c>
f8001584:	00134703          	lbu	a4,1(t1)
f8001588:	00234783          	lbu	a5,2(t1)
f800158c:	03f77713          	and	a4,a4,63
f8001590:	03f7f793          	and	a5,a5,63
f8001594:	00334803          	lbu	a6,3(t1)
f8001598:	01d61613          	sll	a2,a2,0x1d
f800159c:	00b65613          	srl	a2,a2,0xb
f80015a0:	00c71713          	sll	a4,a4,0xc
f80015a4:	00679793          	sll	a5,a5,0x6
f80015a8:	00e7e733          	or	a4,a5,a4
f80015ac:	03f87793          	and	a5,a6,63
f80015b0:	00f76733          	or	a4,a4,a5
f80015b4:	00c76633          	or	a2,a4,a2
f80015b8:	00110737          	lui	a4,0x110
f80015bc:	02e60463          	beq	a2,a4,f80015e4 <_ZN4core3fmt9Formatter3pad17hdb3cd97c63ef5752E+0x170>
f80015c0:	02058063          	beqz	a1,f80015e0 <_ZN4core3fmt9Formatter3pad17hdb3cd97c63ef5752E+0x16c>
f80015c4:	0095fc63          	bgeu	a1,s1,f80015dc <_ZN4core3fmt9Formatter3pad17hdb3cd97c63ef5752E+0x168>
f80015c8:	00b90633          	add	a2,s2,a1
f80015cc:	00060603          	lb	a2,0(a2)
f80015d0:	fc000713          	li	a4,-64
f80015d4:	00e65663          	bge	a2,a4,f80015e0 <_ZN4core3fmt9Formatter3pad17hdb3cd97c63ef5752E+0x16c>
f80015d8:	00c0006f          	j	f80015e4 <_ZN4core3fmt9Formatter3pad17hdb3cd97c63ef5752E+0x170>
f80015dc:	00959463          	bne	a1,s1,f80015e4 <_ZN4core3fmt9Formatter3pad17hdb3cd97c63ef5752E+0x170>
f80015e0:	00058493          	mv	s1,a1
f80015e4:	08068063          	beqz	a3,f8001664 <_ZN4core3fmt9Formatter3pad17hdb3cd97c63ef5752E+0x1f0>
f80015e8:	00452983          	lw	s3,4(a0)
f80015ec:	01000593          	li	a1,16
f80015f0:	04b4fa63          	bgeu	s1,a1,f8001644 <_ZN4core3fmt9Formatter3pad17hdb3cd97c63ef5752E+0x1d0>
f80015f4:	00000593          	li	a1,0
f80015f8:	02048263          	beqz	s1,f800161c <_ZN4core3fmt9Formatter3pad17hdb3cd97c63ef5752E+0x1a8>
f80015fc:	00990633          	add	a2,s2,s1
f8001600:	00090693          	mv	a3,s2
f8001604:	00068703          	lb	a4,0(a3)
f8001608:	fc072713          	slti	a4,a4,-64
f800160c:	00174713          	xor	a4,a4,1
f8001610:	00168693          	add	a3,a3,1
f8001614:	00e585b3          	add	a1,a1,a4
f8001618:	fec696e3          	bne	a3,a2,f8001604 <_ZN4core3fmt9Formatter3pad17hdb3cd97c63ef5752E+0x190>
f800161c:	0535f463          	bgeu	a1,s3,f8001664 <_ZN4core3fmt9Formatter3pad17hdb3cd97c63ef5752E+0x1f0>
f8001620:	02054683          	lbu	a3,32(a0)
f8001624:	00000613          	li	a2,0
f8001628:	00100713          	li	a4,1
f800162c:	40b98ab3          	sub	s5,s3,a1
f8001630:	06d74a63          	blt	a4,a3,f80016a4 <_ZN4core3fmt9Formatter3pad17hdb3cd97c63ef5752E+0x230>
f8001634:	08068263          	beqz	a3,f80016b8 <_ZN4core3fmt9Formatter3pad17hdb3cd97c63ef5752E+0x244>
f8001638:	000a8613          	mv	a2,s5
f800163c:	00000a93          	li	s5,0
f8001640:	0780006f          	j	f80016b8 <_ZN4core3fmt9Formatter3pad17hdb3cd97c63ef5752E+0x244>
f8001644:	00050a13          	mv	s4,a0
f8001648:	00090513          	mv	a0,s2
f800164c:	00048593          	mv	a1,s1
f8001650:	00000097          	auipc	ra,0x0
f8001654:	25c080e7          	jalr	604(ra) # f80018ac <_ZN4core3str5count14do_count_chars17hf65d4063b61adf80E>
f8001658:	00050593          	mv	a1,a0
f800165c:	000a0513          	mv	a0,s4
f8001660:	fd35e0e3          	bltu	a1,s3,f8001620 <_ZN4core3fmt9Formatter3pad17hdb3cd97c63ef5752E+0x1ac>
f8001664:	01852583          	lw	a1,24(a0)
f8001668:	01452503          	lw	a0,20(a0)
f800166c:	00c5a303          	lw	t1,12(a1)
f8001670:	00090593          	mv	a1,s2
f8001674:	00048613          	mv	a2,s1
f8001678:	02c12083          	lw	ra,44(sp)
f800167c:	02812403          	lw	s0,40(sp)
f8001680:	02412483          	lw	s1,36(sp)
f8001684:	02012903          	lw	s2,32(sp)
f8001688:	01c12983          	lw	s3,28(sp)
f800168c:	01812a03          	lw	s4,24(sp)
f8001690:	01412a83          	lw	s5,20(sp)
f8001694:	01012b03          	lw	s6,16(sp)
f8001698:	00c12b83          	lw	s7,12(sp)
f800169c:	03010113          	add	sp,sp,48
f80016a0:	00030067          	jr	t1
f80016a4:	00200593          	li	a1,2
f80016a8:	00b69863          	bne	a3,a1,f80016b8 <_ZN4core3fmt9Formatter3pad17hdb3cd97c63ef5752E+0x244>
f80016ac:	001ad613          	srl	a2,s5,0x1
f80016b0:	001a8a93          	add	s5,s5,1 # 110001 <.Lline_table_start1+0x10f511>
f80016b4:	001ada93          	srl	s5,s5,0x1
f80016b8:	01452983          	lw	s3,20(a0)
f80016bc:	01852b03          	lw	s6,24(a0)
f80016c0:	01052a03          	lw	s4,16(a0)
f80016c4:	00160b93          	add	s7,a2,1
f80016c8:	fffb8b93          	add	s7,s7,-1
f80016cc:	020b8063          	beqz	s7,f80016ec <_ZN4core3fmt9Formatter3pad17hdb3cd97c63ef5752E+0x278>
f80016d0:	010b2603          	lw	a2,16(s6)
f80016d4:	00098513          	mv	a0,s3
f80016d8:	000a0593          	mv	a1,s4
f80016dc:	000600e7          	jalr	a2
f80016e0:	fe0504e3          	beqz	a0,f80016c8 <_ZN4core3fmt9Formatter3pad17hdb3cd97c63ef5752E+0x254>
f80016e4:	00100513          	li	a0,1
f80016e8:	05c0006f          	j	f8001744 <_ZN4core3fmt9Formatter3pad17hdb3cd97c63ef5752E+0x2d0>
f80016ec:	00cb2683          	lw	a3,12(s6)
f80016f0:	00098513          	mv	a0,s3
f80016f4:	00090593          	mv	a1,s2
f80016f8:	00048613          	mv	a2,s1
f80016fc:	000680e7          	jalr	a3
f8001700:	00050593          	mv	a1,a0
f8001704:	00100513          	li	a0,1
f8001708:	02059e63          	bnez	a1,f8001744 <_ZN4core3fmt9Formatter3pad17hdb3cd97c63ef5752E+0x2d0>
f800170c:	41500933          	neg	s2,s5
f8001710:	fff00b93          	li	s7,-1
f8001714:	fff00493          	li	s1,-1
f8001718:	00990533          	add	a0,s2,s1
f800171c:	03750063          	beq	a0,s7,f800173c <_ZN4core3fmt9Formatter3pad17hdb3cd97c63ef5752E+0x2c8>
f8001720:	010b2603          	lw	a2,16(s6)
f8001724:	00098513          	mv	a0,s3
f8001728:	000a0593          	mv	a1,s4
f800172c:	000600e7          	jalr	a2
f8001730:	00148493          	add	s1,s1,1
f8001734:	fe0502e3          	beqz	a0,f8001718 <_ZN4core3fmt9Formatter3pad17hdb3cd97c63ef5752E+0x2a4>
f8001738:	0080006f          	j	f8001740 <_ZN4core3fmt9Formatter3pad17hdb3cd97c63ef5752E+0x2cc>
f800173c:	000a8493          	mv	s1,s5
f8001740:	0154b533          	sltu	a0,s1,s5
f8001744:	02c12083          	lw	ra,44(sp)
f8001748:	02812403          	lw	s0,40(sp)
f800174c:	02412483          	lw	s1,36(sp)
f8001750:	02012903          	lw	s2,32(sp)
f8001754:	01c12983          	lw	s3,28(sp)
f8001758:	01812a03          	lw	s4,24(sp)
f800175c:	01412a83          	lw	s5,20(sp)
f8001760:	01012b03          	lw	s6,16(sp)
f8001764:	00c12b83          	lw	s7,12(sp)
f8001768:	03010113          	add	sp,sp,48
f800176c:	00008067          	ret

f8001770 <_ZN42_$LT$str$u20$as$u20$core..fmt..Display$GT$3fmt17ha14fcfe32539fe4cE>:
f8001770:	ff010113          	add	sp,sp,-16
f8001774:	00112623          	sw	ra,12(sp)
f8001778:	00812423          	sw	s0,8(sp)
f800177c:	01010413          	add	s0,sp,16
f8001780:	00058693          	mv	a3,a1
f8001784:	00050593          	mv	a1,a0
f8001788:	00060513          	mv	a0,a2
f800178c:	00068613          	mv	a2,a3
f8001790:	00c12083          	lw	ra,12(sp)
f8001794:	00812403          	lw	s0,8(sp)
f8001798:	01010113          	add	sp,sp,16
f800179c:	00000317          	auipc	t1,0x0
f80017a0:	cd830067          	jr	-808(t1) # f8001474 <_ZN4core3fmt9Formatter3pad17hdb3cd97c63ef5752E>

f80017a4 <_ZN4core5slice5index24slice_end_index_len_fail17h2cc6c563155bcb9fE>:
f80017a4:	ff010113          	add	sp,sp,-16
f80017a8:	00112623          	sw	ra,12(sp)
f80017ac:	00812423          	sw	s0,8(sp)
f80017b0:	01010413          	add	s0,sp,16
f80017b4:	00000097          	auipc	ra,0x0
f80017b8:	008080e7          	jalr	8(ra) # f80017bc <_ZN4core5slice5index27slice_end_index_len_fail_rt17hed1b5e7e69590a4dE>

f80017bc <_ZN4core5slice5index27slice_end_index_len_fail_rt17hed1b5e7e69590a4dE>:
f80017bc:	fc010113          	add	sp,sp,-64
f80017c0:	02112e23          	sw	ra,60(sp)
f80017c4:	02812c23          	sw	s0,56(sp)
f80017c8:	04010413          	add	s0,sp,64
f80017cc:	fca42423          	sw	a0,-56(s0)
f80017d0:	fcb42623          	sw	a1,-52(s0)
f80017d4:	fc840513          	add	a0,s0,-56
f80017d8:	fea42423          	sw	a0,-24(s0)
f80017dc:	f8002537          	lui	a0,0xf8002
f80017e0:	d1c50513          	add	a0,a0,-740 # f8001d1c <_ZN4core3fmt3num3imp52_$LT$impl$u20$core..fmt..Display$u20$for$u20$u32$GT$3fmt17h824d6ece991163ffE>
f80017e4:	fea42623          	sw	a0,-20(s0)
f80017e8:	fcc40593          	add	a1,s0,-52
f80017ec:	feb42823          	sw	a1,-16(s0)
f80017f0:	fea42a23          	sw	a0,-12(s0)
f80017f4:	f8002537          	lui	a0,0xf8002
f80017f8:	3c850513          	add	a0,a0,968 # f80023c8 <.Lanon.417d308534643a9a09c6c2eafbd8258e.339>
f80017fc:	fca42823          	sw	a0,-48(s0)
f8001800:	00200513          	li	a0,2
f8001804:	fca42a23          	sw	a0,-44(s0)
f8001808:	fe042023          	sw	zero,-32(s0)
f800180c:	fe840593          	add	a1,s0,-24
f8001810:	fcb42c23          	sw	a1,-40(s0)
f8001814:	fca42e23          	sw	a0,-36(s0)
f8001818:	fd040513          	add	a0,s0,-48
f800181c:	00060593          	mv	a1,a2
f8001820:	fffff097          	auipc	ra,0xfffff
f8001824:	4e4080e7          	jalr	1252(ra) # f8000d04 <_ZN4core9panicking9panic_fmt17hd720f60f34678786E>

f8001828 <_ZN4core5slice5index22slice_index_order_fail17h4bef6ffad0bff137E>:
f8001828:	ff010113          	add	sp,sp,-16
f800182c:	00112623          	sw	ra,12(sp)
f8001830:	00812423          	sw	s0,8(sp)
f8001834:	01010413          	add	s0,sp,16
f8001838:	00000097          	auipc	ra,0x0
f800183c:	008080e7          	jalr	8(ra) # f8001840 <_ZN4core5slice5index25slice_index_order_fail_rt17hfff4d3140099bd12E>

f8001840 <_ZN4core5slice5index25slice_index_order_fail_rt17hfff4d3140099bd12E>:
f8001840:	fc010113          	add	sp,sp,-64
f8001844:	02112e23          	sw	ra,60(sp)
f8001848:	02812c23          	sw	s0,56(sp)
f800184c:	04010413          	add	s0,sp,64
f8001850:	fca42423          	sw	a0,-56(s0)
f8001854:	fcb42623          	sw	a1,-52(s0)
f8001858:	fc840513          	add	a0,s0,-56
f800185c:	fea42423          	sw	a0,-24(s0)
f8001860:	f8002537          	lui	a0,0xf8002
f8001864:	d1c50513          	add	a0,a0,-740 # f8001d1c <_ZN4core3fmt3num3imp52_$LT$impl$u20$core..fmt..Display$u20$for$u20$u32$GT$3fmt17h824d6ece991163ffE>
f8001868:	fea42623          	sw	a0,-20(s0)
f800186c:	fcc40593          	add	a1,s0,-52
f8001870:	feb42823          	sw	a1,-16(s0)
f8001874:	fea42a23          	sw	a0,-12(s0)
f8001878:	f8002537          	lui	a0,0xf8002
f800187c:	3fc50513          	add	a0,a0,1020 # f80023fc <.Lanon.417d308534643a9a09c6c2eafbd8258e.342>
f8001880:	fca42823          	sw	a0,-48(s0)
f8001884:	00200513          	li	a0,2
f8001888:	fca42a23          	sw	a0,-44(s0)
f800188c:	fe042023          	sw	zero,-32(s0)
f8001890:	fe840593          	add	a1,s0,-24
f8001894:	fcb42c23          	sw	a1,-40(s0)
f8001898:	fca42e23          	sw	a0,-36(s0)
f800189c:	fd040513          	add	a0,s0,-48
f80018a0:	00060593          	mv	a1,a2
f80018a4:	fffff097          	auipc	ra,0xfffff
f80018a8:	460080e7          	jalr	1120(ra) # f8000d04 <_ZN4core9panicking9panic_fmt17hd720f60f34678786E>

f80018ac <_ZN4core3str5count14do_count_chars17hf65d4063b61adf80E>:
f80018ac:	ff010113          	add	sp,sp,-16
f80018b0:	00112623          	sw	ra,12(sp)
f80018b4:	00812423          	sw	s0,8(sp)
f80018b8:	01010413          	add	s0,sp,16
f80018bc:	00050613          	mv	a2,a0
f80018c0:	00350693          	add	a3,a0,3
f80018c4:	ffc6f693          	and	a3,a3,-4
f80018c8:	40a682b3          	sub	t0,a3,a0
f80018cc:	1655e263          	bltu	a1,t0,f8001a30 <_ZN4core3str5count14do_count_chars17hf65d4063b61adf80E+0x184>
f80018d0:	40558733          	sub	a4,a1,t0
f80018d4:	00275893          	srl	a7,a4,0x2
f80018d8:	14088c63          	beqz	a7,f8001a30 <_ZN4core3str5count14do_count_chars17hf65d4063b61adf80E+0x184>
f80018dc:	005602b3          	add	t0,a2,t0
f80018e0:	00377593          	and	a1,a4,3
f80018e4:	00000513          	li	a0,0
f80018e8:	00c68e63          	beq	a3,a2,f8001904 <_ZN4core3str5count14do_count_chars17hf65d4063b61adf80E+0x58>
f80018ec:	00060783          	lb	a5,0(a2)
f80018f0:	fc07a793          	slti	a5,a5,-64
f80018f4:	0017c793          	xor	a5,a5,1
f80018f8:	00160613          	add	a2,a2,1
f80018fc:	00f50533          	add	a0,a0,a5
f8001900:	fe5616e3          	bne	a2,t0,f80018ec <_ZN4core3str5count14do_count_chars17hf65d4063b61adf80E+0x40>
f8001904:	00000793          	li	a5,0
f8001908:	02058663          	beqz	a1,f8001934 <_ZN4core3str5count14do_count_chars17hf65d4063b61adf80E+0x88>
f800190c:	ffc77713          	and	a4,a4,-4
f8001910:	00e28633          	add	a2,t0,a4
f8001914:	00d706b3          	add	a3,a4,a3
f8001918:	00b685b3          	add	a1,a3,a1
f800191c:	00060683          	lb	a3,0(a2)
f8001920:	fc06a693          	slti	a3,a3,-64
f8001924:	0016c693          	xor	a3,a3,1
f8001928:	00160613          	add	a2,a2,1
f800192c:	00d787b3          	add	a5,a5,a3
f8001930:	feb616e3          	bne	a2,a1,f800191c <_ZN4core3str5count14do_count_chars17hf65d4063b61adf80E+0x70>
f8001934:	010105b7          	lui	a1,0x1010
f8001938:	10158613          	add	a2,a1,257 # 1010101 <.Lline_table_start1+0x100f611>
f800193c:	00ff05b7          	lui	a1,0xff0
f8001940:	0ff58593          	add	a1,a1,255 # ff00ff <.Lline_table_start1+0xfef60f>
f8001944:	00a78533          	add	a0,a5,a0
f8001948:	00400793          	li	a5,4
f800194c:	0340006f          	j	f8001980 <_ZN4core3str5count14do_count_chars17hf65d4063b61adf80E+0xd4>
f8001950:	005702b3          	add	t0,a4,t0
f8001954:	410688b3          	sub	a7,a3,a6
f8001958:	00387313          	and	t1,a6,3
f800195c:	00b3fe33          	and	t3,t2,a1
f8001960:	0083d393          	srl	t2,t2,0x8
f8001964:	00b3f3b3          	and	t2,t2,a1
f8001968:	01c383b3          	add	t2,t2,t3
f800196c:	01039e13          	sll	t3,t2,0x10
f8001970:	007e03b3          	add	t2,t3,t2
f8001974:	0103d393          	srl	t2,t2,0x10
f8001978:	00a38533          	add	a0,t2,a0
f800197c:	0e031463          	bnez	t1,f8001a64 <_ZN4core3str5count14do_count_chars17hf65d4063b61adf80E+0x1b8>
f8001980:	0c088a63          	beqz	a7,f8001a54 <_ZN4core3str5count14do_count_chars17hf65d4063b61adf80E+0x1a8>
f8001984:	00088693          	mv	a3,a7
f8001988:	00028713          	mv	a4,t0
f800198c:	0c000893          	li	a7,192
f8001990:	00068813          	mv	a6,a3
f8001994:	0116e463          	bltu	a3,a7,f800199c <_ZN4core3str5count14do_count_chars17hf65d4063b61adf80E+0xf0>
f8001998:	0c000813          	li	a6,192
f800199c:	00281293          	sll	t0,a6,0x2
f80019a0:	00000393          	li	t2,0
f80019a4:	faf6e6e3          	bltu	a3,a5,f8001950 <_ZN4core3str5count14do_count_chars17hf65d4063b61adf80E+0xa4>
f80019a8:	3f02f893          	and	a7,t0,1008
f80019ac:	011708b3          	add	a7,a4,a7
f80019b0:	00070313          	mv	t1,a4
f80019b4:	00032e03          	lw	t3,0(t1)
f80019b8:	fffe4e93          	not	t4,t3
f80019bc:	007ede93          	srl	t4,t4,0x7
f80019c0:	006e5e13          	srl	t3,t3,0x6
f80019c4:	00432f03          	lw	t5,4(t1)
f80019c8:	01ceee33          	or	t3,t4,t3
f80019cc:	00ce7e33          	and	t3,t3,a2
f80019d0:	007e03b3          	add	t2,t3,t2
f80019d4:	ffff4e13          	not	t3,t5
f80019d8:	007e5e13          	srl	t3,t3,0x7
f80019dc:	00832e83          	lw	t4,8(t1)
f80019e0:	006f5f13          	srl	t5,t5,0x6
f80019e4:	01ee6e33          	or	t3,t3,t5
f80019e8:	00ce7e33          	and	t3,t3,a2
f80019ec:	fffecf13          	not	t5,t4
f80019f0:	007f5f13          	srl	t5,t5,0x7
f80019f4:	006ede93          	srl	t4,t4,0x6
f80019f8:	01df6eb3          	or	t4,t5,t4
f80019fc:	00c32f03          	lw	t5,12(t1)
f8001a00:	00cefeb3          	and	t4,t4,a2
f8001a04:	01ce8e33          	add	t3,t4,t3
f8001a08:	007e03b3          	add	t2,t3,t2
f8001a0c:	ffff4e13          	not	t3,t5
f8001a10:	007e5e13          	srl	t3,t3,0x7
f8001a14:	006f5e93          	srl	t4,t5,0x6
f8001a18:	01de6e33          	or	t3,t3,t4
f8001a1c:	00ce7e33          	and	t3,t3,a2
f8001a20:	01030313          	add	t1,t1,16
f8001a24:	007e03b3          	add	t2,t3,t2
f8001a28:	f91316e3          	bne	t1,a7,f80019b4 <_ZN4core3str5count14do_count_chars17hf65d4063b61adf80E+0x108>
f8001a2c:	f25ff06f          	j	f8001950 <_ZN4core3str5count14do_count_chars17hf65d4063b61adf80E+0xa4>
f8001a30:	00000513          	li	a0,0
f8001a34:	02058063          	beqz	a1,f8001a54 <_ZN4core3str5count14do_count_chars17hf65d4063b61adf80E+0x1a8>
f8001a38:	00b605b3          	add	a1,a2,a1
f8001a3c:	00060683          	lb	a3,0(a2)
f8001a40:	fc06a693          	slti	a3,a3,-64
f8001a44:	0016c693          	xor	a3,a3,1
f8001a48:	00160613          	add	a2,a2,1
f8001a4c:	00d50533          	add	a0,a0,a3
f8001a50:	feb616e3          	bne	a2,a1,f8001a3c <_ZN4core3str5count14do_count_chars17hf65d4063b61adf80E+0x190>
f8001a54:	00c12083          	lw	ra,12(sp)
f8001a58:	00812403          	lw	s0,8(sp)
f8001a5c:	01010113          	add	sp,sp,16
f8001a60:	00008067          	ret
f8001a64:	00000793          	li	a5,0
f8001a68:	0fc87813          	and	a6,a6,252
f8001a6c:	00281813          	sll	a6,a6,0x2
f8001a70:	01070733          	add	a4,a4,a6
f8001a74:	0c06b813          	sltiu	a6,a3,192
f8001a78:	41000833          	neg	a6,a6
f8001a7c:	0106f6b3          	and	a3,a3,a6
f8001a80:	0036f693          	and	a3,a3,3
f8001a84:	00269693          	sll	a3,a3,0x2
f8001a88:	00072803          	lw	a6,0(a4) # 110000 <.Lline_table_start1+0x10f510>
f8001a8c:	00470713          	add	a4,a4,4
f8001a90:	fff84893          	not	a7,a6
f8001a94:	0078d893          	srl	a7,a7,0x7
f8001a98:	00685813          	srl	a6,a6,0x6
f8001a9c:	0108e833          	or	a6,a7,a6
f8001aa0:	00c87833          	and	a6,a6,a2
f8001aa4:	ffc68693          	add	a3,a3,-4
f8001aa8:	00f807b3          	add	a5,a6,a5
f8001aac:	fc069ee3          	bnez	a3,f8001a88 <_ZN4core3str5count14do_count_chars17hf65d4063b61adf80E+0x1dc>
f8001ab0:	00b7f633          	and	a2,a5,a1
f8001ab4:	0087d793          	srl	a5,a5,0x8
f8001ab8:	00b7f5b3          	and	a1,a5,a1
f8001abc:	00c585b3          	add	a1,a1,a2
f8001ac0:	01059613          	sll	a2,a1,0x10
f8001ac4:	00b605b3          	add	a1,a2,a1
f8001ac8:	0105d593          	srl	a1,a1,0x10
f8001acc:	00a58533          	add	a0,a1,a0
f8001ad0:	00c12083          	lw	ra,12(sp)
f8001ad4:	00812403          	lw	s0,8(sp)
f8001ad8:	01010113          	add	sp,sp,16
f8001adc:	00008067          	ret

f8001ae0 <_ZN4core3fmt3num3imp7fmt_u3217hcbd12d4652c9c514E>:
f8001ae0:	fa010113          	add	sp,sp,-96
f8001ae4:	04112e23          	sw	ra,92(sp)
f8001ae8:	04812c23          	sw	s0,88(sp)
f8001aec:	04912a23          	sw	s1,84(sp)
f8001af0:	05212823          	sw	s2,80(sp)
f8001af4:	05312623          	sw	s3,76(sp)
f8001af8:	05412423          	sw	s4,72(sp)
f8001afc:	05512223          	sw	s5,68(sp)
f8001b00:	05612023          	sw	s6,64(sp)
f8001b04:	03712e23          	sw	s7,60(sp)
f8001b08:	03812c23          	sw	s8,56(sp)
f8001b0c:	03912a23          	sw	s9,52(sp)
f8001b10:	03a12823          	sw	s10,48(sp)
f8001b14:	03b12623          	sw	s11,44(sp)
f8001b18:	06010413          	add	s0,sp,96
f8001b1c:	00060493          	mv	s1,a2
f8001b20:	00058913          	mv	s2,a1
f8001b24:	00050993          	mv	s3,a0
f8001b28:	00455513          	srl	a0,a0,0x4
f8001b2c:	27100593          	li	a1,625
f8001b30:	02700a93          	li	s5,39
f8001b34:	02b57663          	bgeu	a0,a1,f8001b60 <_ZN4core3fmt3num3imp7fmt_u3217hcbd12d4652c9c514E+0x80>
f8001b38:	06300513          	li	a0,99
f8001b3c:	0f356663          	bltu	a0,s3,f8001c28 <_ZN4core3fmt3num3imp7fmt_u3217hcbd12d4652c9c514E+0x148>
f8001b40:	00a00513          	li	a0,10
f8001b44:	14a9f463          	bgeu	s3,a0,f8001c8c <_ZN4core3fmt3num3imp7fmt_u3217hcbd12d4652c9c514E+0x1ac>
f8001b48:	fffa8a93          	add	s5,s5,-1
f8001b4c:	fa540513          	add	a0,s0,-91
f8001b50:	01550533          	add	a0,a0,s5
f8001b54:	0309e593          	or	a1,s3,48
f8001b58:	00b50023          	sb	a1,0(a0)
f8001b5c:	15c0006f          	j	f8001cb8 <_ZN4core3fmt3num3imp7fmt_u3217hcbd12d4652c9c514E+0x1d8>
f8001b60:	fa942023          	sw	s1,-96(s0)
f8001b64:	00000b13          	li	s6,0
f8001b68:	fc840b93          	add	s7,s0,-56
f8001b6c:	fca40c13          	add	s8,s0,-54
f8001b70:	00002537          	lui	a0,0x2
f8001b74:	71050a13          	add	s4,a0,1808 # 2710 <.Lline_table_start1+0x1c20>
f8001b78:	f8002537          	lui	a0,0xf8002
f8001b7c:	2dc50c93          	add	s9,a0,732 # f80022dc <.Lanon.417d308534643a9a09c6c2eafbd8258e.316>
f8001b80:	05f5e537          	lui	a0,0x5f5e
f8001b84:	0ff50d13          	add	s10,a0,255 # 5f5e0ff <.Lline_table_start1+0x5f5d60f>
f8001b88:	00098a93          	mv	s5,s3
f8001b8c:	00098513          	mv	a0,s3
f8001b90:	000a0593          	mv	a1,s4
f8001b94:	00000097          	auipc	ra,0x0
f8001b98:	260080e7          	jalr	608(ra) # f8001df4 <__udivsi3>
f8001b9c:	00050993          	mv	s3,a0
f8001ba0:	000a0593          	mv	a1,s4
f8001ba4:	00000097          	auipc	ra,0x0
f8001ba8:	208080e7          	jalr	520(ra) # f8001dac <__mulsi3>
f8001bac:	40aa8db3          	sub	s11,s5,a0
f8001bb0:	010d9513          	sll	a0,s11,0x10
f8001bb4:	01055513          	srl	a0,a0,0x10
f8001bb8:	06400593          	li	a1,100
f8001bbc:	00000097          	auipc	ra,0x0
f8001bc0:	238080e7          	jalr	568(ra) # f8001df4 <__udivsi3>
f8001bc4:	00151493          	sll	s1,a0,0x1
f8001bc8:	06400593          	li	a1,100
f8001bcc:	00000097          	auipc	ra,0x0
f8001bd0:	1e0080e7          	jalr	480(ra) # f8001dac <__mulsi3>
f8001bd4:	40ad8533          	sub	a0,s11,a0
f8001bd8:	01151513          	sll	a0,a0,0x11
f8001bdc:	009c84b3          	add	s1,s9,s1
f8001be0:	0014c583          	lbu	a1,1(s1)
f8001be4:	01055513          	srl	a0,a0,0x10
f8001be8:	016b8633          	add	a2,s7,s6
f8001bec:	0004c683          	lbu	a3,0(s1)
f8001bf0:	00b600a3          	sb	a1,1(a2)
f8001bf4:	00ac8533          	add	a0,s9,a0
f8001bf8:	00154583          	lbu	a1,1(a0)
f8001bfc:	00054503          	lbu	a0,0(a0)
f8001c00:	00d60023          	sb	a3,0(a2)
f8001c04:	016c0633          	add	a2,s8,s6
f8001c08:	00b600a3          	sb	a1,1(a2)
f8001c0c:	00a60023          	sb	a0,0(a2)
f8001c10:	ffcb0b13          	add	s6,s6,-4
f8001c14:	f75d6ae3          	bltu	s10,s5,f8001b88 <_ZN4core3fmt3num3imp7fmt_u3217hcbd12d4652c9c514E+0xa8>
f8001c18:	027b0a93          	add	s5,s6,39
f8001c1c:	fa042483          	lw	s1,-96(s0)
f8001c20:	06300513          	li	a0,99
f8001c24:	f1357ee3          	bgeu	a0,s3,f8001b40 <_ZN4core3fmt3num3imp7fmt_u3217hcbd12d4652c9c514E+0x60>
f8001c28:	01099513          	sll	a0,s3,0x10
f8001c2c:	01055513          	srl	a0,a0,0x10
f8001c30:	06400593          	li	a1,100
f8001c34:	00000097          	auipc	ra,0x0
f8001c38:	1c0080e7          	jalr	448(ra) # f8001df4 <__udivsi3>
f8001c3c:	00050a13          	mv	s4,a0
f8001c40:	06400593          	li	a1,100
f8001c44:	00000097          	auipc	ra,0x0
f8001c48:	168080e7          	jalr	360(ra) # f8001dac <__mulsi3>
f8001c4c:	40a98533          	sub	a0,s3,a0
f8001c50:	01151513          	sll	a0,a0,0x11
f8001c54:	01055513          	srl	a0,a0,0x10
f8001c58:	ffea8a93          	add	s5,s5,-2
f8001c5c:	f80025b7          	lui	a1,0xf8002
f8001c60:	2dc58593          	add	a1,a1,732 # f80022dc <.Lanon.417d308534643a9a09c6c2eafbd8258e.316>
f8001c64:	00a58533          	add	a0,a1,a0
f8001c68:	00154583          	lbu	a1,1(a0)
f8001c6c:	00054503          	lbu	a0,0(a0)
f8001c70:	fa540613          	add	a2,s0,-91
f8001c74:	01560633          	add	a2,a2,s5
f8001c78:	00b600a3          	sb	a1,1(a2)
f8001c7c:	00a60023          	sb	a0,0(a2)
f8001c80:	000a0993          	mv	s3,s4
f8001c84:	00a00513          	li	a0,10
f8001c88:	ecaa60e3          	bltu	s4,a0,f8001b48 <_ZN4core3fmt3num3imp7fmt_u3217hcbd12d4652c9c514E+0x68>
f8001c8c:	00199993          	sll	s3,s3,0x1
f8001c90:	ffea8a93          	add	s5,s5,-2
f8001c94:	f8002537          	lui	a0,0xf8002
f8001c98:	2dc50513          	add	a0,a0,732 # f80022dc <.Lanon.417d308534643a9a09c6c2eafbd8258e.316>
f8001c9c:	01350533          	add	a0,a0,s3
f8001ca0:	00154583          	lbu	a1,1(a0)
f8001ca4:	00054503          	lbu	a0,0(a0)
f8001ca8:	fa540613          	add	a2,s0,-91
f8001cac:	01560633          	add	a2,a2,s5
f8001cb0:	00b600a3          	sb	a1,1(a2)
f8001cb4:	00a60023          	sb	a0,0(a2)
f8001cb8:	fa540713          	add	a4,s0,-91
f8001cbc:	01570733          	add	a4,a4,s5
f8001cc0:	02700513          	li	a0,39
f8001cc4:	415507b3          	sub	a5,a0,s5
f8001cc8:	00100613          	li	a2,1
f8001ccc:	00048513          	mv	a0,s1
f8001cd0:	00090593          	mv	a1,s2
f8001cd4:	00000693          	li	a3,0
f8001cd8:	fffff097          	auipc	ra,0xfffff
f8001cdc:	398080e7          	jalr	920(ra) # f8001070 <_ZN4core3fmt9Formatter12pad_integral17h70a270d80229ce9dE>
f8001ce0:	05c12083          	lw	ra,92(sp)
f8001ce4:	05812403          	lw	s0,88(sp)
f8001ce8:	05412483          	lw	s1,84(sp)
f8001cec:	05012903          	lw	s2,80(sp)
f8001cf0:	04c12983          	lw	s3,76(sp)
f8001cf4:	04812a03          	lw	s4,72(sp)
f8001cf8:	04412a83          	lw	s5,68(sp)
f8001cfc:	04012b03          	lw	s6,64(sp)
f8001d00:	03c12b83          	lw	s7,60(sp)
f8001d04:	03812c03          	lw	s8,56(sp)
f8001d08:	03412c83          	lw	s9,52(sp)
f8001d0c:	03012d03          	lw	s10,48(sp)
f8001d10:	02c12d83          	lw	s11,44(sp)
f8001d14:	06010113          	add	sp,sp,96
f8001d18:	00008067          	ret

f8001d1c <_ZN4core3fmt3num3imp52_$LT$impl$u20$core..fmt..Display$u20$for$u20$u32$GT$3fmt17h824d6ece991163ffE>:
f8001d1c:	ff010113          	add	sp,sp,-16
f8001d20:	00112623          	sw	ra,12(sp)
f8001d24:	00812423          	sw	s0,8(sp)
f8001d28:	01010413          	add	s0,sp,16
f8001d2c:	00052503          	lw	a0,0(a0)
f8001d30:	00058613          	mv	a2,a1
f8001d34:	00100593          	li	a1,1
f8001d38:	00c12083          	lw	ra,12(sp)
f8001d3c:	00812403          	lw	s0,8(sp)
f8001d40:	01010113          	add	sp,sp,16
f8001d44:	00000317          	auipc	t1,0x0
f8001d48:	d9c30067          	jr	-612(t1) # f8001ae0 <_ZN4core3fmt3num3imp7fmt_u3217hcbd12d4652c9c514E>

f8001d4c <_ZN42_$LT$$RF$T$u20$as$u20$core..fmt..Debug$GT$3fmt17hef4461665dbca0eaE>:
f8001d4c:	ff010113          	add	sp,sp,-16
f8001d50:	00112623          	sw	ra,12(sp)
f8001d54:	00812423          	sw	s0,8(sp)
f8001d58:	01010413          	add	s0,sp,16
f8001d5c:	00452603          	lw	a2,4(a0)
f8001d60:	00052503          	lw	a0,0(a0)
f8001d64:	00c62303          	lw	t1,12(a2)
f8001d68:	00c12083          	lw	ra,12(sp)
f8001d6c:	00812403          	lw	s0,8(sp)
f8001d70:	01010113          	add	sp,sp,16
f8001d74:	00030067          	jr	t1

f8001d78 <_ZN44_$LT$$RF$T$u20$as$u20$core..fmt..Display$GT$3fmt17h3a9d78b35f284d42E>:
f8001d78:	ff010113          	add	sp,sp,-16
f8001d7c:	00112623          	sw	ra,12(sp)
f8001d80:	00812423          	sw	s0,8(sp)
f8001d84:	01010413          	add	s0,sp,16
f8001d88:	00052683          	lw	a3,0(a0)
f8001d8c:	00452603          	lw	a2,4(a0)
f8001d90:	00058513          	mv	a0,a1
f8001d94:	00068593          	mv	a1,a3
f8001d98:	00c12083          	lw	ra,12(sp)
f8001d9c:	00812403          	lw	s0,8(sp)
f8001da0:	01010113          	add	sp,sp,16
f8001da4:	fffff317          	auipc	t1,0xfffff
f8001da8:	6d030067          	jr	1744(t1) # f8001474 <_ZN4core3fmt9Formatter3pad17hdb3cd97c63ef5752E>

f8001dac <__mulsi3>:
f8001dac:	ff010113          	add	sp,sp,-16
f8001db0:	00112623          	sw	ra,12(sp)
f8001db4:	00812423          	sw	s0,8(sp)
f8001db8:	01010413          	add	s0,sp,16
f8001dbc:	00000613          	li	a2,0
f8001dc0:	02050063          	beqz	a0,f8001de0 <__mulsi3+0x34>
f8001dc4:	01f51693          	sll	a3,a0,0x1f
f8001dc8:	41f6d693          	sra	a3,a3,0x1f
f8001dcc:	00b6f6b3          	and	a3,a3,a1
f8001dd0:	00c68633          	add	a2,a3,a2
f8001dd4:	00155513          	srl	a0,a0,0x1
f8001dd8:	00159593          	sll	a1,a1,0x1
f8001ddc:	fe0514e3          	bnez	a0,f8001dc4 <__mulsi3+0x18>
f8001de0:	00060513          	mv	a0,a2
f8001de4:	00c12083          	lw	ra,12(sp)
f8001de8:	00812403          	lw	s0,8(sp)
f8001dec:	01010113          	add	sp,sp,16
f8001df0:	00008067          	ret

f8001df4 <__udivsi3>:
f8001df4:	ff010113          	add	sp,sp,-16
f8001df8:	00112623          	sw	ra,12(sp)
f8001dfc:	00812423          	sw	s0,8(sp)
f8001e00:	01010413          	add	s0,sp,16
f8001e04:	00c12083          	lw	ra,12(sp)
f8001e08:	00812403          	lw	s0,8(sp)
f8001e0c:	01010113          	add	sp,sp,16
f8001e10:	00000317          	auipc	t1,0x0
f8001e14:	00830067          	jr	8(t1) # f8001e18 <_ZN17compiler_builtins3int19specialized_div_rem11u32_div_rem17h614059021152f942E>

f8001e18 <_ZN17compiler_builtins3int19specialized_div_rem11u32_div_rem17h614059021152f942E>:
f8001e18:	ff010113          	add	sp,sp,-16
f8001e1c:	00112623          	sw	ra,12(sp)
f8001e20:	00812423          	sw	s0,8(sp)
f8001e24:	01010413          	add	s0,sp,16
f8001e28:	00050613          	mv	a2,a0
f8001e2c:	00b57663          	bgeu	a0,a1,f8001e38 <_ZN17compiler_builtins3int19specialized_div_rem11u32_div_rem17h614059021152f942E+0x20>
f8001e30:	00000513          	li	a0,0
f8001e34:	1140006f          	j	f8001f48 <_ZN17compiler_builtins3int19specialized_div_rem11u32_div_rem17h614059021152f942E+0x130>
f8001e38:	01065713          	srl	a4,a2,0x10
f8001e3c:	00b73533          	sltu	a0,a4,a1
f8001e40:	00154693          	xor	a3,a0,1
f8001e44:	00060513          	mv	a0,a2
f8001e48:	00b76463          	bltu	a4,a1,f8001e50 <_ZN17compiler_builtins3int19specialized_div_rem11u32_div_rem17h614059021152f942E+0x38>
f8001e4c:	00070513          	mv	a0,a4
f8001e50:	00469693          	sll	a3,a3,0x4
f8001e54:	00855793          	srl	a5,a0,0x8
f8001e58:	00b7b733          	sltu	a4,a5,a1
f8001e5c:	00174713          	xor	a4,a4,1
f8001e60:	00b7e463          	bltu	a5,a1,f8001e68 <_ZN17compiler_builtins3int19specialized_div_rem11u32_div_rem17h614059021152f942E+0x50>
f8001e64:	00078513          	mv	a0,a5
f8001e68:	00371713          	sll	a4,a4,0x3
f8001e6c:	00d766b3          	or	a3,a4,a3
f8001e70:	00455793          	srl	a5,a0,0x4
f8001e74:	00b7b733          	sltu	a4,a5,a1
f8001e78:	00174713          	xor	a4,a4,1
f8001e7c:	00b7e463          	bltu	a5,a1,f8001e84 <_ZN17compiler_builtins3int19specialized_div_rem11u32_div_rem17h614059021152f942E+0x6c>
f8001e80:	00078513          	mv	a0,a5
f8001e84:	00271713          	sll	a4,a4,0x2
f8001e88:	00e6e6b3          	or	a3,a3,a4
f8001e8c:	00255793          	srl	a5,a0,0x2
f8001e90:	00b7b733          	sltu	a4,a5,a1
f8001e94:	00174713          	xor	a4,a4,1
f8001e98:	00b7e463          	bltu	a5,a1,f8001ea0 <_ZN17compiler_builtins3int19specialized_div_rem11u32_div_rem17h614059021152f942E+0x88>
f8001e9c:	00078513          	mv	a0,a5
f8001ea0:	00171713          	sll	a4,a4,0x1
f8001ea4:	00155513          	srl	a0,a0,0x1
f8001ea8:	00b53533          	sltu	a0,a0,a1
f8001eac:	00154513          	xor	a0,a0,1
f8001eb0:	00a76533          	or	a0,a4,a0
f8001eb4:	00a6e6b3          	or	a3,a3,a0
f8001eb8:	00d59733          	sll	a4,a1,a3
f8001ebc:	40e60633          	sub	a2,a2,a4
f8001ec0:	00100513          	li	a0,1
f8001ec4:	00d51533          	sll	a0,a0,a3
f8001ec8:	08b66063          	bltu	a2,a1,f8001f48 <_ZN17compiler_builtins3int19specialized_div_rem11u32_div_rem17h614059021152f942E+0x130>
f8001ecc:	00074663          	bltz	a4,f8001ed8 <_ZN17compiler_builtins3int19specialized_div_rem11u32_div_rem17h614059021152f942E+0xc0>
f8001ed0:	00050793          	mv	a5,a0
f8001ed4:	0380006f          	j	f8001f0c <_ZN17compiler_builtins3int19specialized_div_rem11u32_div_rem17h614059021152f942E+0xf4>
f8001ed8:	00175713          	srl	a4,a4,0x1
f8001edc:	fff68693          	add	a3,a3,-1
f8001ee0:	00100793          	li	a5,1
f8001ee4:	00d797b3          	sll	a5,a5,a3
f8001ee8:	40e60833          	sub	a6,a2,a4
f8001eec:	00082893          	slti	a7,a6,0
f8001ef0:	fff88893          	add	a7,a7,-1 # 10ffff <.Lline_table_start1+0x10f50f>
f8001ef4:	00f8f8b3          	and	a7,a7,a5
f8001ef8:	00085463          	bgez	a6,f8001f00 <_ZN17compiler_builtins3int19specialized_div_rem11u32_div_rem17h614059021152f942E+0xe8>
f8001efc:	00060813          	mv	a6,a2
f8001f00:	00a8e533          	or	a0,a7,a0
f8001f04:	00080613          	mv	a2,a6
f8001f08:	04b86063          	bltu	a6,a1,f8001f48 <_ZN17compiler_builtins3int19specialized_div_rem11u32_div_rem17h614059021152f942E+0x130>
f8001f0c:	fff78793          	add	a5,a5,-1 # 10ffff <.Lline_table_start1+0x10f50f>
f8001f10:	02068663          	beqz	a3,f8001f3c <_ZN17compiler_builtins3int19specialized_div_rem11u32_div_rem17h614059021152f942E+0x124>
f8001f14:	00068593          	mv	a1,a3
f8001f18:	00c0006f          	j	f8001f24 <_ZN17compiler_builtins3int19specialized_div_rem11u32_div_rem17h614059021152f942E+0x10c>
f8001f1c:	fff58593          	add	a1,a1,-1
f8001f20:	00058e63          	beqz	a1,f8001f3c <_ZN17compiler_builtins3int19specialized_div_rem11u32_div_rem17h614059021152f942E+0x124>
f8001f24:	00161613          	sll	a2,a2,0x1
f8001f28:	40e60833          	sub	a6,a2,a4
f8001f2c:	00180813          	add	a6,a6,1
f8001f30:	fe0846e3          	bltz	a6,f8001f1c <_ZN17compiler_builtins3int19specialized_div_rem11u32_div_rem17h614059021152f942E+0x104>
f8001f34:	00080613          	mv	a2,a6
f8001f38:	fe5ff06f          	j	f8001f1c <_ZN17compiler_builtins3int19specialized_div_rem11u32_div_rem17h614059021152f942E+0x104>
f8001f3c:	00f677b3          	and	a5,a2,a5
f8001f40:	00a7e533          	or	a0,a5,a0
f8001f44:	00d65633          	srl	a2,a2,a3
f8001f48:	00060593          	mv	a1,a2
f8001f4c:	00c12083          	lw	ra,12(sp)
f8001f50:	00812403          	lw	s0,8(sp)
f8001f54:	01010113          	add	sp,sp,16
f8001f58:	00008067          	ret

f8001f5c <_ZN17compiler_builtins3mem6memset17ha04376acf47c848eE>:
f8001f5c:	fe010113          	add	sp,sp,-32
f8001f60:	00112e23          	sw	ra,28(sp)
f8001f64:	00812c23          	sw	s0,24(sp)
f8001f68:	00912a23          	sw	s1,20(sp)
f8001f6c:	01212823          	sw	s2,16(sp)
f8001f70:	01312623          	sw	s3,12(sp)
f8001f74:	01412423          	sw	s4,8(sp)
f8001f78:	02010413          	add	s0,sp,32
f8001f7c:	01000693          	li	a3,16
f8001f80:	00058493          	mv	s1,a1
f8001f84:	06d66463          	bltu	a2,a3,f8001fec <_ZN17compiler_builtins3mem6memset17ha04376acf47c848eE+0x90>
f8001f88:	40a005b3          	neg	a1,a0
f8001f8c:	0035f593          	and	a1,a1,3
f8001f90:	00b50933          	add	s2,a0,a1
f8001f94:	00058a63          	beqz	a1,f8001fa8 <_ZN17compiler_builtins3mem6memset17ha04376acf47c848eE+0x4c>
f8001f98:	00050693          	mv	a3,a0
f8001f9c:	00968023          	sb	s1,0(a3)
f8001fa0:	00168693          	add	a3,a3,1
f8001fa4:	ff26ece3          	bltu	a3,s2,f8001f9c <_ZN17compiler_builtins3mem6memset17ha04376acf47c848eE+0x40>
f8001fa8:	00050993          	mv	s3,a0
f8001fac:	40b60a33          	sub	s4,a2,a1
f8001fb0:	0ff4f513          	zext.b	a0,s1
f8001fb4:	010105b7          	lui	a1,0x1010
f8001fb8:	10158593          	add	a1,a1,257 # 1010101 <.Lline_table_start1+0x100f611>
f8001fbc:	00000097          	auipc	ra,0x0
f8001fc0:	df0080e7          	jalr	-528(ra) # f8001dac <__mulsi3>
f8001fc4:	ffca7613          	and	a2,s4,-4
f8001fc8:	00c905b3          	add	a1,s2,a2
f8001fcc:	00c05863          	blez	a2,f8001fdc <_ZN17compiler_builtins3mem6memset17ha04376acf47c848eE+0x80>
f8001fd0:	00a92023          	sw	a0,0(s2)
f8001fd4:	00490913          	add	s2,s2,4
f8001fd8:	feb96ce3          	bltu	s2,a1,f8001fd0 <_ZN17compiler_builtins3mem6memset17ha04376acf47c848eE+0x74>
f8001fdc:	003a7613          	and	a2,s4,3
f8001fe0:	00098513          	mv	a0,s3
f8001fe4:	00061863          	bnez	a2,f8001ff4 <_ZN17compiler_builtins3mem6memset17ha04376acf47c848eE+0x98>
f8001fe8:	01c0006f          	j	f8002004 <_ZN17compiler_builtins3mem6memset17ha04376acf47c848eE+0xa8>
f8001fec:	00050593          	mv	a1,a0
f8001ff0:	00060a63          	beqz	a2,f8002004 <_ZN17compiler_builtins3mem6memset17ha04376acf47c848eE+0xa8>
f8001ff4:	00c58633          	add	a2,a1,a2
f8001ff8:	00958023          	sb	s1,0(a1)
f8001ffc:	00158593          	add	a1,a1,1
f8002000:	fec5ece3          	bltu	a1,a2,f8001ff8 <_ZN17compiler_builtins3mem6memset17ha04376acf47c848eE+0x9c>
f8002004:	01c12083          	lw	ra,28(sp)
f8002008:	01812403          	lw	s0,24(sp)
f800200c:	01412483          	lw	s1,20(sp)
f8002010:	01012903          	lw	s2,16(sp)
f8002014:	00c12983          	lw	s3,12(sp)
f8002018:	00812a03          	lw	s4,8(sp)
f800201c:	02010113          	add	sp,sp,32
f8002020:	00008067          	ret

f8002024 <memset>:
f8002024:	ff010113          	add	sp,sp,-16
f8002028:	00112623          	sw	ra,12(sp)
f800202c:	00812423          	sw	s0,8(sp)
f8002030:	01010413          	add	s0,sp,16
f8002034:	00c12083          	lw	ra,12(sp)
f8002038:	00812403          	lw	s0,8(sp)
f800203c:	01010113          	add	sp,sp,16
f8002040:	00000317          	auipc	t1,0x0
f8002044:	f1c30067          	jr	-228(t1) # f8001f5c <_ZN17compiler_builtins3mem6memset17ha04376acf47c848eE>

f8002048 <.Lanon.fad58de7366495db4650cfefac2fcd61.0>:
f8002048:	2928                	.2byte	0x2928

f800204a <.Lanon.fad58de7366495db4650cfefac2fcd61.1>:
f800204a:	6573552f          	.4byte	0x6573552f
f800204e:	7372                	.2byte	0x7372
f8002050:	61696c2f          	.4byte	0x61696c2f
f8002054:	2f6d                	.2byte	0x2f6d
f8002056:	7672                	.2byte	0x7672
f8002058:	6d66                	.2byte	0x6d66
f800205a:	2f32                	.2byte	0x2f32
f800205c:	2f6b6473          	.4byte	0x2f6b6473
f8002060:	7572                	.2byte	0x7572
f8002062:	722f7473          	.4byte	0x722f7473
f8002066:	6676                	.2byte	0x6676
f8002068:	2f6d                	.2byte	0x2f6d
f800206a:	2f637273          	.4byte	0x2f637273
f800206e:	6d6d6f63          	bltu	s10,s6,f800274c <_etext+0x340>
f8002072:	6e61                	.2byte	0x6e61
f8002074:	5f64                	.2byte	0x5f64
f8002076:	696c                	.2byte	0x696c
f8002078:	722e7473          	.4byte	0x722e7473
f800207c:	00000073          	ecall

f8002080 <.Lanon.fad58de7366495db4650cfefac2fcd61.2>:
f8002080:	204a                	.2byte	0x204a
f8002082:	f800                	.2byte	0xf800
f8002084:	00000033          	add	zero,zero,zero
f8002088:	003a                	.2byte	0x3a
f800208a:	0000                	.2byte	0x0
f800208c:	0014                	.2byte	0x14
	...

f8002090 <.Lanon.fad58de7366495db4650cfefac2fcd61.3>:
f8002090:	0000                	.2byte	0x0
f8002092:	0000                	.2byte	0x0
f8002094:	0000                	.2byte	0x0
f8002096:	bf00                	.2byte	0xbf00
f8002098:	0000                	.2byte	0x0
f800209a:	0000                	.2byte	0x0
f800209c:	0000                	.2byte	0x0
f800209e:	bf00                	.2byte	0xbf00
f80020a0:	0000                	.2byte	0x0
f80020a2:	3f00                	.2byte	0x3f00
f80020a4:	0000                	.2byte	0x0
f80020a6:	0000                	.2byte	0x0
f80020a8:	0000                	.2byte	0x0
f80020aa:	3f00                	.2byte	0x3f00
f80020ac:	0000                	.2byte	0x0
f80020ae:	3f00                	.2byte	0x3f00
f80020b0:	0000                	.2byte	0x0
	...

f80020b4 <.Lanon.fad58de7366495db4650cfefac2fcd61.4>:
f80020b4:	0204                	.2byte	0x204
f80020b6:	0101                	.2byte	0x101
f80020b8:	                	.2byte	0x410

f80020b9 <.Lanon.fad58de7366495db4650cfefac2fcd61.5>:
f80020b9:	0204                	.2byte	0x204
f80020bb:	0310                	.2byte	0x310
f80020bd:	0001                	.2byte	0x1
	...

f80020c0 <.Lanon.fad58de7366495db4650cfefac2fcd61.6>:
f80020c0:	0110                	.2byte	0x110
f80020c2:	0212                	.2byte	0x212
f80020c4:	0000                	.2byte	0x0
f80020c6:	0000                	.2byte	0x0
f80020c8:	000c                	.2byte	0xc
	...

f80020cc <.Lanon.fad58de7366495db4650cfefac2fcd61.7>:
f80020cc:	20c0                	.2byte	0x20c0
f80020ce:	f800                	.2byte	0xf800
f80020d0:	0001                	.2byte	0x1
	...

f80020d4 <.Lanon.fad58de7366495db4650cfefac2fcd61.8>:
f80020d4:	0010                	.2byte	0x10
f80020d6:	0304                	.2byte	0x304
	...

f80020e0 <.Lanon.fad58de7366495db4650cfefac2fcd61.9>:
f80020e0:	0000                	.2byte	0x0
f80020e2:	0000                	.2byte	0x0
f80020e4:	20d4                	.2byte	0x20d4
f80020e6:	f800                	.2byte	0xf800
f80020e8:	0001                	.2byte	0x1
	...
f80020f6:	          	lh	tp,16(zero) # 10 <_bss+0x10>

f80020f8 <.Lanon.fad58de7366495db4650cfefac2fcd61.12>:
f80020f8:	0100                	.2byte	0x100

f80020fa <.Lanon.fad58de7366495db4650cfefac2fcd61.13>:
	...

f80020fc <.Lanon.fad58de7366495db4650cfefac2fcd61.14>:
f80020fc:	20ec                	.2byte	0x20ec
f80020fe:	f800                	.2byte	0xf800
f8002100:	20f0                	.2byte	0x20f0
f8002102:	f800                	.2byte	0xf800
f8002104:	20f8                	.2byte	0x20f8
f8002106:	f800                	.2byte	0xf800
f8002108:	20fa                	.2byte	0x20fa
f800210a:	f800                	.2byte	0xf800
f800210c:	0101                	.2byte	0x101
f800210e:	0102                	.2byte	0x102

f8002110 <.Lanon.fad58de7366495db4650cfefac2fcd61.15>:
f8002110:	20cc                	.2byte	0x20cc
f8002112:	f800                	.2byte	0xf800
f8002114:	20e0                	.2byte	0x20e0
f8002116:	f800                	.2byte	0xf800
f8002118:	20fc                	.2byte	0x20fc
f800211a:	f800                	.2byte	0xf800

f800211c <.Lanon.fad58de7366495db4650cfefac2fcd61.16>:
f800211c:	6c6c6163          	bltu	s8,t1,f80027de <_etext+0x3d2>
f8002120:	6465                	.2byte	0x6465
f8002122:	6020                	.2byte	0x6020
f8002124:	6552                	.2byte	0x6552
f8002126:	746c7573          	.4byte	0x746c7573
f800212a:	3a3a                	.2byte	0x3a3a
f800212c:	6e75                	.2byte	0x6e75
f800212e:	70617277          	.4byte	0x70617277
f8002132:	2928                	.2byte	0x2928
f8002134:	2060                	.2byte	0x2060
f8002136:	61206e6f          	jal	t3,f8008748 <_etext+0x633c>
f800213a:	206e                	.2byte	0x206e
f800213c:	4560                	.2byte	0x4560
f800213e:	7272                	.2byte	0x7272
f8002140:	2060                	.2byte	0x2060
f8002142:	6176                	.2byte	0x6176
f8002144:	756c                	.2byte	0x756c
f8002146:	0065                	.2byte	0x65

f8002148 <.Lanon.fad58de7366495db4650cfefac2fcd61.17>:
f8002148:	00b4                	.2byte	0xb4
f800214a:	f800                	.2byte	0xf800
f800214c:	0000                	.2byte	0x0
f800214e:	0000                	.2byte	0x0
f8002150:	0001                	.2byte	0x1
f8002152:	0000                	.2byte	0x0
f8002154:	0098                	.2byte	0x98
f8002156:	f800                	.2byte	0xf800

f8002158 <.Lanon.fad58de7366495db4650cfefac2fcd61.18>:
f8002158:	2f637273          	.4byte	0x2f637273
f800215c:	616d                	.2byte	0x616d
f800215e:	6e69                	.2byte	0x6e69
f8002160:	722e                	.2byte	0x722e
f8002162:	          	.4byte	0x21580073

f8002164 <.Lanon.fad58de7366495db4650cfefac2fcd61.19>:
f8002164:	2158                	.2byte	0x2158
f8002166:	f800                	.2byte	0xf800
f8002168:	0000000b          	.4byte	0xb
f800216c:	0068                	.2byte	0x68
f800216e:	0000                	.2byte	0x0
f8002170:	007f 0000   	.byte	0x7f, 0x00, 0x00, 0x00, 0x14, 0x05, 0x00, 0xf8, 0x00, 0x00
f8002178:	 

f8002174 <.Lanon.63019b6cee9d0381df4292a7156adc92.0>:
f8002174:	0514                	.2byte	0x514
f8002176:	f800                	.2byte	0xf800
f8002178:	0000                	.2byte	0x0
f800217a:	0000                	.2byte	0x0
f800217c:	0001                	.2byte	0x1
f800217e:	0000                	.2byte	0x0
f8002180:	0b58                	.2byte	0xb58
f8002182:	f800                	.2byte	0xf800
f8002184:	0414                	.2byte	0x414
f8002186:	f800                	.2byte	0xf800
f8002188:	04f8                	.2byte	0x4f8
f800218a:	f800                	.2byte	0xf800

f800218c <.Lanon.63019b6cee9d0381df4292a7156adc92.1>:
f800218c:	6573552f          	.4byte	0x6573552f
f8002190:	7372                	.2byte	0x7372
f8002192:	61696c2f          	.4byte	0x61696c2f
f8002196:	2f6d                	.2byte	0x2f6d
f8002198:	7672                	.2byte	0x7672
f800219a:	6d66                	.2byte	0x6d66
f800219c:	2f32                	.2byte	0x2f32
f800219e:	2f6b6473          	.4byte	0x2f6b6473
f80021a2:	7572                	.2byte	0x7572
f80021a4:	722f7473          	.4byte	0x722f7473
f80021a8:	6676                	.2byte	0x6676
f80021aa:	2f6d                	.2byte	0x2f6d
f80021ac:	2f637273          	.4byte	0x2f637273
f80021b0:	2f757067          	.4byte	0x2f757067
f80021b4:	6d6d6f63          	bltu	s10,s6,f8002892 <_etext+0x486>
f80021b8:	6e61                	.2byte	0x6e61
f80021ba:	2e64                	.2byte	0x2e64
f80021bc:	7372                	.2byte	0x7372
	...

f80021c0 <.Lanon.63019b6cee9d0381df4292a7156adc92.2>:
f80021c0:	218c                	.2byte	0x218c
f80021c2:	f800                	.2byte	0xf800
f80021c4:	0032                	.2byte	0x32
f80021c6:	0000                	.2byte	0x0
f80021c8:	00000163          	beqz	zero,f80021ca <.Lanon.63019b6cee9d0381df4292a7156adc92.2+0xa>
f80021cc:	00000013          	nop

f80021d0 <.Lanon.63019b6cee9d0381df4292a7156adc92.3>:
f80021d0:	6e69                	.2byte	0x6e69
f80021d2:	6574                	.2byte	0x6574
f80021d4:	6e72                	.2byte	0x6e72
f80021d6:	6c61                	.2byte	0x6c61
f80021d8:	6520                	.2byte	0x6520
f80021da:	7272                	.2byte	0x7272
f80021dc:	203a726f          	jal	tp,f80a9bde <_etext+0xa77d2>
f80021e0:	6e65                	.2byte	0x6e65
f80021e2:	6574                	.2byte	0x6574
f80021e4:	6572                	.2byte	0x6572
f80021e6:	2064                	.2byte	0x2064
f80021e8:	6e75                	.2byte	0x6e75
f80021ea:	6572                	.2byte	0x6572
f80021ec:	6361                	.2byte	0x6361
f80021ee:	6168                	.2byte	0x6168
f80021f0:	6c62                	.2byte	0x6c62
f80021f2:	2065                	.2byte	0x2065
f80021f4:	65646f63          	bltu	s0,s6,f8002852 <_etext+0x446>

f80021f8 <.Lanon.63019b6cee9d0381df4292a7156adc92.4>:
f80021f8:	6573552f          	.4byte	0x6573552f
f80021fc:	7372                	.2byte	0x7372
f80021fe:	61696c2f          	.4byte	0x61696c2f
f8002202:	2f6d                	.2byte	0x2f6d
f8002204:	7672                	.2byte	0x7672
f8002206:	6d66                	.2byte	0x6d66
f8002208:	2f32                	.2byte	0x2f32
f800220a:	2f6b6473          	.4byte	0x2f6b6473
f800220e:	7572                	.2byte	0x7572
f8002210:	722f7473          	.4byte	0x722f7473
f8002214:	6676                	.2byte	0x6676
f8002216:	2f6d                	.2byte	0x2f6d
f8002218:	2f637273          	.4byte	0x2f637273
f800221c:	6168                	.2byte	0x6168
f800221e:	7472                	.2byte	0x7472
f8002220:	722e                	.2byte	0x722e
f8002222:	          	.4byte	0x21f80073

f8002224 <.Lanon.63019b6cee9d0381df4292a7156adc92.5>:
f8002224:	21f8                	.2byte	0x21f8
f8002226:	f800                	.2byte	0xf800
f8002228:	0000002b          	.4byte	0x2b
f800222c:	0015                	.2byte	0x15
f800222e:	0000                	.2byte	0x0
f8002230:	0012                	.2byte	0x12
	...

f8002234 <.Lanon.63019b6cee9d0381df4292a7156adc92.6>:
f8002234:	6573552f          	.4byte	0x6573552f
f8002238:	7372                	.2byte	0x7372
f800223a:	61696c2f          	.4byte	0x61696c2f
f800223e:	2f6d                	.2byte	0x2f6d
f8002240:	7672                	.2byte	0x7672
f8002242:	6d66                	.2byte	0x6d66
f8002244:	2f32                	.2byte	0x2f32
f8002246:	2f6b6473          	.4byte	0x2f6b6473
f800224a:	7572                	.2byte	0x7572
f800224c:	722f7473          	.4byte	0x722f7473
f8002250:	6676                	.2byte	0x6676
f8002252:	2f6d                	.2byte	0x2f6d
f8002254:	2f637273          	.4byte	0x2f637273
f8002258:	6d6d6f63          	bltu	s10,s6,f8002936 <_etext+0x52a>
f800225c:	6e61                	.2byte	0x6e61
f800225e:	5f64                	.2byte	0x5f64
f8002260:	696c                	.2byte	0x696c
f8002262:	722e7473          	.4byte	0x722e7473
f8002266:	          	.4byte	0x22340073

f8002268 <.Lanon.63019b6cee9d0381df4292a7156adc92.7>:
f8002268:	2234                	.2byte	0x2234
f800226a:	f800                	.2byte	0xf800
f800226c:	00000033          	add	zero,zero,zero
f8002270:	002c                	.2byte	0x2c
f8002272:	0000                	.2byte	0x0
f8002274:	00000013          	nop

f8002278 <.Lanon.63019b6cee9d0381df4292a7156adc92.10>:
f8002278:	6168                	.2byte	0x6168
f800227a:	7472                	.2byte	0x7472
f800227c:	                	.2byte	0x2020

f800227d <.Lanon.63019b6cee9d0381df4292a7156adc92.11>:
f800227d:	7020                	.2byte	0x7020
f800227f:	6e61                	.2byte	0x6e61
f8002281:	6369                	.2byte	0x6369
f8002283:	0a21                	.2byte	0xa21
f8002285:	2040                	.2byte	0x2040

f8002287 <.Lanon.63019b6cee9d0381df4292a7156adc92.12>:
f8002287:	                	.2byte	0x783a

f8002288 <.Lanon.63019b6cee9d0381df4292a7156adc92.13>:
f8002288:	2278                	.2byte	0x2278
f800228a:	f800                	.2byte	0xf800
f800228c:	0005                	.2byte	0x5
f800228e:	0000                	.2byte	0x0
f8002290:	227d                	.2byte	0x227d
f8002292:	f800                	.2byte	0xf800
f8002294:	000a                	.2byte	0xa
f8002296:	0000                	.2byte	0x0
f8002298:	f8002287          	.4byte	0xf8002287
f800229c:	0001                	.2byte	0x1
f800229e:	0000                	.2byte	0x0
f80022a0:	f8002287          	.4byte	0xf8002287
f80022a4:	0001                	.2byte	0x1
f80022a6:	0000                	.2byte	0x0
f80022a8:	6172                	.2byte	0x6172
f80022aa:	676e                	.2byte	0x676e
f80022ac:	2065                	.2byte	0x2065
f80022ae:	6e65                	.2byte	0x6e65
f80022b0:	2064                	.2byte	0x2064
f80022b2:	6e69                	.2byte	0x6e69
f80022b4:	6564                	.2byte	0x6564
f80022b6:	2078                	.2byte	0x2078

f80022b8 <.Lanon.417d308534643a9a09c6c2eafbd8258e.255>:
f80022b8:	0c94                	.2byte	0xc94
f80022ba:	f800                	.2byte	0xf800
f80022bc:	0000                	.2byte	0x0
f80022be:	0000                	.2byte	0x0
f80022c0:	0001                	.2byte	0x1
f80022c2:	0000                	.2byte	0x0
f80022c4:	0cb4                	.2byte	0xcb4
f80022c6:	f800                	.2byte	0xf800

f80022c8 <.Lanon.417d308534643a9a09c6c2eafbd8258e.282>:
f80022c8:	203a                	.2byte	0x203a
	...

f80022cc <.Lanon.417d308534643a9a09c6c2eafbd8258e.283>:
f80022cc:	0001                	.2byte	0x1
f80022ce:	0000                	.2byte	0x0
f80022d0:	0000                	.2byte	0x0
f80022d2:	0000                	.2byte	0x0
f80022d4:	22c8                	.2byte	0x22c8
f80022d6:	f800                	.2byte	0xf800
f80022d8:	0002                	.2byte	0x2
	...

f80022dc <.Lanon.417d308534643a9a09c6c2eafbd8258e.316>:
f80022dc:	3030                	.2byte	0x3030
f80022de:	3130                	.2byte	0x3130
f80022e0:	3230                	.2byte	0x3230
f80022e2:	3330                	.2byte	0x3330
f80022e4:	3430                	.2byte	0x3430
f80022e6:	3530                	.2byte	0x3530
f80022e8:	3630                	.2byte	0x3630
f80022ea:	3730                	.2byte	0x3730
f80022ec:	3830                	.2byte	0x3830
f80022ee:	3930                	.2byte	0x3930
f80022f0:	3031                	.2byte	0x3031
f80022f2:	3131                	.2byte	0x3131
f80022f4:	3231                	.2byte	0x3231
f80022f6:	3331                	.2byte	0x3331
f80022f8:	3431                	.2byte	0x3431
f80022fa:	3531                	.2byte	0x3531
f80022fc:	3631                	.2byte	0x3631
f80022fe:	3731                	.2byte	0x3731
f8002300:	3831                	.2byte	0x3831
f8002302:	3931                	.2byte	0x3931
f8002304:	3032                	.2byte	0x3032
f8002306:	3132                	.2byte	0x3132
f8002308:	3232                	.2byte	0x3232
f800230a:	3332                	.2byte	0x3332
f800230c:	3432                	.2byte	0x3432
f800230e:	3532                	.2byte	0x3532
f8002310:	3632                	.2byte	0x3632
f8002312:	3732                	.2byte	0x3732
f8002314:	3832                	.2byte	0x3832
f8002316:	3932                	.2byte	0x3932
f8002318:	31333033          	.4byte	0x31333033
f800231c:	33333233          	.4byte	0x33333233
f8002320:	35333433          	.4byte	0x35333433
f8002324:	37333633          	.4byte	0x37333633
f8002328:	39333833          	.4byte	0x39333833
f800232c:	3034                	.2byte	0x3034
f800232e:	3134                	.2byte	0x3134
f8002330:	3234                	.2byte	0x3234
f8002332:	3334                	.2byte	0x3334
f8002334:	3434                	.2byte	0x3434
f8002336:	3534                	.2byte	0x3534
f8002338:	3634                	.2byte	0x3634
f800233a:	3734                	.2byte	0x3734
f800233c:	3834                	.2byte	0x3834
f800233e:	3934                	.2byte	0x3934
f8002340:	3035                	.2byte	0x3035
f8002342:	3135                	.2byte	0x3135
f8002344:	3235                	.2byte	0x3235
f8002346:	3335                	.2byte	0x3335
f8002348:	3435                	.2byte	0x3435
f800234a:	3535                	.2byte	0x3535
f800234c:	3635                	.2byte	0x3635
f800234e:	3735                	.2byte	0x3735
f8002350:	3835                	.2byte	0x3835
f8002352:	3935                	.2byte	0x3935
f8002354:	3036                	.2byte	0x3036
f8002356:	3136                	.2byte	0x3136
f8002358:	3236                	.2byte	0x3236
f800235a:	3336                	.2byte	0x3336
f800235c:	3436                	.2byte	0x3436
f800235e:	3536                	.2byte	0x3536
f8002360:	3636                	.2byte	0x3636
f8002362:	3736                	.2byte	0x3736
f8002364:	3836                	.2byte	0x3836
f8002366:	3936                	.2byte	0x3936
f8002368:	31373037          	lui	zero,0x31373
f800236c:	33373237          	lui	tp,0x33373
f8002370:	35373437          	lui	s0,0x35373
f8002374:	37373637          	lui	a2,0x37373
f8002378:	39373837          	lui	a6,0x39373
f800237c:	3038                	.2byte	0x3038
f800237e:	3138                	.2byte	0x3138
f8002380:	3238                	.2byte	0x3238
f8002382:	3338                	.2byte	0x3338
f8002384:	3438                	.2byte	0x3438
f8002386:	3538                	.2byte	0x3538
f8002388:	3638                	.2byte	0x3638
f800238a:	3738                	.2byte	0x3738
f800238c:	3838                	.2byte	0x3838
f800238e:	3938                	.2byte	0x3938
f8002390:	3039                	.2byte	0x3039
f8002392:	3139                	.2byte	0x3139
f8002394:	3239                	.2byte	0x3239
f8002396:	3339                	.2byte	0x3339
f8002398:	3439                	.2byte	0x3439
f800239a:	3539                	.2byte	0x3539
f800239c:	3639                	.2byte	0x3639
f800239e:	3739                	.2byte	0x3739
f80023a0:	3839                	.2byte	0x3839
f80023a2:	3939                	.2byte	0x3939

f80023a4 <.Lanon.417d308534643a9a09c6c2eafbd8258e.336>:
f80023a4:	6f20                	.2byte	0x6f20
f80023a6:	7475                	.2byte	0x7475
f80023a8:	6f20                	.2byte	0x6f20
f80023aa:	2066                	.2byte	0x2066
f80023ac:	6172                	.2byte	0x6172
f80023ae:	676e                	.2byte	0x676e
f80023b0:	2065                	.2byte	0x2065
f80023b2:	6f66                	.2byte	0x6f66
f80023b4:	2072                	.2byte	0x2072
f80023b6:	63696c73          	.4byte	0x63696c73
f80023ba:	2065                	.2byte	0x2065
f80023bc:	6c20666f          	jal	a2,f8008a7e <_etext+0x6672>
f80023c0:	6e65                	.2byte	0x6e65
f80023c2:	20687467          	.4byte	0x20687467
	...

f80023c8 <.Lanon.417d308534643a9a09c6c2eafbd8258e.339>:
f80023c8:	22a8                	.2byte	0x22a8
f80023ca:	f800                	.2byte	0xf800
f80023cc:	0010                	.2byte	0x10
f80023ce:	0000                	.2byte	0x0
f80023d0:	23a4                	.2byte	0x23a4
f80023d2:	f800                	.2byte	0xf800
f80023d4:	0022                	.2byte	0x22
	...

f80023d8 <.Lanon.417d308534643a9a09c6c2eafbd8258e.340>:
f80023d8:	63696c73          	.4byte	0x63696c73
f80023dc:	2065                	.2byte	0x2065
f80023de:	6e69                	.2byte	0x6e69
f80023e0:	6564                	.2byte	0x6564
f80023e2:	2078                	.2byte	0x2078
f80023e4:	72617473          	.4byte	0x72617473
f80023e8:	7374                	.2byte	0x7374
f80023ea:	6120                	.2byte	0x6120
f80023ec:	2074                	.2byte	0x2074

f80023ee <.Lanon.417d308534643a9a09c6c2eafbd8258e.341>:
f80023ee:	6220                	.2byte	0x6220
f80023f0:	7475                	.2byte	0x7475
f80023f2:	6520                	.2byte	0x6520
f80023f4:	646e                	.2byte	0x646e
f80023f6:	74612073          	.4byte	0x74612073
f80023fa:	0020                	.2byte	0x20

f80023fc <.Lanon.417d308534643a9a09c6c2eafbd8258e.342>:
f80023fc:	23d8                	.2byte	0x23d8
f80023fe:	f800                	.2byte	0xf800
f8002400:	0016                	.2byte	0x16
f8002402:	0000                	.2byte	0x0
f8002404:	23ee                	.2byte	0x23ee
f8002406:	f800                	.2byte	0xf800
f8002408:	000d                	.2byte	0xd
	...

Disassembly of section .eh_frame:

f800240c <.eh_frame>:
f800240c:	0010                	.2byte	0x10
f800240e:	0000                	.2byte	0x0
f8002410:	0000                	.2byte	0x0
f8002412:	0000                	.2byte	0x0
f8002414:	7a01                	.2byte	0x7a01
f8002416:	0052                	.2byte	0x52
f8002418:	7c01                	.2byte	0x7c01
f800241a:	0101                	.2byte	0x101
f800241c:	00020c1b          	.4byte	0x20c1b
f8002420:	0014                	.2byte	0x14
f8002422:	0000                	.2byte	0x0
f8002424:	0018                	.2byte	0x18
f8002426:	0000                	.2byte	0x0
f8002428:	dbd8                	.2byte	0xdbd8
f800242a:	ffff                	.2byte	0xffff
f800242c:	0098                	.2byte	0x98
f800242e:	0000                	.2byte	0x0
f8002430:	0700                	.2byte	0x700
f8002432:	0701                	.2byte	0x701
f8002434:	00000003          	lb	zero,0(zero) # 0 <_bss>
f8002438:	001c                	.2byte	0x1c
f800243a:	0000                	.2byte	0x0
f800243c:	0030                	.2byte	0x30
f800243e:	0000                	.2byte	0x0
f8002440:	e854                	.2byte	0xe854
f8002442:	ffff                	.2byte	0xffff
f8002444:	0020                	.2byte	0x20
f8002446:	0000                	.2byte	0x0
f8002448:	4400                	.2byte	0x4400
f800244a:	100e                	.2byte	0x100e
f800244c:	8148                	.2byte	0x8148
f800244e:	8801                	.2byte	0x8801
f8002450:	4402                	.2byte	0x4402
f8002452:	080c                	.2byte	0x80c
f8002454:	0000                	.2byte	0x0
f8002456:	0000                	.2byte	0x0
f8002458:	001c                	.2byte	0x1c
f800245a:	0000                	.2byte	0x0
f800245c:	0050                	.2byte	0x50
f800245e:	0000                	.2byte	0x0
f8002460:	e854                	.2byte	0xe854
f8002462:	ffff                	.2byte	0xffff
f8002464:	0050                	.2byte	0x50
f8002466:	0000                	.2byte	0x0
f8002468:	4400                	.2byte	0x4400
f800246a:	100e                	.2byte	0x100e
f800246c:	8148                	.2byte	0x8148
f800246e:	8801                	.2byte	0x8801
f8002470:	4402                	.2byte	0x4402
f8002472:	080c                	.2byte	0x80c
f8002474:	0000                	.2byte	0x0
f8002476:	0000                	.2byte	0x0
f8002478:	001c                	.2byte	0x1c
f800247a:	0000                	.2byte	0x0
f800247c:	0070                	.2byte	0x70
f800247e:	0000                	.2byte	0x0
f8002480:	e884                	.2byte	0xe884
f8002482:	ffff                	.2byte	0xffff
f8002484:	003c                	.2byte	0x3c
f8002486:	0000                	.2byte	0x0
f8002488:	4400                	.2byte	0x4400
f800248a:	200e                	.2byte	0x200e
f800248c:	8148                	.2byte	0x8148
f800248e:	8801                	.2byte	0x8801
f8002490:	4402                	.2byte	0x4402
f8002492:	080c                	.2byte	0x80c
f8002494:	0000                	.2byte	0x0
f8002496:	0000                	.2byte	0x0
f8002498:	001c                	.2byte	0x1c
f800249a:	0000                	.2byte	0x0
f800249c:	0090                	.2byte	0x90
f800249e:	0000                	.2byte	0x0
f80024a0:	e8a0                	.2byte	0xe8a0
f80024a2:	ffff                	.2byte	0xffff
f80024a4:	0048                	.2byte	0x48
f80024a6:	0000                	.2byte	0x0
f80024a8:	4400                	.2byte	0x4400
f80024aa:	300e                	.2byte	0x300e
f80024ac:	8148                	.2byte	0x8148
f80024ae:	8801                	.2byte	0x8801
f80024b0:	4402                	.2byte	0x4402
f80024b2:	080c                	.2byte	0x80c
f80024b4:	0000                	.2byte	0x0
f80024b6:	0000                	.2byte	0x0
f80024b8:	001c                	.2byte	0x1c
f80024ba:	0000                	.2byte	0x0
f80024bc:	00b0                	.2byte	0xb0
f80024be:	0000                	.2byte	0x0
f80024c0:	e8c8                	.2byte	0xe8c8
f80024c2:	ffff                	.2byte	0xffff
f80024c4:	007c                	.2byte	0x7c
f80024c6:	0000                	.2byte	0x0
f80024c8:	4400                	.2byte	0x4400
f80024ca:	400e                	.2byte	0x400e
f80024cc:	8148                	.2byte	0x8148
f80024ce:	8801                	.2byte	0x8801
f80024d0:	4402                	.2byte	0x4402
f80024d2:	080c                	.2byte	0x80c
f80024d4:	0000                	.2byte	0x0
f80024d6:	0000                	.2byte	0x0
f80024d8:	002c                	.2byte	0x2c
f80024da:	0000                	.2byte	0x0
f80024dc:	00d0                	.2byte	0xd0
f80024de:	0000                	.2byte	0x0
f80024e0:	e924                	.2byte	0xe924
f80024e2:	ffff                	.2byte	0xffff
f80024e4:	026c                	.2byte	0x26c
f80024e6:	0000                	.2byte	0x0
f80024e8:	4400                	.2byte	0x4400
f80024ea:	500e                	.2byte	0x500e
f80024ec:	8168                	.2byte	0x8168
f80024ee:	8801                	.2byte	0x8801
f80024f0:	8902                	.2byte	0x8902
f80024f2:	93049203          	lh	tp,-1744(s1)
f80024f6:	9405                	.2byte	0x9405
f80024f8:	9506                	.2byte	0x9506
f80024fa:	97089607          	.4byte	0x97089607
f80024fe:	9809                	.2byte	0x9809
f8002500:	440a                	.2byte	0x440a
f8002502:	080c                	.2byte	0x80c
f8002504:	0000                	.2byte	0x0
f8002506:	0000                	.2byte	0x0
f8002508:	0030                	.2byte	0x30
f800250a:	0000                	.2byte	0x0
f800250c:	0100                	.2byte	0x100
f800250e:	0000                	.2byte	0x0
f8002510:	eb60                	.2byte	0xeb60
f8002512:	ffff                	.2byte	0xffff
f8002514:	0358                	.2byte	0x358
f8002516:	0000                	.2byte	0x0
f8002518:	4400                	.2byte	0x4400
f800251a:	400e                	.2byte	0x400e
f800251c:	8174                	.2byte	0x8174
f800251e:	8801                	.2byte	0x8801
f8002520:	8902                	.2byte	0x8902
f8002522:	93049203          	lh	tp,-1744(s1)
f8002526:	9405                	.2byte	0x9405
f8002528:	9506                	.2byte	0x9506
f800252a:	97089607          	.4byte	0x97089607
f800252e:	9809                	.2byte	0x9809
f8002530:	990a                	.2byte	0x990a
f8002532:	9b0c9a0b          	.4byte	0x9b0c9a0b
f8002536:	440d                	.2byte	0x440d
f8002538:	080c                	.2byte	0x80c
f800253a:	0000                	.2byte	0x0
f800253c:	0024                	.2byte	0x24
f800253e:	0000                	.2byte	0x0
f8002540:	0134                	.2byte	0x134
f8002542:	0000                	.2byte	0x0
f8002544:	ee84                	.2byte	0xee84
f8002546:	ffff                	.2byte	0xffff
f8002548:	00ac                	.2byte	0xac
f800254a:	0000                	.2byte	0x0
f800254c:	4400                	.2byte	0x4400
f800254e:	200e                	.2byte	0x200e
f8002550:	8158                	.2byte	0x8158
f8002552:	8801                	.2byte	0x8801
f8002554:	8902                	.2byte	0x8902
f8002556:	93049203          	lh	tp,-1744(s1)
f800255a:	9405                	.2byte	0x9405
f800255c:	4406                	.2byte	0x4406
f800255e:	080c                	.2byte	0x80c
f8002560:	0000                	.2byte	0x0
f8002562:	0000                	.2byte	0x0
f8002564:	0028                	.2byte	0x28
f8002566:	0000                	.2byte	0x0
f8002568:	015c                	.2byte	0x15c
f800256a:	0000                	.2byte	0x0
f800256c:	ef08                	.2byte	0xef08
f800256e:	ffff                	.2byte	0xffff
f8002570:	02fc                	.2byte	0x2fc
f8002572:	0000                	.2byte	0x0
f8002574:	4400                	.2byte	0x4400
f8002576:	300e                	.2byte	0x300e
f8002578:	8164                	.2byte	0x8164
f800257a:	8801                	.2byte	0x8801
f800257c:	8902                	.2byte	0x8902
f800257e:	93049203          	lh	tp,-1744(s1)
f8002582:	9405                	.2byte	0x9405
f8002584:	9506                	.2byte	0x9506
f8002586:	97089607          	.4byte	0x97089607
f800258a:	4409                	.2byte	0x4409
f800258c:	080c                	.2byte	0x80c
f800258e:	0000                	.2byte	0x0
f8002590:	001c                	.2byte	0x1c
f8002592:	0000                	.2byte	0x0
f8002594:	0188                	.2byte	0x188
f8002596:	0000                	.2byte	0x0
f8002598:	f1d8                	.2byte	0xf1d8
f800259a:	ffff                	.2byte	0xffff
f800259c:	0034                	.2byte	0x34
f800259e:	0000                	.2byte	0x0
f80025a0:	4400                	.2byte	0x4400
f80025a2:	100e                	.2byte	0x100e
f80025a4:	8148                	.2byte	0x8148
f80025a6:	8801                	.2byte	0x8801
f80025a8:	4402                	.2byte	0x4402
f80025aa:	080c                	.2byte	0x80c
f80025ac:	0000                	.2byte	0x0
f80025ae:	0000                	.2byte	0x0
f80025b0:	001c                	.2byte	0x1c
f80025b2:	0000                	.2byte	0x0
f80025b4:	01a8                	.2byte	0x1a8
f80025b6:	0000                	.2byte	0x0
f80025b8:	f1ec                	.2byte	0xf1ec
f80025ba:	ffff                	.2byte	0xffff
f80025bc:	0018                	.2byte	0x18
f80025be:	0000                	.2byte	0x0
f80025c0:	4400                	.2byte	0x4400
f80025c2:	100e                	.2byte	0x100e
f80025c4:	8148                	.2byte	0x8148
f80025c6:	8801                	.2byte	0x8801
f80025c8:	4402                	.2byte	0x4402
f80025ca:	080c                	.2byte	0x80c
f80025cc:	0000                	.2byte	0x0
f80025ce:	0000                	.2byte	0x0
f80025d0:	001c                	.2byte	0x1c
f80025d2:	0000                	.2byte	0x0
f80025d4:	01c8                	.2byte	0x1c8
f80025d6:	0000                	.2byte	0x0
f80025d8:	f1e4                	.2byte	0xf1e4
f80025da:	ffff                	.2byte	0xffff
f80025dc:	006c                	.2byte	0x6c
f80025de:	0000                	.2byte	0x0
f80025e0:	4400                	.2byte	0x4400
f80025e2:	400e                	.2byte	0x400e
f80025e4:	8148                	.2byte	0x8148
f80025e6:	8801                	.2byte	0x8801
f80025e8:	4402                	.2byte	0x4402
f80025ea:	080c                	.2byte	0x80c
f80025ec:	0000                	.2byte	0x0
f80025ee:	0000                	.2byte	0x0
f80025f0:	001c                	.2byte	0x1c
f80025f2:	0000                	.2byte	0x0
f80025f4:	01e8                	.2byte	0x1e8
f80025f6:	0000                	.2byte	0x0
f80025f8:	f230                	.2byte	0xf230
f80025fa:	ffff                	.2byte	0xffff
f80025fc:	0018                	.2byte	0x18
f80025fe:	0000                	.2byte	0x0
f8002600:	4400                	.2byte	0x4400
f8002602:	100e                	.2byte	0x100e
f8002604:	8148                	.2byte	0x8148
f8002606:	8801                	.2byte	0x8801
f8002608:	4402                	.2byte	0x4402
f800260a:	080c                	.2byte	0x80c
f800260c:	0000                	.2byte	0x0
f800260e:	0000                	.2byte	0x0
f8002610:	001c                	.2byte	0x1c
f8002612:	0000                	.2byte	0x0
f8002614:	0208                	.2byte	0x208
f8002616:	0000                	.2byte	0x0
f8002618:	f228                	.2byte	0xf228
f800261a:	ffff                	.2byte	0xffff
f800261c:	006c                	.2byte	0x6c
f800261e:	0000                	.2byte	0x0
f8002620:	4400                	.2byte	0x4400
f8002622:	400e                	.2byte	0x400e
f8002624:	8148                	.2byte	0x8148
f8002626:	8801                	.2byte	0x8801
f8002628:	4402                	.2byte	0x4402
f800262a:	080c                	.2byte	0x80c
f800262c:	0000                	.2byte	0x0
f800262e:	0000                	.2byte	0x0
f8002630:	001c                	.2byte	0x1c
f8002632:	0000                	.2byte	0x0
f8002634:	0228                	.2byte	0x228
f8002636:	0000                	.2byte	0x0
f8002638:	f274                	.2byte	0xf274
f800263a:	ffff                	.2byte	0xffff
f800263c:	0234                	.2byte	0x234
f800263e:	0000                	.2byte	0x0
f8002640:	4400                	.2byte	0x4400
f8002642:	100e                	.2byte	0x100e
f8002644:	8148                	.2byte	0x8148
f8002646:	8801                	.2byte	0x8801
f8002648:	4402                	.2byte	0x4402
f800264a:	080c                	.2byte	0x80c
f800264c:	0000                	.2byte	0x0
f800264e:	0000                	.2byte	0x0
f8002650:	0030                	.2byte	0x30
f8002652:	0000                	.2byte	0x0
f8002654:	0248                	.2byte	0x248
f8002656:	0000                	.2byte	0x0
f8002658:	f488                	.2byte	0xf488
f800265a:	ffff                	.2byte	0xffff
f800265c:	023c                	.2byte	0x23c
f800265e:	0000                	.2byte	0x0
f8002660:	4400                	.2byte	0x4400
f8002662:	600e                	.2byte	0x600e
f8002664:	8174                	.2byte	0x8174
f8002666:	8801                	.2byte	0x8801
f8002668:	8902                	.2byte	0x8902
f800266a:	93049203          	lh	tp,-1744(s1)
f800266e:	9405                	.2byte	0x9405
f8002670:	9506                	.2byte	0x9506
f8002672:	97089607          	.4byte	0x97089607
f8002676:	9809                	.2byte	0x9809
f8002678:	990a                	.2byte	0x990a
f800267a:	9b0c9a0b          	.4byte	0x9b0c9a0b
f800267e:	440d                	.2byte	0x440d
f8002680:	080c                	.2byte	0x80c
f8002682:	0000                	.2byte	0x0
f8002684:	001c                	.2byte	0x1c
f8002686:	0000                	.2byte	0x0
f8002688:	027c                	.2byte	0x27c
f800268a:	0000                	.2byte	0x0
f800268c:	f690                	.2byte	0xf690
f800268e:	ffff                	.2byte	0xffff
f8002690:	0030                	.2byte	0x30
f8002692:	0000                	.2byte	0x0
f8002694:	4400                	.2byte	0x4400
f8002696:	100e                	.2byte	0x100e
f8002698:	8148                	.2byte	0x8148
f800269a:	8801                	.2byte	0x8801
f800269c:	4402                	.2byte	0x4402
f800269e:	080c                	.2byte	0x80c
f80026a0:	0000                	.2byte	0x0
f80026a2:	0000                	.2byte	0x0
f80026a4:	001c                	.2byte	0x1c
f80026a6:	0000                	.2byte	0x0
f80026a8:	029c                	.2byte	0x29c
f80026aa:	0000                	.2byte	0x0
f80026ac:	f6a0                	.2byte	0xf6a0
f80026ae:	ffff                	.2byte	0xffff
f80026b0:	002c                	.2byte	0x2c
f80026b2:	0000                	.2byte	0x0
f80026b4:	4400                	.2byte	0x4400
f80026b6:	100e                	.2byte	0x100e
f80026b8:	8148                	.2byte	0x8148
f80026ba:	8801                	.2byte	0x8801
f80026bc:	4402                	.2byte	0x4402
f80026be:	080c                	.2byte	0x80c
f80026c0:	0000                	.2byte	0x0
f80026c2:	0000                	.2byte	0x0
f80026c4:	001c                	.2byte	0x1c
f80026c6:	0000                	.2byte	0x0
f80026c8:	02bc                	.2byte	0x2bc
f80026ca:	0000                	.2byte	0x0
f80026cc:	f6ac                	.2byte	0xf6ac
f80026ce:	ffff                	.2byte	0xffff
f80026d0:	0034                	.2byte	0x34
f80026d2:	0000                	.2byte	0x0
f80026d4:	4400                	.2byte	0x4400
f80026d6:	100e                	.2byte	0x100e
f80026d8:	8148                	.2byte	0x8148
f80026da:	8801                	.2byte	0x8801
f80026dc:	4402                	.2byte	0x4402
f80026de:	080c                	.2byte	0x80c
f80026e0:	0000                	.2byte	0x0
f80026e2:	0000                	.2byte	0x0
f80026e4:	001c                	.2byte	0x1c
f80026e6:	0000                	.2byte	0x0
f80026e8:	02dc                	.2byte	0x2dc
f80026ea:	0000                	.2byte	0x0
f80026ec:	f6c0                	.2byte	0xf6c0
f80026ee:	ffff                	.2byte	0xffff
f80026f0:	0048                	.2byte	0x48
f80026f2:	0000                	.2byte	0x0
f80026f4:	4400                	.2byte	0x4400
f80026f6:	100e                	.2byte	0x100e
f80026f8:	8148                	.2byte	0x8148
f80026fa:	8801                	.2byte	0x8801
f80026fc:	4402                	.2byte	0x4402
f80026fe:	080c                	.2byte	0x80c
f8002700:	0000                	.2byte	0x0
f8002702:	0000                	.2byte	0x0
f8002704:	001c                	.2byte	0x1c
f8002706:	0000                	.2byte	0x0
f8002708:	02fc                	.2byte	0x2fc
f800270a:	0000                	.2byte	0x0
f800270c:	f6e8                	.2byte	0xf6e8
f800270e:	ffff                	.2byte	0xffff
f8002710:	0024                	.2byte	0x24
f8002712:	0000                	.2byte	0x0
f8002714:	4400                	.2byte	0x4400
f8002716:	100e                	.2byte	0x100e
f8002718:	8148                	.2byte	0x8148
f800271a:	8801                	.2byte	0x8801
f800271c:	4402                	.2byte	0x4402
f800271e:	080c                	.2byte	0x80c
f8002720:	0000                	.2byte	0x0
f8002722:	0000                	.2byte	0x0
f8002724:	001c                	.2byte	0x1c
f8002726:	0000                	.2byte	0x0
f8002728:	031c                	.2byte	0x31c
f800272a:	0000                	.2byte	0x0
f800272c:	f6ec                	.2byte	0xf6ec
f800272e:	ffff                	.2byte	0xffff
f8002730:	0144                	.2byte	0x144
f8002732:	0000                	.2byte	0x0
f8002734:	4400                	.2byte	0x4400
f8002736:	100e                	.2byte	0x100e
f8002738:	8148                	.2byte	0x8148
f800273a:	8801                	.2byte	0x8801
f800273c:	4402                	.2byte	0x4402
f800273e:	080c                	.2byte	0x80c
f8002740:	0000                	.2byte	0x0
f8002742:	0000                	.2byte	0x0
f8002744:	0024                	.2byte	0x24
f8002746:	0000                	.2byte	0x0
f8002748:	033c                	.2byte	0x33c
f800274a:	0000                	.2byte	0x0
f800274c:	f810                	.2byte	0xf810
f800274e:	ffff                	.2byte	0xffff
f8002750:	00c8                	.2byte	0xc8
f8002752:	0000                	.2byte	0x0
f8002754:	4400                	.2byte	0x4400
f8002756:	200e                	.2byte	0x200e
f8002758:	8158                	.2byte	0x8158
f800275a:	8801                	.2byte	0x8801
f800275c:	8902                	.2byte	0x8902
f800275e:	93049203          	lh	tp,-1744(s1)
f8002762:	9405                	.2byte	0x9405
f8002764:	4406                	.2byte	0x4406
f8002766:	080c                	.2byte	0x80c
f8002768:	0000                	.2byte	0x0
f800276a:	0000                	.2byte	0x0
f800276c:	001c                	.2byte	0x1c
f800276e:	0000                	.2byte	0x0
f8002770:	0364                	.2byte	0x364
f8002772:	0000                	.2byte	0x0
f8002774:	f8b0                	.2byte	0xf8b0
f8002776:	ffff                	.2byte	0xffff
f8002778:	0024                	.2byte	0x24
f800277a:	0000                	.2byte	0x0
f800277c:	4400                	.2byte	0x4400
f800277e:	100e                	.2byte	0x100e
f8002780:	8148                	.2byte	0x8148
f8002782:	8801                	.2byte	0x8801
f8002784:	4402                	.2byte	0x4402
f8002786:	080c                	.2byte	0x80c
	...

Disassembly of section .comment:

00000000 <.comment>:
   0:	694c                	.2byte	0x694c
   2:	6b6e                	.2byte	0x6b6e
   4:	7265                	.2byte	0x7265
   6:	203a                	.2byte	0x203a
   8:	4c4c                	.2byte	0x4c4c
   a:	2044                	.2byte	0x2044
   c:	3831                	.2byte	0x3831
   e:	312e                	.2byte	0x312e
  10:	372e                	.2byte	0x372e
  12:	0000                	.2byte	0x0
  14:	7572                	.2byte	0x7572
  16:	20637473          	.4byte	0x20637473
  1a:	6576                	.2byte	0x6576
  1c:	7372                	.2byte	0x7372
  1e:	6f69                	.2byte	0x6f69
  20:	206e                	.2byte	0x206e
  22:	2e31                	.2byte	0x2e31
  24:	302e3937          	lui	s2,0x302e3
  28:	2820                	.2byte	0x2820
  2a:	3231                	.2byte	0x3231
  2c:	6639                	.2byte	0x6639
  2e:	39396233          	.4byte	0x39396233
  32:	2036                	.2byte	0x2036
  34:	3032                	.2byte	0x3032
  36:	3432                	.2byte	0x3432
  38:	302d                	.2byte	0x302d
  3a:	2d36                	.2byte	0x2d36
  3c:	3031                	.2byte	0x3031
  3e:	0029                	.2byte	0x29

Disassembly of section .riscv.attributes:

00000000 <.riscv.attributes>:
   0:	1b41                	.2byte	0x1b41
   2:	0000                	.2byte	0x0
   4:	7200                	.2byte	0x7200
   6:	7369                	.2byte	0x7369
   8:	01007663          	bgeu	zero,a6,14 <_bss+0x14>
   c:	0011                	.2byte	0x11
   e:	0000                	.2byte	0x0
  10:	1004                	.2byte	0x1004
  12:	7205                	.2byte	0x7205
  14:	3376                	.2byte	0x3376
  16:	6932                	.2byte	0x6932
  18:	7032                	.2byte	0x7032
  1a:	0031                	.2byte	0x31
