
./target/riscv32ima-unknown-none-elf/release/alloc_sgfx:     file format elf32-littleriscv


Disassembly of section .text:

f8000000 <_start>:
f8000000:	00000093          	li	ra,0
f8000004:	00000113          	li	sp,0
f8000008:	00000193          	li	gp,0
f800000c:	00000213          	li	tp,0
f8000010:	00000293          	li	t0,0
f8000014:	00000313          	li	t1,0
f8000018:	00000393          	li	t2,0
f800001c:	00000413          	li	s0,0
f8000020:	00000493          	li	s1,0
f8000024:	00000513          	li	a0,0
f8000028:	00000593          	li	a1,0
f800002c:	00000613          	li	a2,0
f8000030:	00000693          	li	a3,0
f8000034:	00000713          	li	a4,0
f8000038:	00000793          	li	a5,0
f800003c:	00000813          	li	a6,0
f8000040:	00000893          	li	a7,0
f8000044:	00000913          	li	s2,0
f8000048:	00000993          	li	s3,0
f800004c:	00000a13          	li	s4,0
f8000050:	00000a93          	li	s5,0
f8000054:	00000b13          	li	s6,0
f8000058:	00000b93          	li	s7,0
f800005c:	00000c13          	li	s8,0
f8000060:	00000c93          	li	s9,0
f8000064:	00000d13          	li	s10,0
f8000068:	00000d93          	li	s11,0
f800006c:	00000e13          	li	t3,0
f8000070:	00000e93          	li	t4,0
f8000074:	00000f13          	li	t5,0
f8000078:	00000f93          	li	t6,0
f800007c:	000011b7          	lui	gp,0x1
f8000080:	80018193          	add	gp,gp,-2048 # 800 <__global_pointer>
f8000084:	08000137          	lui	sp,0x8000
f8000088:	00010113          	mv	sp,sp
f800008c:	f80010b7          	lui	ra,0xf8001
f8000090:	99008093          	add	ra,ra,-1648 # f8000990 <main>
f8000094:	000080e7          	jalr	ra

f8000098 <wfi_loop>:
f8000098:	10500073          	wfi
f800009c:	ffdff06f          	j	f8000098 <wfi_loop>

f80000a0 <_ZN45_$LT$$LP$$RP$$u20$as$u20$core..fmt..Debug$GT$3fmt17hb6d81e14cb15960dE>:
f80000a0:	f8002537          	lui	a0,0xf8002
f80000a4:	1ec50693          	add	a3,a0,492 # f80021ec <.Lanon.f5f270e712b74926b98f069c093e4b8d.0>
f80000a8:	00200613          	li	a2,2
f80000ac:	00058513          	mv	a0,a1
f80000b0:	00068593          	mv	a1,a3
f80000b4:	00002317          	auipc	t1,0x2
f80000b8:	89030067          	jr	-1904(t1) # f8001944 <_ZN4core3fmt9Formatter3pad17h3194e2777058ca70E>

f80000bc <_ZN4core3fmt5Write10write_char17h67422d2120541c75E>:
f80000bc:	ff010113          	add	sp,sp,-16 # 7fffff0 <__rust_no_alloc_shim_is_unstable+0x7ffd8cf>
f80000c0:	00112623          	sw	ra,12(sp)
f80000c4:	08000613          	li	a2,128
f80000c8:	00012423          	sw	zero,8(sp)
f80000cc:	00c5f863          	bgeu	a1,a2,f80000dc <_ZN4core3fmt5Write10write_char17h67422d2120541c75E+0x20>
f80000d0:	00b10423          	sb	a1,8(sp)
f80000d4:	00100613          	li	a2,1
f80000d8:	0a40006f          	j	f800017c <_ZN4core3fmt5Write10write_char17h67422d2120541c75E+0xc0>
f80000dc:	00b5d613          	srl	a2,a1,0xb
f80000e0:	02061263          	bnez	a2,f8000104 <_ZN4core3fmt5Write10write_char17h67422d2120541c75E+0x48>
f80000e4:	0065d613          	srl	a2,a1,0x6
f80000e8:	0c066613          	or	a2,a2,192
f80000ec:	00c10423          	sb	a2,8(sp)
f80000f0:	03f5f593          	and	a1,a1,63
f80000f4:	08058593          	add	a1,a1,128
f80000f8:	00b104a3          	sb	a1,9(sp)
f80000fc:	00200613          	li	a2,2
f8000100:	07c0006f          	j	f800017c <_ZN4core3fmt5Write10write_char17h67422d2120541c75E+0xc0>
f8000104:	0105d613          	srl	a2,a1,0x10
f8000108:	02061a63          	bnez	a2,f800013c <_ZN4core3fmt5Write10write_char17h67422d2120541c75E+0x80>
f800010c:	00c5d613          	srl	a2,a1,0xc
f8000110:	0e066613          	or	a2,a2,224
f8000114:	00c10423          	sb	a2,8(sp)
f8000118:	01459613          	sll	a2,a1,0x14
f800011c:	01a65613          	srl	a2,a2,0x1a
f8000120:	08060613          	add	a2,a2,128
f8000124:	00c104a3          	sb	a2,9(sp)
f8000128:	03f5f593          	and	a1,a1,63
f800012c:	08058593          	add	a1,a1,128
f8000130:	00b10523          	sb	a1,10(sp)
f8000134:	00300613          	li	a2,3
f8000138:	0440006f          	j	f800017c <_ZN4core3fmt5Write10write_char17h67422d2120541c75E+0xc0>
f800013c:	00b59613          	sll	a2,a1,0xb
f8000140:	01d65613          	srl	a2,a2,0x1d
f8000144:	0f060613          	add	a2,a2,240
f8000148:	00c10423          	sb	a2,8(sp)
f800014c:	00e59613          	sll	a2,a1,0xe
f8000150:	01a65613          	srl	a2,a2,0x1a
f8000154:	08060613          	add	a2,a2,128
f8000158:	00c104a3          	sb	a2,9(sp)
f800015c:	01459613          	sll	a2,a1,0x14
f8000160:	01a65613          	srl	a2,a2,0x1a
f8000164:	08060613          	add	a2,a2,128
f8000168:	00c10523          	sb	a2,10(sp)
f800016c:	03f5f593          	and	a1,a1,63
f8000170:	08058593          	add	a1,a1,128
f8000174:	00b105a3          	sb	a1,11(sp)
f8000178:	00400613          	li	a2,4
f800017c:	00810593          	add	a1,sp,8
f8000180:	00001097          	auipc	ra,0x1
f8000184:	e28080e7          	jalr	-472(ra) # f8000fa8 <_ZN70_$LT$rvfm_platform..debug..DebugWriter$u20$as$u20$core..fmt..Write$GT$9write_str17h6a78f9d494d7973cE>
f8000188:	00c12083          	lw	ra,12(sp)
f800018c:	01010113          	add	sp,sp,16
f8000190:	00008067          	ret

f8000194 <_ZN4core3fmt5Write9write_fmt17h294c45ecca6c7638E>:
f8000194:	00058613          	mv	a2,a1
f8000198:	0045a683          	lw	a3,4(a1)
f800019c:	00c5a583          	lw	a1,12(a1)
f80001a0:	00100713          	li	a4,1
f80001a4:	00e68e63          	beq	a3,a4,f80001c0 <_ZN4core3fmt5Write9write_fmt17h294c45ecca6c7638E+0x2c>
f80001a8:	00069e63          	bnez	a3,f80001c4 <_ZN4core3fmt5Write9write_fmt17h294c45ecca6c7638E+0x30>
f80001ac:	00059c63          	bnez	a1,f80001c4 <_ZN4core3fmt5Write9write_fmt17h294c45ecca6c7638E+0x30>
f80001b0:	00000613          	li	a2,0
f80001b4:	00100593          	li	a1,1
f80001b8:	00001317          	auipc	t1,0x1
f80001bc:	df030067          	jr	-528(t1) # f8000fa8 <_ZN70_$LT$rvfm_platform..debug..DebugWriter$u20$as$u20$core..fmt..Write$GT$9write_str17h6a78f9d494d7973cE>
f80001c0:	00058a63          	beqz	a1,f80001d4 <_ZN4core3fmt5Write9write_fmt17h294c45ecca6c7638E+0x40>
f80001c4:	f80025b7          	lui	a1,0xf8002
f80001c8:	1f058593          	add	a1,a1,496 # f80021f0 <.Lanon.f5f270e712b74926b98f069c093e4b8d.1>
f80001cc:	00001317          	auipc	t1,0x1
f80001d0:	12c30067          	jr	300(t1) # f80012f8 <_ZN4core3fmt5write17hb8db08122a7bc793E>
f80001d4:	00062603          	lw	a2,0(a2)
f80001d8:	00062583          	lw	a1,0(a2)
f80001dc:	00462603          	lw	a2,4(a2)
f80001e0:	00001317          	auipc	t1,0x1
f80001e4:	dc830067          	jr	-568(t1) # f8000fa8 <_ZN70_$LT$rvfm_platform..debug..DebugWriter$u20$as$u20$core..fmt..Write$GT$9write_str17h6a78f9d494d7973cE>

f80001e8 <_ZN4talc4talc13Talc$LT$O$GT$6malloc17h15999c4d85dbe88cE>:
f80001e8:	00900613          	li	a2,9
f80001ec:	00c5f663          	bgeu	a1,a2,f80001f8 <_ZN4talc4talc13Talc$LT$O$GT$6malloc17h15999c4d85dbe88cE+0x10>
f80001f0:	00c00613          	li	a2,12
f80001f4:	00c0006f          	j	f8000200 <_ZN4talc4talc13Talc$LT$O$GT$6malloc17h15999c4d85dbe88cE+0x18>
f80001f8:	00758613          	add	a2,a1,7
f80001fc:	ffc67613          	and	a2,a2,-4
f8000200:	fe010113          	add	sp,sp,-32
f8000204:	00112e23          	sw	ra,28(sp)
f8000208:	00812c23          	sw	s0,24(sp)
f800020c:	00912a23          	sw	s1,20(sp)
f8000210:	01212823          	sw	s2,16(sp)
f8000214:	01312623          	sw	s3,12(sp)
f8000218:	01412423          	sw	s4,8(sp)
f800021c:	04000693          	li	a3,64
f8000220:	02d67863          	bgeu	a2,a3,f8000250 <_ZN4talc4talc13Talc$LT$O$GT$6malloc17h15999c4d85dbe88cE+0x68>
f8000224:	ff460693          	add	a3,a2,-12
f8000228:	0026d693          	srl	a3,a3,0x2
f800022c:	02000713          	li	a4,32
f8000230:	02e6e863          	bltu	a3,a4,f8000260 <_ZN4talc4talc13Talc$LT$O$GT$6malloc17h15999c4d85dbe88cE+0x78>
f8000234:	04000713          	li	a4,64
f8000238:	2ce6fe63          	bgeu	a3,a4,f8000514 <_ZN4talc4talc13Talc$LT$O$GT$6malloc17h15999c4d85dbe88cE+0x32c>
f800023c:	00002737          	lui	a4,0x2
f8000240:	71872703          	lw	a4,1816(a4) # 2718 <_ZN10alloc_sgfx9ALLOCATOR17h5b9277964cab8dfbE+0x8>
f8000244:	00d75733          	srl	a4,a4,a3
f8000248:	02071663          	bnez	a4,f8000274 <_ZN4talc4talc13Talc$LT$O$GT$6malloc17h15999c4d85dbe88cE+0x8c>
f800024c:	2c80006f          	j	f8000514 <_ZN4talc4talc13Talc$LT$O$GT$6malloc17h15999c4d85dbe88cE+0x32c>
f8000250:	08000693          	li	a3,128
f8000254:	10d67463          	bgeu	a2,a3,f800035c <_ZN4talc4talc13Talc$LT$O$GT$6malloc17h15999c4d85dbe88cE+0x174>
f8000258:	00365693          	srl	a3,a2,0x3
f800025c:	00568693          	add	a3,a3,5
f8000260:	00002737          	lui	a4,0x2
f8000264:	71070793          	add	a5,a4,1808 # 2710 <_ZN10alloc_sgfx9ALLOCATOR17h5b9277964cab8dfbE>
f8000268:	0047a703          	lw	a4,4(a5)
f800026c:	00d75733          	srl	a4,a4,a3
f8000270:	18070863          	beqz	a4,f8000400 <_ZN4talc4talc13Talc$LT$O$GT$6malloc17h15999c4d85dbe88cE+0x218>
f8000274:	40e007b3          	neg	a5,a4
f8000278:	00f77733          	and	a4,a4,a5
f800027c:	077cb7b7          	lui	a5,0x77cb
f8000280:	53178793          	add	a5,a5,1329 # 77cb531 <__rust_no_alloc_shim_is_unstable+0x77c8e10>
f8000284:	02f70733          	mul	a4,a4,a5
f8000288:	01b75713          	srl	a4,a4,0x1b
f800028c:	f80027b7          	lui	a5,0xf8002
f8000290:	1cc78793          	add	a5,a5,460 # f80021cc <_ZN17compiler_builtins3mem6memset17ha85cfcfa6b526c2bE+0x7c>
f8000294:	00e78733          	add	a4,a5,a4
f8000298:	00074703          	lbu	a4,0(a4)
f800029c:	00d706b3          	add	a3,a4,a3
f80002a0:	00400713          	li	a4,4
f80002a4:	18a76c63          	bltu	a4,a0,f800043c <_ZN4talc4talc13Talc$LT$O$GT$6malloc17h15999c4d85dbe88cE+0x254>
f80002a8:	00002537          	lui	a0,0x2
f80002ac:	71050713          	add	a4,a0,1808 # 2710 <_ZN10alloc_sgfx9ALLOCATOR17h5b9277964cab8dfbE>
f80002b0:	00c72503          	lw	a0,12(a4)
f80002b4:	00872883          	lw	a7,8(a4)
f80002b8:	00472703          	lw	a4,4(a4)
f80002bc:	077cb7b7          	lui	a5,0x77cb
f80002c0:	53178793          	add	a5,a5,1329 # 77cb531 <__rust_no_alloc_shim_is_unstable+0x77c8e10>
f80002c4:	f8002837          	lui	a6,0xf8002
f80002c8:	1cc80813          	add	a6,a6,460 # f80021cc <_ZN17compiler_builtins3mem6memset17ha85cfcfa6b526c2bE+0x7c>
f80002cc:	2a088463          	beqz	a7,f8000574 <_ZN4talc4talc13Talc$LT$O$GT$6malloc17h15999c4d85dbe88cE+0x38c>
f80002d0:	411002b3          	neg	t0,a7
f80002d4:	0058f2b3          	and	t0,a7,t0
f80002d8:	02f282b3          	mul	t0,t0,a5
f80002dc:	01b2d293          	srl	t0,t0,0x1b
f80002e0:	005802b3          	add	t0,a6,t0
f80002e4:	0002c283          	lbu	t0,0(t0)
f80002e8:	0202e293          	or	t0,t0,32
f80002ec:	02000313          	li	t1,32
f80002f0:	04000393          	li	t2,64
f80002f4:	00269913          	sll	s2,a3,0x2
f80002f8:	01250933          	add	s2,a0,s2
f80002fc:	00092903          	lw	s2,0(s2)
f8000300:	00090863          	beqz	s2,f8000310 <_ZN4talc4talc13Talc$LT$O$GT$6malloc17h15999c4d85dbe88cE+0x128>
f8000304:	00892a03          	lw	s4,8(s2)
f8000308:	feca6ae3          	bltu	s4,a2,f80002fc <_ZN4talc4talc13Talc$LT$O$GT$6malloc17h15999c4d85dbe88cE+0x114>
f800030c:	2b80006f          	j	f80005c4 <_ZN4talc4talc13Talc$LT$O$GT$6malloc17h15999c4d85dbe88cE+0x3dc>
f8000310:	00168e13          	add	t3,a3,1
f8000314:	006e7e63          	bgeu	t3,t1,f8000330 <_ZN4talc4talc13Talc$LT$O$GT$6malloc17h15999c4d85dbe88cE+0x148>
f8000318:	01c75eb3          	srl	t4,a4,t3
f800031c:	00028693          	mv	a3,t0
f8000320:	fc0e8ae3          	beqz	t4,f80002f4 <_ZN4talc4talc13Talc$LT$O$GT$6malloc17h15999c4d85dbe88cE+0x10c>
f8000324:	41d006b3          	neg	a3,t4
f8000328:	00def6b3          	and	a3,t4,a3
f800032c:	0180006f          	j	f8000344 <_ZN4talc4talc13Talc$LT$O$GT$6malloc17h15999c4d85dbe88cE+0x15c>
f8000330:	1e7e7263          	bgeu	t3,t2,f8000514 <_ZN4talc4talc13Talc$LT$O$GT$6malloc17h15999c4d85dbe88cE+0x32c>
f8000334:	01c8d6b3          	srl	a3,a7,t3
f8000338:	1c068e63          	beqz	a3,f8000514 <_ZN4talc4talc13Talc$LT$O$GT$6malloc17h15999c4d85dbe88cE+0x32c>
f800033c:	40d00eb3          	neg	t4,a3
f8000340:	01d6f6b3          	and	a3,a3,t4
f8000344:	02f686b3          	mul	a3,a3,a5
f8000348:	01b6d693          	srl	a3,a3,0x1b
f800034c:	00d806b3          	add	a3,a6,a3
f8000350:	0006c683          	lbu	a3,0(a3)
f8000354:	01c686b3          	add	a3,a3,t3
f8000358:	f9dff06f          	j	f80002f4 <_ZN4talc4talc13Talc$LT$O$GT$6malloc17h15999c4d85dbe88cE+0x10c>
f800035c:	00165693          	srl	a3,a2,0x1
f8000360:	00d666b3          	or	a3,a2,a3
f8000364:	0026d713          	srl	a4,a3,0x2
f8000368:	00e6e6b3          	or	a3,a3,a4
f800036c:	0046d713          	srl	a4,a3,0x4
f8000370:	00e6e6b3          	or	a3,a3,a4
f8000374:	0086d713          	srl	a4,a3,0x8
f8000378:	00e6e6b3          	or	a3,a3,a4
f800037c:	0106d713          	srl	a4,a3,0x10
f8000380:	00e6e6b3          	or	a3,a3,a4
f8000384:	fff6c693          	not	a3,a3
f8000388:	0016d713          	srl	a4,a3,0x1
f800038c:	555557b7          	lui	a5,0x55555
f8000390:	55578793          	add	a5,a5,1365 # 55555555 <__stack_ptr+0x4d555555>
f8000394:	00f77733          	and	a4,a4,a5
f8000398:	40e686b3          	sub	a3,a3,a4
f800039c:	33333737          	lui	a4,0x33333
f80003a0:	33370713          	add	a4,a4,819 # 33333333 <__stack_ptr+0x2b333333>
f80003a4:	00e6f7b3          	and	a5,a3,a4
f80003a8:	0026d693          	srl	a3,a3,0x2
f80003ac:	00e6f6b3          	and	a3,a3,a4
f80003b0:	00d786b3          	add	a3,a5,a3
f80003b4:	0046d713          	srl	a4,a3,0x4
f80003b8:	00e686b3          	add	a3,a3,a4
f80003bc:	0f0f1737          	lui	a4,0xf0f1
f80003c0:	f0f70713          	add	a4,a4,-241 # f0f0f0f <__stack_ptr+0x70f0f0f>
f80003c4:	00e6f6b3          	and	a3,a3,a4
f80003c8:	01010737          	lui	a4,0x1010
f80003cc:	10170713          	add	a4,a4,257 # 1010101 <__rust_no_alloc_shim_is_unstable+0x100d9e0>
f80003d0:	02e686b3          	mul	a3,a3,a4
f80003d4:	0186d693          	srl	a3,a3,0x18
f80003d8:	01e00713          	li	a4,30
f80003dc:	40d70733          	sub	a4,a4,a3
f80003e0:	00e65733          	srl	a4,a2,a4
f80003e4:	00169693          	sll	a3,a3,0x1
f80003e8:	40d70733          	sub	a4,a4,a3
f80003ec:	04370693          	add	a3,a4,67
f80003f0:	03f00713          	li	a4,63
f80003f4:	e2e6ece3          	bltu	a3,a4,f800022c <_ZN4talc4talc13Talc$LT$O$GT$6malloc17h15999c4d85dbe88cE+0x44>
f80003f8:	03f00693          	li	a3,63
f80003fc:	e31ff06f          	j	f800022c <_ZN4talc4talc13Talc$LT$O$GT$6malloc17h15999c4d85dbe88cE+0x44>
f8000400:	0087a683          	lw	a3,8(a5)
f8000404:	10068863          	beqz	a3,f8000514 <_ZN4talc4talc13Talc$LT$O$GT$6malloc17h15999c4d85dbe88cE+0x32c>
f8000408:	40d00733          	neg	a4,a3
f800040c:	00e6f6b3          	and	a3,a3,a4
f8000410:	077cb737          	lui	a4,0x77cb
f8000414:	53170713          	add	a4,a4,1329 # 77cb531 <__rust_no_alloc_shim_is_unstable+0x77c8e10>
f8000418:	02e686b3          	mul	a3,a3,a4
f800041c:	01b6d693          	srl	a3,a3,0x1b
f8000420:	f8002737          	lui	a4,0xf8002
f8000424:	1cc70713          	add	a4,a4,460 # f80021cc <_ZN17compiler_builtins3mem6memset17ha85cfcfa6b526c2bE+0x7c>
f8000428:	00d706b3          	add	a3,a4,a3
f800042c:	0006c683          	lbu	a3,0(a3)
f8000430:	0206e693          	or	a3,a3,32
f8000434:	00400713          	li	a4,4
f8000438:	e6a778e3          	bgeu	a4,a0,f80002a8 <_ZN4talc4talc13Talc$LT$O$GT$6malloc17h15999c4d85dbe88cE+0xc0>
f800043c:	00002737          	lui	a4,0x2
f8000440:	71070313          	add	t1,a4,1808 # 2710 <_ZN10alloc_sgfx9ALLOCATOR17h5b9277964cab8dfbE>
f8000444:	00832703          	lw	a4,8(t1)
f8000448:	fff50793          	add	a5,a0,-1
f800044c:	40e00833          	neg	a6,a4
f8000450:	010778b3          	and	a7,a4,a6
f8000454:	077cb837          	lui	a6,0x77cb
f8000458:	53180813          	add	a6,a6,1329 # 77cb531 <__rust_no_alloc_shim_is_unstable+0x77c8e10>
f800045c:	030888b3          	mul	a7,a7,a6
f8000460:	01b8d293          	srl	t0,a7,0x1b
f8000464:	f80028b7          	lui	a7,0xf8002
f8000468:	1cc88893          	add	a7,a7,460 # f80021cc <_ZN17compiler_builtins3mem6memset17ha85cfcfa6b526c2bE+0x7c>
f800046c:	005882b3          	add	t0,a7,t0
f8000470:	0002c383          	lbu	t2,0(t0)
f8000474:	00c32283          	lw	t0,12(t1)
f8000478:	40a00533          	neg	a0,a0
f800047c:	00432303          	lw	t1,4(t1)
f8000480:	0203e393          	or	t2,t2,32
f8000484:	02000e13          	li	t3,32
f8000488:	04000e93          	li	t4,64
f800048c:	0280006f          	j	f80004b4 <_ZN4talc4talc13Talc$LT$O$GT$6malloc17h15999c4d85dbe88cE+0x2cc>
f8000490:	00d35f33          	srl	t5,t1,a3
f8000494:	060f0c63          	beqz	t5,f800050c <_ZN4talc4talc13Talc$LT$O$GT$6malloc17h15999c4d85dbe88cE+0x324>
f8000498:	41e00fb3          	neg	t6,t5
f800049c:	01ff7f33          	and	t5,t5,t6
f80004a0:	030f0f33          	mul	t5,t5,a6
f80004a4:	01bf5f13          	srl	t5,t5,0x1b
f80004a8:	01e88f33          	add	t5,a7,t5
f80004ac:	000f4f03          	lbu	t5,0(t5)
f80004b0:	00df06b3          	add	a3,t5,a3
f80004b4:	00269f13          	sll	t5,a3,0x2
f80004b8:	01e28fb3          	add	t6,t0,t5
f80004bc:	000fa903          	lw	s2,0(t6)
f80004c0:	02091263          	bnez	s2,f80004e4 <_ZN4talc4talc13Talc$LT$O$GT$6malloc17h15999c4d85dbe88cE+0x2fc>
f80004c4:	00168693          	add	a3,a3,1
f80004c8:	fdc6e4e3          	bltu	a3,t3,f8000490 <_ZN4talc4talc13Talc$LT$O$GT$6malloc17h15999c4d85dbe88cE+0x2a8>
f80004cc:	05d6f463          	bgeu	a3,t4,f8000514 <_ZN4talc4talc13Talc$LT$O$GT$6malloc17h15999c4d85dbe88cE+0x32c>
f80004d0:	00d75f33          	srl	t5,a4,a3
f80004d4:	fc0f12e3          	bnez	t5,f8000498 <_ZN4talc4talc13Talc$LT$O$GT$6malloc17h15999c4d85dbe88cE+0x2b0>
f80004d8:	03c0006f          	j	f8000514 <_ZN4talc4talc13Talc$LT$O$GT$6malloc17h15999c4d85dbe88cE+0x32c>
f80004dc:	000f8913          	mv	s2,t6
f80004e0:	fe0f82e3          	beqz	t6,f80004c4 <_ZN4talc4talc13Talc$LT$O$GT$6malloc17h15999c4d85dbe88cE+0x2dc>
f80004e4:	00892a03          	lw	s4,8(s2)
f80004e8:	00092f83          	lw	t6,0(s2)
f80004ec:	feca68e3          	bltu	s4,a2,f80004dc <_ZN4talc4talc13Talc$LT$O$GT$6malloc17h15999c4d85dbe88cE+0x2f4>
f80004f0:	01490a33          	add	s4,s2,s4
f80004f4:	01278433          	add	s0,a5,s2
f80004f8:	00a47433          	and	s0,s0,a0
f80004fc:	00b404b3          	add	s1,s0,a1
f8000500:	00448493          	add	s1,s1,4
f8000504:	fc9a6ce3          	bltu	s4,s1,f80004dc <_ZN4talc4talc13Talc$LT$O$GT$6malloc17h15999c4d85dbe88cE+0x2f4>
f8000508:	0140006f          	j	f800051c <_ZN4talc4talc13Talc$LT$O$GT$6malloc17h15999c4d85dbe88cE+0x334>
f800050c:	00038693          	mv	a3,t2
f8000510:	fa0712e3          	bnez	a4,f80004b4 <_ZN4talc4talc13Talc$LT$O$GT$6malloc17h15999c4d85dbe88cE+0x2cc>
f8000514:	00000413          	li	s0,0
f8000518:	4240006f          	j	f800093c <_ZN4talc4talc13Talc$LT$O$GT$6malloc17h15999c4d85dbe88cE+0x754>
f800051c:	00492503          	lw	a0,4(s2)
f8000520:	01f52023          	sw	t6,0(a0)
f8000524:	000f8463          	beqz	t6,f800052c <_ZN4talc4talc13Talc$LT$O$GT$6malloc17h15999c4d85dbe88cE+0x344>
f8000528:	00afa223          	sw	a0,4(t6)
f800052c:	00002537          	lui	a0,0x2
f8000530:	71c52503          	lw	a0,1820(a0) # 271c <_ZN10alloc_sgfx9ALLOCATOR17h5b9277964cab8dfbE+0xc>
f8000534:	01e50f33          	add	t5,a0,t5
f8000538:	000f2603          	lw	a2,0(t5)
f800053c:	12060463          	beqz	a2,f8000664 <_ZN4talc4talc13Talc$LT$O$GT$6malloc17h15999c4d85dbe88cE+0x47c>
f8000540:	ff4a0493          	add	s1,s4,-12
f8000544:	0e84e663          	bltu	s1,s0,f8000630 <_ZN4talc4talc13Talc$LT$O$GT$6malloc17h15999c4d85dbe88cE+0x448>
f8000548:	00040493          	mv	s1,s0
f800054c:	41240633          	sub	a2,s0,s2
f8000550:	00b00693          	li	a3,11
f8000554:	0ec6e463          	bltu	a3,a2,f800063c <_ZN4talc4talc13Talc$LT$O$GT$6malloc17h15999c4d85dbe88cE+0x454>
f8000558:	ffc90513          	add	a0,s2,-4
f800055c:	00058493          	mv	s1,a1
f8000560:	00001097          	auipc	ra,0x1
f8000564:	8e4080e7          	jalr	-1820(ra) # f8000e44 <_ZN4talc4talc3tag3Tag16clear_above_free17hf37c9259bf9e992aE>
f8000568:	00048593          	mv	a1,s1
f800056c:	00090493          	mv	s1,s2
f8000570:	2340006f          	j	f80007a4 <_ZN4talc4talc13Talc$LT$O$GT$6malloc17h15999c4d85dbe88cE+0x5bc>
f8000574:	01f00893          	li	a7,31
f8000578:	00269913          	sll	s2,a3,0x2
f800057c:	01250933          	add	s2,a0,s2
f8000580:	00092903          	lw	s2,0(s2)
f8000584:	00090863          	beqz	s2,f8000594 <_ZN4talc4talc13Talc$LT$O$GT$6malloc17h15999c4d85dbe88cE+0x3ac>
f8000588:	00892a03          	lw	s4,8(s2)
f800058c:	feca6ae3          	bltu	s4,a2,f8000580 <_ZN4talc4talc13Talc$LT$O$GT$6malloc17h15999c4d85dbe88cE+0x398>
f8000590:	0340006f          	j	f80005c4 <_ZN4talc4talc13Talc$LT$O$GT$6malloc17h15999c4d85dbe88cE+0x3dc>
f8000594:	00168693          	add	a3,a3,1
f8000598:	f6d8eee3          	bltu	a7,a3,f8000514 <_ZN4talc4talc13Talc$LT$O$GT$6malloc17h15999c4d85dbe88cE+0x32c>
f800059c:	00d752b3          	srl	t0,a4,a3
f80005a0:	f6028ae3          	beqz	t0,f8000514 <_ZN4talc4talc13Talc$LT$O$GT$6malloc17h15999c4d85dbe88cE+0x32c>
f80005a4:	40500333          	neg	t1,t0
f80005a8:	0062f2b3          	and	t0,t0,t1
f80005ac:	02f282b3          	mul	t0,t0,a5
f80005b0:	01b2d293          	srl	t0,t0,0x1b
f80005b4:	005802b3          	add	t0,a6,t0
f80005b8:	0002c283          	lbu	t0,0(t0)
f80005bc:	00d286b3          	add	a3,t0,a3
f80005c0:	fb9ff06f          	j	f8000578 <_ZN4talc4talc13Talc$LT$O$GT$6malloc17h15999c4d85dbe88cE+0x390>
f80005c4:	00092503          	lw	a0,0(s2)
f80005c8:	00492603          	lw	a2,4(s2)
f80005cc:	00a62023          	sw	a0,0(a2)
f80005d0:	00050463          	beqz	a0,f80005d8 <_ZN4talc4talc13Talc$LT$O$GT$6malloc17h15999c4d85dbe88cE+0x3f0>
f80005d4:	00c52223          	sw	a2,4(a0)
f80005d8:	00002537          	lui	a0,0x2
f80005dc:	71c52503          	lw	a0,1820(a0) # 271c <_ZN10alloc_sgfx9ALLOCATOR17h5b9277964cab8dfbE+0xc>
f80005e0:	00269613          	sll	a2,a3,0x2
f80005e4:	00c50633          	add	a2,a0,a2
f80005e8:	00062603          	lw	a2,0(a2)
f80005ec:	02061a63          	bnez	a2,f8000620 <_ZN4talc4talc13Talc$LT$O$GT$6malloc17h15999c4d85dbe88cE+0x438>
f80005f0:	02000713          	li	a4,32
f80005f4:	00400613          	li	a2,4
f80005f8:	00e6e463          	bltu	a3,a4,f8000600 <_ZN4talc4talc13Talc$LT$O$GT$6malloc17h15999c4d85dbe88cE+0x418>
f80005fc:	00800613          	li	a2,8
f8000600:	00002737          	lui	a4,0x2
f8000604:	71070713          	add	a4,a4,1808 # 2710 <_ZN10alloc_sgfx9ALLOCATOR17h5b9277964cab8dfbE>
f8000608:	00c70633          	add	a2,a4,a2
f800060c:	00062703          	lw	a4,0(a2)
f8000610:	00100793          	li	a5,1
f8000614:	00d796b3          	sll	a3,a5,a3
f8000618:	00d746b3          	xor	a3,a4,a3
f800061c:	00d62023          	sw	a3,0(a2)
f8000620:	01490a33          	add	s4,s2,s4
f8000624:	00090413          	mv	s0,s2
f8000628:	ff4a0493          	add	s1,s4,-12
f800062c:	f124fee3          	bgeu	s1,s2,f8000548 <_ZN4talc4talc13Talc$LT$O$GT$6malloc17h15999c4d85dbe88cE+0x360>
f8000630:	41248633          	sub	a2,s1,s2
f8000634:	00b00693          	li	a3,11
f8000638:	f2c6f0e3          	bgeu	a3,a2,f8000558 <_ZN4talc4talc13Talc$LT$O$GT$6malloc17h15999c4d85dbe88cE+0x370>
f800063c:	04000693          	li	a3,64
f8000640:	00d67863          	bgeu	a2,a3,f8000650 <_ZN4talc4talc13Talc$LT$O$GT$6malloc17h15999c4d85dbe88cE+0x468>
f8000644:	ff460693          	add	a3,a2,-12
f8000648:	0026d693          	srl	a3,a3,0x2
f800064c:	0f40006f          	j	f8000740 <_ZN4talc4talc13Talc$LT$O$GT$6malloc17h15999c4d85dbe88cE+0x558>
f8000650:	08000693          	li	a3,128
f8000654:	04d67663          	bgeu	a2,a3,f80006a0 <_ZN4talc4talc13Talc$LT$O$GT$6malloc17h15999c4d85dbe88cE+0x4b8>
f8000658:	00365693          	srl	a3,a2,0x3
f800065c:	00568693          	add	a3,a3,5
f8000660:	0e00006f          	j	f8000740 <_ZN4talc4talc13Talc$LT$O$GT$6malloc17h15999c4d85dbe88cE+0x558>
f8000664:	02000713          	li	a4,32
f8000668:	00400613          	li	a2,4
f800066c:	00e6e463          	bltu	a3,a4,f8000674 <_ZN4talc4talc13Talc$LT$O$GT$6malloc17h15999c4d85dbe88cE+0x48c>
f8000670:	00800613          	li	a2,8
f8000674:	00002737          	lui	a4,0x2
f8000678:	71070713          	add	a4,a4,1808 # 2710 <_ZN10alloc_sgfx9ALLOCATOR17h5b9277964cab8dfbE>
f800067c:	00c70633          	add	a2,a4,a2
f8000680:	00062703          	lw	a4,0(a2)
f8000684:	00100793          	li	a5,1
f8000688:	00d796b3          	sll	a3,a5,a3
f800068c:	00d746b3          	xor	a3,a4,a3
f8000690:	00d62023          	sw	a3,0(a2)
f8000694:	ff4a0493          	add	s1,s4,-12
f8000698:	f884ece3          	bltu	s1,s0,f8000630 <_ZN4talc4talc13Talc$LT$O$GT$6malloc17h15999c4d85dbe88cE+0x448>
f800069c:	eadff06f          	j	f8000548 <_ZN4talc4talc13Talc$LT$O$GT$6malloc17h15999c4d85dbe88cE+0x360>
f80006a0:	00165693          	srl	a3,a2,0x1
f80006a4:	00d666b3          	or	a3,a2,a3
f80006a8:	0026d713          	srl	a4,a3,0x2
f80006ac:	00e6e6b3          	or	a3,a3,a4
f80006b0:	0046d713          	srl	a4,a3,0x4
f80006b4:	00e6e6b3          	or	a3,a3,a4
f80006b8:	0086d713          	srl	a4,a3,0x8
f80006bc:	00e6e6b3          	or	a3,a3,a4
f80006c0:	0106d713          	srl	a4,a3,0x10
f80006c4:	00e6e6b3          	or	a3,a3,a4
f80006c8:	fff6c693          	not	a3,a3
f80006cc:	0016d713          	srl	a4,a3,0x1
f80006d0:	555557b7          	lui	a5,0x55555
f80006d4:	55578793          	add	a5,a5,1365 # 55555555 <__stack_ptr+0x4d555555>
f80006d8:	00f77733          	and	a4,a4,a5
f80006dc:	40e686b3          	sub	a3,a3,a4
f80006e0:	33333737          	lui	a4,0x33333
f80006e4:	33370713          	add	a4,a4,819 # 33333333 <__stack_ptr+0x2b333333>
f80006e8:	00e6f7b3          	and	a5,a3,a4
f80006ec:	0026d693          	srl	a3,a3,0x2
f80006f0:	00e6f6b3          	and	a3,a3,a4
f80006f4:	00d786b3          	add	a3,a5,a3
f80006f8:	0046d713          	srl	a4,a3,0x4
f80006fc:	00e686b3          	add	a3,a3,a4
f8000700:	0f0f1737          	lui	a4,0xf0f1
f8000704:	f0f70713          	add	a4,a4,-241 # f0f0f0f <__stack_ptr+0x70f0f0f>
f8000708:	00e6f6b3          	and	a3,a3,a4
f800070c:	01010737          	lui	a4,0x1010
f8000710:	10170713          	add	a4,a4,257 # 1010101 <__rust_no_alloc_shim_is_unstable+0x100d9e0>
f8000714:	02e686b3          	mul	a3,a3,a4
f8000718:	0186d693          	srl	a3,a3,0x18
f800071c:	01e00713          	li	a4,30
f8000720:	40d70733          	sub	a4,a4,a3
f8000724:	00e65733          	srl	a4,a2,a4
f8000728:	00169693          	sll	a3,a3,0x1
f800072c:	40d70733          	sub	a4,a4,a3
f8000730:	04370693          	add	a3,a4,67
f8000734:	03f00713          	li	a4,63
f8000738:	00e6e463          	bltu	a3,a4,f8000740 <_ZN4talc4talc13Talc$LT$O$GT$6malloc17h15999c4d85dbe88cE+0x558>
f800073c:	03f00693          	li	a3,63
f8000740:	00269713          	sll	a4,a3,0x2
f8000744:	00e50533          	add	a0,a0,a4
f8000748:	00052703          	lw	a4,0(a0)
f800074c:	00070c63          	beqz	a4,f8000764 <_ZN4talc4talc13Talc$LT$O$GT$6malloc17h15999c4d85dbe88cE+0x57c>
f8000750:	00e92023          	sw	a4,0(s2)
f8000754:	00a92223          	sw	a0,4(s2)
f8000758:	01252023          	sw	s2,0(a0)
f800075c:	00470513          	add	a0,a4,4
f8000760:	0380006f          	j	f8000798 <_ZN4talc4talc13Talc$LT$O$GT$6malloc17h15999c4d85dbe88cE+0x5b0>
f8000764:	0206b713          	sltiu	a4,a3,32
f8000768:	00174713          	xor	a4,a4,1
f800076c:	00271713          	sll	a4,a4,0x2
f8000770:	000027b7          	lui	a5,0x2
f8000774:	71078793          	add	a5,a5,1808 # 2710 <_ZN10alloc_sgfx9ALLOCATOR17h5b9277964cab8dfbE>
f8000778:	00e78733          	add	a4,a5,a4
f800077c:	00472783          	lw	a5,4(a4)
f8000780:	00100813          	li	a6,1
f8000784:	00d816b3          	sll	a3,a6,a3
f8000788:	00d7c6b3          	xor	a3,a5,a3
f800078c:	00d72223          	sw	a3,4(a4)
f8000790:	00092023          	sw	zero,0(s2)
f8000794:	00a92223          	sw	a0,4(s2)
f8000798:	01252023          	sw	s2,0(a0)
f800079c:	00c92423          	sw	a2,8(s2)
f80007a0:	fec4ae23          	sw	a2,-4(s1)
f80007a4:	00b40533          	add	a0,s0,a1
f80007a8:	00000097          	auipc	ra,0x0
f80007ac:	670080e7          	jalr	1648(ra) # f8000e18 <_ZN4talc9ptr_utils8align_up17hbd98fbe2bbec35b3E>
f80007b0:	00848993          	add	s3,s1,8
f80007b4:	00050913          	mv	s2,a0
f80007b8:	01356463          	bltu	a0,s3,f80007c0 <_ZN4talc4talc13Talc$LT$O$GT$6malloc17h15999c4d85dbe88cE+0x5d8>
f80007bc:	00090993          	mv	s3,s2
f80007c0:	00498593          	add	a1,s3,4
f80007c4:	40ba0533          	sub	a0,s4,a1
f80007c8:	00b00613          	li	a2,11
f80007cc:	00a67c63          	bgeu	a2,a0,f80007e4 <_ZN4talc4talc13Talc$LT$O$GT$6malloc17h15999c4d85dbe88cE+0x5fc>
f80007d0:	04000613          	li	a2,64
f80007d4:	02c57863          	bgeu	a0,a2,f8000804 <_ZN4talc4talc13Talc$LT$O$GT$6malloc17h15999c4d85dbe88cE+0x61c>
f80007d8:	ff450613          	add	a2,a0,-12
f80007dc:	00265613          	srl	a2,a2,0x2
f80007e0:	0d80006f          	j	f80008b8 <_ZN4talc4talc13Talc$LT$O$GT$6malloc17h15999c4d85dbe88cE+0x6d0>
f80007e4:	ffca0993          	add	s3,s4,-4
f80007e8:	00098513          	mv	a0,s3
f80007ec:	00048593          	mv	a1,s1
f80007f0:	00000613          	li	a2,0
f80007f4:	00000097          	auipc	ra,0x0
f80007f8:	630080e7          	jalr	1584(ra) # f8000e24 <_ZN4talc4talc3tag3Tag5write17h9fe4bed10d7f8e6aE>
f80007fc:	13299e63          	bne	s3,s2,f8000938 <_ZN4talc4talc13Talc$LT$O$GT$6malloc17h15999c4d85dbe88cE+0x750>
f8000800:	13c0006f          	j	f800093c <_ZN4talc4talc13Talc$LT$O$GT$6malloc17h15999c4d85dbe88cE+0x754>
f8000804:	08000613          	li	a2,128
f8000808:	00c57863          	bgeu	a0,a2,f8000818 <_ZN4talc4talc13Talc$LT$O$GT$6malloc17h15999c4d85dbe88cE+0x630>
f800080c:	00355613          	srl	a2,a0,0x3
f8000810:	00560613          	add	a2,a2,5
f8000814:	0a40006f          	j	f80008b8 <_ZN4talc4talc13Talc$LT$O$GT$6malloc17h15999c4d85dbe88cE+0x6d0>
f8000818:	00155613          	srl	a2,a0,0x1
f800081c:	00c56633          	or	a2,a0,a2
f8000820:	00265693          	srl	a3,a2,0x2
f8000824:	00d66633          	or	a2,a2,a3
f8000828:	00465693          	srl	a3,a2,0x4
f800082c:	00d66633          	or	a2,a2,a3
f8000830:	00865693          	srl	a3,a2,0x8
f8000834:	00d66633          	or	a2,a2,a3
f8000838:	01065693          	srl	a3,a2,0x10
f800083c:	00d66633          	or	a2,a2,a3
f8000840:	fff64613          	not	a2,a2
f8000844:	00165693          	srl	a3,a2,0x1
f8000848:	55555737          	lui	a4,0x55555
f800084c:	55570713          	add	a4,a4,1365 # 55555555 <__stack_ptr+0x4d555555>
f8000850:	00e6f6b3          	and	a3,a3,a4
f8000854:	40d60633          	sub	a2,a2,a3
f8000858:	333336b7          	lui	a3,0x33333
f800085c:	33368693          	add	a3,a3,819 # 33333333 <__stack_ptr+0x2b333333>
f8000860:	00d67733          	and	a4,a2,a3
f8000864:	00265613          	srl	a2,a2,0x2
f8000868:	00d67633          	and	a2,a2,a3
f800086c:	00c70633          	add	a2,a4,a2
f8000870:	00465693          	srl	a3,a2,0x4
f8000874:	00d60633          	add	a2,a2,a3
f8000878:	0f0f16b7          	lui	a3,0xf0f1
f800087c:	f0f68693          	add	a3,a3,-241 # f0f0f0f <__stack_ptr+0x70f0f0f>
f8000880:	00d67633          	and	a2,a2,a3
f8000884:	010106b7          	lui	a3,0x1010
f8000888:	10168693          	add	a3,a3,257 # 1010101 <__rust_no_alloc_shim_is_unstable+0x100d9e0>
f800088c:	02d60633          	mul	a2,a2,a3
f8000890:	01865613          	srl	a2,a2,0x18
f8000894:	01e00693          	li	a3,30
f8000898:	40c686b3          	sub	a3,a3,a2
f800089c:	00d556b3          	srl	a3,a0,a3
f80008a0:	00161613          	sll	a2,a2,0x1
f80008a4:	40c686b3          	sub	a3,a3,a2
f80008a8:	04368613          	add	a2,a3,67
f80008ac:	03f00693          	li	a3,63
f80008b0:	00d66463          	bltu	a2,a3,f80008b8 <_ZN4talc4talc13Talc$LT$O$GT$6malloc17h15999c4d85dbe88cE+0x6d0>
f80008b4:	03f00613          	li	a2,63
f80008b8:	000026b7          	lui	a3,0x2
f80008bc:	71068713          	add	a4,a3,1808 # 2710 <_ZN10alloc_sgfx9ALLOCATOR17h5b9277964cab8dfbE>
f80008c0:	00c72683          	lw	a3,12(a4)
f80008c4:	00261793          	sll	a5,a2,0x2
f80008c8:	00f686b3          	add	a3,a3,a5
f80008cc:	0006a783          	lw	a5,0(a3)
f80008d0:	00078c63          	beqz	a5,f80008e8 <_ZN4talc4talc13Talc$LT$O$GT$6malloc17h15999c4d85dbe88cE+0x700>
f80008d4:	00f9a223          	sw	a5,4(s3)
f80008d8:	00d9a423          	sw	a3,8(s3)
f80008dc:	00b6a023          	sw	a1,0(a3)
f80008e0:	00478693          	add	a3,a5,4
f80008e4:	0300006f          	j	f8000914 <_ZN4talc4talc13Talc$LT$O$GT$6malloc17h15999c4d85dbe88cE+0x72c>
f80008e8:	02063793          	sltiu	a5,a2,32
f80008ec:	0017c793          	xor	a5,a5,1
f80008f0:	00279793          	sll	a5,a5,0x2
f80008f4:	00f70733          	add	a4,a4,a5
f80008f8:	00472783          	lw	a5,4(a4)
f80008fc:	00100813          	li	a6,1
f8000900:	00c81633          	sll	a2,a6,a2
f8000904:	00c7c633          	xor	a2,a5,a2
f8000908:	00c72223          	sw	a2,4(a4)
f800090c:	0009a223          	sw	zero,4(s3)
f8000910:	00d9a423          	sw	a3,8(s3)
f8000914:	00b6a023          	sw	a1,0(a3)
f8000918:	00a9a623          	sw	a0,12(s3)
f800091c:	feaa2e23          	sw	a0,-4(s4)
f8000920:	00100613          	li	a2,1
f8000924:	00098513          	mv	a0,s3
f8000928:	00048593          	mv	a1,s1
f800092c:	00000097          	auipc	ra,0x0
f8000930:	4f8080e7          	jalr	1272(ra) # f8000e24 <_ZN4talc4talc3tag3Tag5write17h9fe4bed10d7f8e6aE>
f8000934:	01298463          	beq	s3,s2,f800093c <_ZN4talc4talc13Talc$LT$O$GT$6malloc17h15999c4d85dbe88cE+0x754>
f8000938:	01392023          	sw	s3,0(s2)
f800093c:	00040513          	mv	a0,s0
f8000940:	01c12083          	lw	ra,28(sp)
f8000944:	01812403          	lw	s0,24(sp)
f8000948:	01412483          	lw	s1,20(sp)
f800094c:	01012903          	lw	s2,16(sp)
f8000950:	00c12983          	lw	s3,12(sp)
f8000954:	00812a03          	lw	s4,8(sp)
f8000958:	02010113          	add	sp,sp,32
f800095c:	00008067          	ret

f8000960 <_ZN67_$LT$alloc..boxed..Box$LT$T$C$A$GT$$u20$as$u20$core..fmt..Debug$GT$3fmt17hc972d613cf6d9956E>:
f8000960:	01c5a603          	lw	a2,28(a1)
f8000964:	00052503          	lw	a0,0(a0)
f8000968:	01067693          	and	a3,a2,16
f800096c:	00069a63          	bnez	a3,f8000980 <_ZN67_$LT$alloc..boxed..Box$LT$T$C$A$GT$$u20$as$u20$core..fmt..Debug$GT$3fmt17hc972d613cf6d9956E+0x20>
f8000970:	02067613          	and	a2,a2,32
f8000974:	00061a63          	bnez	a2,f8000988 <_ZN67_$LT$alloc..boxed..Box$LT$T$C$A$GT$$u20$as$u20$core..fmt..Debug$GT$3fmt17hc972d613cf6d9956E+0x28>
f8000978:	00001317          	auipc	t1,0x1
f800097c:	73030067          	jr	1840(t1) # f80020a8 <_ZN4core3fmt3num3imp52_$LT$impl$u20$core..fmt..Display$u20$for$u20$i32$GT$3fmt17h300d7f916ccb12a3E>
f8000980:	00001317          	auipc	t1,0x1
f8000984:	85030067          	jr	-1968(t1) # f80011d0 <_ZN4core3fmt3num53_$LT$impl$u20$core..fmt..LowerHex$u20$for$u20$i32$GT$3fmt17hcaca47692013dc82E>
f8000988:	00001317          	auipc	t1,0x1
f800098c:	8dc30067          	jr	-1828(t1) # f8001264 <_ZN4core3fmt3num53_$LT$impl$u20$core..fmt..UpperHex$u20$for$u20$i32$GT$3fmt17h758341d2b012440bE>

f8000990 <main>:
f8000990:	fc010113          	add	sp,sp,-64
f8000994:	02112e23          	sw	ra,60(sp)
f8000998:	02812c23          	sw	s0,56(sp)
f800099c:	02912a23          	sw	s1,52(sp)
f80009a0:	03212823          	sw	s2,48(sp)
f80009a4:	f8002537          	lui	a0,0xf8002
f80009a8:	20850593          	add	a1,a0,520 # f8002208 <.Lanon.f5f270e712b74926b98f069c093e4b8d.2>
f80009ac:	02f10513          	add	a0,sp,47
f80009b0:	00d00613          	li	a2,13
f80009b4:	00000097          	auipc	ra,0x0
f80009b8:	5f4080e7          	jalr	1524(ra) # f8000fa8 <_ZN70_$LT$rvfm_platform..debug..DebugWriter$u20$as$u20$core..fmt..Write$GT$9write_str17h6a78f9d494d7973cE>
f80009bc:	00000097          	auipc	ra,0x0
f80009c0:	5dc080e7          	jalr	1500(ra) # f8000f98 <_ZN13rvfm_platform5debug5flush17he935f66036446cbbE>
f80009c4:	00002537          	lui	a0,0x2
f80009c8:	71050513          	add	a0,a0,1808 # 2710 <_ZN10alloc_sgfx9ALLOCATOR17h5b9277964cab8dfbE>
f80009cc:	00000097          	auipc	ra,0x0
f80009d0:	5b0080e7          	jalr	1456(ra) # f8000f7c <_ZN93_$LT$rvfm_platform..multihart..spinlock..RawSpinLock$u20$as$u20$lock_api..mutex..RawMutex$GT$4lock17hd71ebc0200b82bbaE>
f80009d4:	00000537          	lui	a0,0x0
f80009d8:	00050493          	mv	s1,a0
f80009dc:	ffb00513          	li	a0,-5
f80009e0:	3e956c63          	bltu	a0,s1,f8000dd8 <main+0x448>
f80009e4:	00048513          	mv	a0,s1
f80009e8:	00000097          	auipc	ra,0x0
f80009ec:	430080e7          	jalr	1072(ra) # f8000e18 <_ZN4talc9ptr_utils8align_up17hbd98fbe2bbec35b3E>
f80009f0:	00050413          	mv	s0,a0
f80009f4:	00002537          	lui	a0,0x2
f80009f8:	71050513          	add	a0,a0,1808 # 2710 <_ZN10alloc_sgfx9ALLOCATOR17h5b9277964cab8dfbE>
f80009fc:	00a48533          	add	a0,s1,a0
f8000a00:	00000097          	auipc	ra,0x0
f8000a04:	43c080e7          	jalr	1084(ra) # f8000e3c <_ZN4talc4talc3tag3Tag10chunk_base17hdfd97766eced6424E>
f8000a08:	3ca47863          	bgeu	s0,a0,f8000dd8 <main+0x448>
f8000a0c:	00050493          	mv	s1,a0
f8000a10:	00002537          	lui	a0,0x2
f8000a14:	71c52583          	lw	a1,1820(a0) # 271c <_ZN10alloc_sgfx9ALLOCATOR17h5b9277964cab8dfbE+0xc>
f8000a18:	40848533          	sub	a0,s1,s0
f8000a1c:	02058e63          	beqz	a1,f8000a58 <main+0xc8>
f8000a20:	00f00593          	li	a1,15
f8000a24:	3aa5fa63          	bgeu	a1,a0,f8000dd8 <main+0x448>
f8000a28:	00100613          	li	a2,1
f8000a2c:	00040513          	mv	a0,s0
f8000a30:	00000593          	li	a1,0
f8000a34:	00000097          	auipc	ra,0x0
f8000a38:	3f0080e7          	jalr	1008(ra) # f8000e24 <_ZN4talc4talc3tag3Tag5write17h9fe4bed10d7f8e6aE>
f8000a3c:	00440593          	add	a1,s0,4
f8000a40:	40b48533          	sub	a0,s1,a1
f8000a44:	04000613          	li	a2,64
f8000a48:	06c57a63          	bgeu	a0,a2,f8000abc <main+0x12c>
f8000a4c:	ff450613          	add	a2,a0,-12
f8000a50:	00265613          	srl	a2,a2,0x2
f8000a54:	1380006f          	j	f8000b8c <main+0x1fc>
f8000a58:	10700593          	li	a1,263
f8000a5c:	36a5fe63          	bgeu	a1,a0,f8000dd8 <main+0x448>
f8000a60:	00040513          	mv	a0,s0
f8000a64:	00000593          	li	a1,0
f8000a68:	00000613          	li	a2,0
f8000a6c:	00000097          	auipc	ra,0x0
f8000a70:	3b8080e7          	jalr	952(ra) # f8000e24 <_ZN4talc4talc3tag3Tag5write17h9fe4bed10d7f8e6aE>
f8000a74:	00440913          	add	s2,s0,4
f8000a78:	10000613          	li	a2,256
f8000a7c:	00090513          	mv	a0,s2
f8000a80:	00000593          	li	a1,0
f8000a84:	00001097          	auipc	ra,0x1
f8000a88:	6c4080e7          	jalr	1732(ra) # f8002148 <memset>
f8000a8c:	10440513          	add	a0,s0,260
f8000a90:	000026b7          	lui	a3,0x2
f8000a94:	10840613          	add	a2,s0,264
f8000a98:	40c485b3          	sub	a1,s1,a2
f8000a9c:	00b00713          	li	a4,11
f8000aa0:	7126ae23          	sw	s2,1820(a3) # 271c <_ZN10alloc_sgfx9ALLOCATOR17h5b9277964cab8dfbE+0xc>
f8000aa4:	02b77663          	bgeu	a4,a1,f8000ad0 <main+0x140>
f8000aa8:	04000693          	li	a3,64
f8000aac:	14d5f663          	bgeu	a1,a3,f8000bf8 <main+0x268>
f8000ab0:	ff458693          	add	a3,a1,-12
f8000ab4:	0026d693          	srl	a3,a3,0x2
f8000ab8:	1f40006f          	j	f8000cac <main+0x31c>
f8000abc:	08000613          	li	a2,128
f8000ac0:	02c57663          	bgeu	a0,a2,f8000aec <main+0x15c>
f8000ac4:	00355613          	srl	a2,a0,0x3
f8000ac8:	00560613          	add	a2,a2,5
f8000acc:	0c00006f          	j	f8000b8c <main+0x1fc>
f8000ad0:	ffc48493          	add	s1,s1,-4
f8000ad4:	00a48463          	beq	s1,a0,f8000adc <main+0x14c>
f8000ad8:	00952023          	sw	s1,0(a0)
f8000adc:	00048513          	mv	a0,s1
f8000ae0:	00040593          	mv	a1,s0
f8000ae4:	00000613          	li	a2,0
f8000ae8:	2300006f          	j	f8000d18 <main+0x388>
f8000aec:	00155613          	srl	a2,a0,0x1
f8000af0:	00c56633          	or	a2,a0,a2
f8000af4:	00265693          	srl	a3,a2,0x2
f8000af8:	00d66633          	or	a2,a2,a3
f8000afc:	00465693          	srl	a3,a2,0x4
f8000b00:	00d66633          	or	a2,a2,a3
f8000b04:	00865693          	srl	a3,a2,0x8
f8000b08:	00d66633          	or	a2,a2,a3
f8000b0c:	01065693          	srl	a3,a2,0x10
f8000b10:	00d66633          	or	a2,a2,a3
f8000b14:	fff64613          	not	a2,a2
f8000b18:	00165693          	srl	a3,a2,0x1
f8000b1c:	55555737          	lui	a4,0x55555
f8000b20:	55570713          	add	a4,a4,1365 # 55555555 <__stack_ptr+0x4d555555>
f8000b24:	00e6f6b3          	and	a3,a3,a4
f8000b28:	40d60633          	sub	a2,a2,a3
f8000b2c:	333336b7          	lui	a3,0x33333
f8000b30:	33368693          	add	a3,a3,819 # 33333333 <__stack_ptr+0x2b333333>
f8000b34:	00d67733          	and	a4,a2,a3
f8000b38:	00265613          	srl	a2,a2,0x2
f8000b3c:	00d67633          	and	a2,a2,a3
f8000b40:	00c70633          	add	a2,a4,a2
f8000b44:	00465693          	srl	a3,a2,0x4
f8000b48:	00d60633          	add	a2,a2,a3
f8000b4c:	0f0f16b7          	lui	a3,0xf0f1
f8000b50:	f0f68693          	add	a3,a3,-241 # f0f0f0f <__stack_ptr+0x70f0f0f>
f8000b54:	00d67633          	and	a2,a2,a3
f8000b58:	010106b7          	lui	a3,0x1010
f8000b5c:	10168693          	add	a3,a3,257 # 1010101 <__rust_no_alloc_shim_is_unstable+0x100d9e0>
f8000b60:	02d60633          	mul	a2,a2,a3
f8000b64:	01865613          	srl	a2,a2,0x18
f8000b68:	01e00693          	li	a3,30
f8000b6c:	40c686b3          	sub	a3,a3,a2
f8000b70:	00d556b3          	srl	a3,a0,a3
f8000b74:	00161613          	sll	a2,a2,0x1
f8000b78:	40c686b3          	sub	a3,a3,a2
f8000b7c:	04368613          	add	a2,a3,67
f8000b80:	03f00693          	li	a3,63
f8000b84:	00d66463          	bltu	a2,a3,f8000b8c <main+0x1fc>
f8000b88:	03f00613          	li	a2,63
f8000b8c:	000026b7          	lui	a3,0x2
f8000b90:	71068713          	add	a4,a3,1808 # 2710 <_ZN10alloc_sgfx9ALLOCATOR17h5b9277964cab8dfbE>
f8000b94:	00c72683          	lw	a3,12(a4)
f8000b98:	00261793          	sll	a5,a2,0x2
f8000b9c:	00f686b3          	add	a3,a3,a5
f8000ba0:	0006a783          	lw	a5,0(a3)
f8000ba4:	00078c63          	beqz	a5,f8000bbc <main+0x22c>
f8000ba8:	00f42223          	sw	a5,4(s0)
f8000bac:	00d42423          	sw	a3,8(s0)
f8000bb0:	00b6a023          	sw	a1,0(a3)
f8000bb4:	00478693          	add	a3,a5,4
f8000bb8:	0300006f          	j	f8000be8 <main+0x258>
f8000bbc:	02063793          	sltiu	a5,a2,32
f8000bc0:	0017c793          	xor	a5,a5,1
f8000bc4:	00279793          	sll	a5,a5,0x2
f8000bc8:	00f70733          	add	a4,a4,a5
f8000bcc:	00472783          	lw	a5,4(a4)
f8000bd0:	00100813          	li	a6,1
f8000bd4:	00c81633          	sll	a2,a6,a2
f8000bd8:	00c7c633          	xor	a2,a5,a2
f8000bdc:	00c72223          	sw	a2,4(a4)
f8000be0:	00042223          	sw	zero,4(s0)
f8000be4:	00d42423          	sw	a3,8(s0)
f8000be8:	00b6a023          	sw	a1,0(a3)
f8000bec:	00a42623          	sw	a0,12(s0)
f8000bf0:	fea4ae23          	sw	a0,-4(s1)
f8000bf4:	12c0006f          	j	f8000d20 <main+0x390>
f8000bf8:	08000693          	li	a3,128
f8000bfc:	00d5f863          	bgeu	a1,a3,f8000c0c <main+0x27c>
f8000c00:	0035d693          	srl	a3,a1,0x3
f8000c04:	00568693          	add	a3,a3,5
f8000c08:	0a40006f          	j	f8000cac <main+0x31c>
f8000c0c:	0015d693          	srl	a3,a1,0x1
f8000c10:	00d5e6b3          	or	a3,a1,a3
f8000c14:	0026d713          	srl	a4,a3,0x2
f8000c18:	00e6e6b3          	or	a3,a3,a4
f8000c1c:	0046d713          	srl	a4,a3,0x4
f8000c20:	00e6e6b3          	or	a3,a3,a4
f8000c24:	0086d713          	srl	a4,a3,0x8
f8000c28:	00e6e6b3          	or	a3,a3,a4
f8000c2c:	0106d713          	srl	a4,a3,0x10
f8000c30:	00e6e6b3          	or	a3,a3,a4
f8000c34:	fff6c693          	not	a3,a3
f8000c38:	0016d713          	srl	a4,a3,0x1
f8000c3c:	555557b7          	lui	a5,0x55555
f8000c40:	55578793          	add	a5,a5,1365 # 55555555 <__stack_ptr+0x4d555555>
f8000c44:	00f77733          	and	a4,a4,a5
f8000c48:	40e686b3          	sub	a3,a3,a4
f8000c4c:	33333737          	lui	a4,0x33333
f8000c50:	33370713          	add	a4,a4,819 # 33333333 <__stack_ptr+0x2b333333>
f8000c54:	00e6f7b3          	and	a5,a3,a4
f8000c58:	0026d693          	srl	a3,a3,0x2
f8000c5c:	00e6f6b3          	and	a3,a3,a4
f8000c60:	00d786b3          	add	a3,a5,a3
f8000c64:	0046d713          	srl	a4,a3,0x4
f8000c68:	00e686b3          	add	a3,a3,a4
f8000c6c:	0f0f1737          	lui	a4,0xf0f1
f8000c70:	f0f70713          	add	a4,a4,-241 # f0f0f0f <__stack_ptr+0x70f0f0f>
f8000c74:	00e6f6b3          	and	a3,a3,a4
f8000c78:	01010737          	lui	a4,0x1010
f8000c7c:	10170713          	add	a4,a4,257 # 1010101 <__rust_no_alloc_shim_is_unstable+0x100d9e0>
f8000c80:	02e686b3          	mul	a3,a3,a4
f8000c84:	0186d693          	srl	a3,a3,0x18
f8000c88:	01e00713          	li	a4,30
f8000c8c:	40d70733          	sub	a4,a4,a3
f8000c90:	00e5d733          	srl	a4,a1,a4
f8000c94:	00169693          	sll	a3,a3,0x1
f8000c98:	40d70733          	sub	a4,a4,a3
f8000c9c:	04370693          	add	a3,a4,67
f8000ca0:	03f00713          	li	a4,63
f8000ca4:	00e6e463          	bltu	a3,a4,f8000cac <main+0x31c>
f8000ca8:	03f00693          	li	a3,63
f8000cac:	00269713          	sll	a4,a3,0x2
f8000cb0:	00e90933          	add	s2,s2,a4
f8000cb4:	00092703          	lw	a4,0(s2)
f8000cb8:	00070c63          	beqz	a4,f8000cd0 <main+0x340>
f8000cbc:	10e42423          	sw	a4,264(s0)
f8000cc0:	11242623          	sw	s2,268(s0)
f8000cc4:	00c92023          	sw	a2,0(s2)
f8000cc8:	00470913          	add	s2,a4,4
f8000ccc:	0380006f          	j	f8000d04 <main+0x374>
f8000cd0:	0206b713          	sltiu	a4,a3,32
f8000cd4:	00174713          	xor	a4,a4,1
f8000cd8:	00271713          	sll	a4,a4,0x2
f8000cdc:	000027b7          	lui	a5,0x2
f8000ce0:	71078793          	add	a5,a5,1808 # 2710 <_ZN10alloc_sgfx9ALLOCATOR17h5b9277964cab8dfbE>
f8000ce4:	00e78733          	add	a4,a5,a4
f8000ce8:	00472783          	lw	a5,4(a4)
f8000cec:	00100813          	li	a6,1
f8000cf0:	00d816b3          	sll	a3,a6,a3
f8000cf4:	00d7c6b3          	xor	a3,a5,a3
f8000cf8:	00d72223          	sw	a3,4(a4)
f8000cfc:	10042423          	sw	zero,264(s0)
f8000d00:	11242623          	sw	s2,268(s0)
f8000d04:	00c92023          	sw	a2,0(s2)
f8000d08:	10b42823          	sw	a1,272(s0)
f8000d0c:	feb4ae23          	sw	a1,-4(s1)
f8000d10:	00100613          	li	a2,1
f8000d14:	00040593          	mv	a1,s0
f8000d18:	00000097          	auipc	ra,0x0
f8000d1c:	10c080e7          	jalr	268(ra) # f8000e24 <_ZN4talc4talc3tag3Tag5write17h9fe4bed10d7f8e6aE>
f8000d20:	00002537          	lui	a0,0x2
f8000d24:	71050493          	add	s1,a0,1808 # 2710 <_ZN10alloc_sgfx9ALLOCATOR17h5b9277964cab8dfbE>
f8000d28:	00048513          	mv	a0,s1
f8000d2c:	00000097          	auipc	ra,0x0
f8000d30:	260080e7          	jalr	608(ra) # f8000f8c <_ZN93_$LT$rvfm_platform..multihart..spinlock..RawSpinLock$u20$as$u20$lock_api..mutex..RawMutex$GT$6unlock17h6f2b33a45e66a808E>
f8000d34:	00002537          	lui	a0,0x2
f8000d38:	72154003          	lbu	zero,1825(a0) # 2721 <__rust_no_alloc_shim_is_unstable>
f8000d3c:	00048513          	mv	a0,s1
f8000d40:	00000097          	auipc	ra,0x0
f8000d44:	23c080e7          	jalr	572(ra) # f8000f7c <_ZN93_$LT$rvfm_platform..multihart..spinlock..RawSpinLock$u20$as$u20$lock_api..mutex..RawMutex$GT$4lock17hd71ebc0200b82bbaE>
f8000d48:	00400513          	li	a0,4
f8000d4c:	00400593          	li	a1,4
f8000d50:	fffff097          	auipc	ra,0xfffff
f8000d54:	498080e7          	jalr	1176(ra) # f80001e8 <_ZN4talc4talc13Talc$LT$O$GT$6malloc17h15999c4d85dbe88cE>
f8000d58:	00050413          	mv	s0,a0
f8000d5c:	00048513          	mv	a0,s1
f8000d60:	00000097          	auipc	ra,0x0
f8000d64:	22c080e7          	jalr	556(ra) # f8000f8c <_ZN93_$LT$rvfm_platform..multihart..spinlock..RawSpinLock$u20$as$u20$lock_api..mutex..RawMutex$GT$6unlock17h6f2b33a45e66a808E>
f8000d68:	08040c63          	beqz	s0,f8000e00 <main+0x470>
f8000d6c:	00812423          	sw	s0,8(sp)
f8000d70:	00300513          	li	a0,3
f8000d74:	00a42023          	sw	a0,0(s0)
f8000d78:	00810513          	add	a0,sp,8
f8000d7c:	02a12223          	sw	a0,36(sp)
f8000d80:	f8001537          	lui	a0,0xf8001
f8000d84:	96050513          	add	a0,a0,-1696 # f8000960 <_ZN67_$LT$alloc..boxed..Box$LT$T$C$A$GT$$u20$as$u20$core..fmt..Debug$GT$3fmt17hc972d613cf6d9956E>
f8000d88:	02a12423          	sw	a0,40(sp)
f8000d8c:	f8002537          	lui	a0,0xf8002
f8000d90:	21c50513          	add	a0,a0,540 # f800221c <.Lanon.f5f270e712b74926b98f069c093e4b8d.4>
f8000d94:	00a12623          	sw	a0,12(sp)
f8000d98:	00100513          	li	a0,1
f8000d9c:	00a12823          	sw	a0,16(sp)
f8000da0:	00012e23          	sw	zero,28(sp)
f8000da4:	02410593          	add	a1,sp,36
f8000da8:	00b12a23          	sw	a1,20(sp)
f8000dac:	00a12c23          	sw	a0,24(sp)
f8000db0:	f8002537          	lui	a0,0xf8002
f8000db4:	1f050593          	add	a1,a0,496 # f80021f0 <.Lanon.f5f270e712b74926b98f069c093e4b8d.1>
f8000db8:	02f10513          	add	a0,sp,47
f8000dbc:	00c10613          	add	a2,sp,12
f8000dc0:	00000097          	auipc	ra,0x0
f8000dc4:	538080e7          	jalr	1336(ra) # f80012f8 <_ZN4core3fmt5write17hb8db08122a7bc793E>
f8000dc8:	00000097          	auipc	ra,0x0
f8000dcc:	1d0080e7          	jalr	464(ra) # f8000f98 <_ZN13rvfm_platform5debug5flush17he935f66036446cbbE>
f8000dd0:	10500073          	wfi
f8000dd4:	ffdff06f          	j	f8000dd0 <main+0x440>
f8000dd8:	f8002537          	lui	a0,0xf8002
f8000ddc:	23450513          	add	a0,a0,564 # f8002234 <.Lanon.f5f270e712b74926b98f069c093e4b8d.6>
f8000de0:	f80025b7          	lui	a1,0xf8002
f8000de4:	22458693          	add	a3,a1,548 # f8002224 <.Lanon.f5f270e712b74926b98f069c093e4b8d.5>
f8000de8:	f80025b7          	lui	a1,0xf8002
f8000dec:	26c58713          	add	a4,a1,620 # f800226c <.Lanon.f5f270e712b74926b98f069c093e4b8d.8>
f8000df0:	02b00593          	li	a1,43
f8000df4:	02f10613          	add	a2,sp,47
f8000df8:	00001097          	auipc	ra,0x1
f8000dfc:	e98080e7          	jalr	-360(ra) # f8001c90 <_ZN4core6result13unwrap_failed17h833a772dbeb66d36E>
f8000e00:	00400513          	li	a0,4
f8000e04:	00400593          	li	a1,4
f8000e08:	00000097          	auipc	ra,0x0
f8000e0c:	3b4080e7          	jalr	948(ra) # f80011bc <_ZN5alloc5alloc18handle_alloc_error17h882985191c618f0aE>

f8000e10 <__rust_alloc_error_handler>:
f8000e10:	00000317          	auipc	t1,0x0
f8000e14:	2fc30067          	jr	764(t1) # f800110c <__rdl_oom>

f8000e18 <_ZN4talc9ptr_utils8align_up17hbd98fbe2bbec35b3E>:
f8000e18:	00350513          	add	a0,a0,3
f8000e1c:	ffc57513          	and	a0,a0,-4
f8000e20:	00008067          	ret

f8000e24 <_ZN4talc4talc3tag3Tag5write17h9fe4bed10d7f8e6aE>:
f8000e24:	00300693          	li	a3,3
f8000e28:	00061463          	bnez	a2,f8000e30 <_ZN4talc4talc3tag3Tag5write17h9fe4bed10d7f8e6aE+0xc>
f8000e2c:	00100693          	li	a3,1
f8000e30:	00d585b3          	add	a1,a1,a3
f8000e34:	00b52023          	sw	a1,0(a0)
f8000e38:	00008067          	ret

f8000e3c <_ZN4talc4talc3tag3Tag10chunk_base17hdfd97766eced6424E>:
f8000e3c:	ffc57513          	and	a0,a0,-4
f8000e40:	00008067          	ret

f8000e44 <_ZN4talc4talc3tag3Tag16clear_above_free17hf37c9259bf9e992aE>:
f8000e44:	00052583          	lw	a1,0(a0)
f8000e48:	ffe58593          	add	a1,a1,-2
f8000e4c:	00b52023          	sw	a1,0(a0)
f8000e50:	00008067          	ret

f8000e54 <_ZN44_$LT$$RF$T$u20$as$u20$core..fmt..Display$GT$3fmt17h6a0d8917716202cdE>:
f8000e54:	00052603          	lw	a2,0(a0)
f8000e58:	00452683          	lw	a3,4(a0)
f8000e5c:	00058713          	mv	a4,a1
f8000e60:	00060513          	mv	a0,a2
f8000e64:	00068593          	mv	a1,a3
f8000e68:	00070613          	mv	a2,a4
f8000e6c:	00001317          	auipc	t1,0x1
f8000e70:	d4c30067          	jr	-692(t1) # f8001bb8 <_ZN42_$LT$str$u20$as$u20$core..fmt..Display$GT$3fmt17he3550b0d21ab6340E>

f8000e74 <_ZN4core3fmt5Write10write_char17h40f641524003987bE>:
f8000e74:	00100513          	li	a0,1
f8000e78:	08000693          	li	a3,128
f8000e7c:	00100613          	li	a2,1
f8000e80:	00d5ee63          	bltu	a1,a3,f8000e9c <_ZN4core3fmt5Write10write_char17h40f641524003987bE+0x28>
f8000e84:	00b5d693          	srl	a3,a1,0xb
f8000e88:	00200613          	li	a2,2
f8000e8c:	00068863          	beqz	a3,f8000e9c <_ZN4core3fmt5Write10write_char17h40f641524003987bE+0x28>
f8000e90:	0105d593          	srl	a1,a1,0x10
f8000e94:	00b03633          	snez	a2,a1
f8000e98:	00360613          	add	a2,a2,3
f8000e9c:	ff010113          	add	sp,sp,-16
f8000ea0:	800005b7          	lui	a1,0x80000
f8000ea4:	00c5a223          	sw	a2,4(a1) # 80000004 <__stack_ptr+0x78000004>
f8000ea8:	00c10613          	add	a2,sp,12
f8000eac:	00c5a023          	sw	a2,0(a1)
f8000eb0:	00a5a623          	sw	a0,12(a1)
f8000eb4:	00000513          	li	a0,0
f8000eb8:	01010113          	add	sp,sp,16
f8000ebc:	00008067          	ret

f8000ec0 <_ZN4core3fmt5Write9write_fmt17he90a68ed059ffe48E>:
f8000ec0:	00058613          	mv	a2,a1
f8000ec4:	0045a683          	lw	a3,4(a1)
f8000ec8:	00c5a583          	lw	a1,12(a1)
f8000ecc:	00100713          	li	a4,1
f8000ed0:	00e68a63          	beq	a3,a4,f8000ee4 <_ZN4core3fmt5Write9write_fmt17he90a68ed059ffe48E+0x24>
f8000ed4:	00069a63          	bnez	a3,f8000ee8 <_ZN4core3fmt5Write9write_fmt17he90a68ed059ffe48E+0x28>
f8000ed8:	00059863          	bnez	a1,f8000ee8 <_ZN4core3fmt5Write9write_fmt17he90a68ed059ffe48E+0x28>
f8000edc:	00100513          	li	a0,1
f8000ee0:	0240006f          	j	f8000f04 <_ZN4core3fmt5Write9write_fmt17he90a68ed059ffe48E+0x44>
f8000ee4:	00058a63          	beqz	a1,f8000ef8 <_ZN4core3fmt5Write9write_fmt17he90a68ed059ffe48E+0x38>
f8000ee8:	f80025b7          	lui	a1,0xf8002
f8000eec:	27c58593          	add	a1,a1,636 # f800227c <.Lanon.5ae1b5b85aba88e30b745cf423597d9e.0>
f8000ef0:	00000317          	auipc	t1,0x0
f8000ef4:	40830067          	jr	1032(t1) # f80012f8 <_ZN4core3fmt5write17hb8db08122a7bc793E>
f8000ef8:	00062583          	lw	a1,0(a2)
f8000efc:	0005a503          	lw	a0,0(a1)
f8000f00:	0045a583          	lw	a1,4(a1)
f8000f04:	80000637          	lui	a2,0x80000
f8000f08:	00b62223          	sw	a1,4(a2) # 80000004 <__stack_ptr+0x78000004>
f8000f0c:	00a62023          	sw	a0,0(a2)
f8000f10:	00100513          	li	a0,1
f8000f14:	00a62623          	sw	a0,12(a2)
f8000f18:	00000513          	li	a0,0
f8000f1c:	00008067          	ret

f8000f20 <_ZN74_$LT$core..panic..panic_info..PanicMessage$u20$as$u20$core..fmt..Debug$GT$3fmt17h7a8a232211e5c75eE>:
f8000f20:	00050613          	mv	a2,a0
f8000f24:	0145a503          	lw	a0,20(a1)
f8000f28:	0185a583          	lw	a1,24(a1)
f8000f2c:	00462703          	lw	a4,4(a2)
f8000f30:	00c62683          	lw	a3,12(a2)
f8000f34:	00100793          	li	a5,1
f8000f38:	02f70063          	beq	a4,a5,f8000f58 <_ZN74_$LT$core..panic..panic_info..PanicMessage$u20$as$u20$core..fmt..Debug$GT$3fmt17h7a8a232211e5c75eE+0x38>
f8000f3c:	02071063          	bnez	a4,f8000f5c <_ZN74_$LT$core..panic..panic_info..PanicMessage$u20$as$u20$core..fmt..Debug$GT$3fmt17h7a8a232211e5c75eE+0x3c>
f8000f40:	00069e63          	bnez	a3,f8000f5c <_ZN74_$LT$core..panic..panic_info..PanicMessage$u20$as$u20$core..fmt..Debug$GT$3fmt17h7a8a232211e5c75eE+0x3c>
f8000f44:	00000613          	li	a2,0
f8000f48:	00100693          	li	a3,1
f8000f4c:	00c5a303          	lw	t1,12(a1)
f8000f50:	00068593          	mv	a1,a3
f8000f54:	00030067          	jr	t1
f8000f58:	00068663          	beqz	a3,f8000f64 <_ZN74_$LT$core..panic..panic_info..PanicMessage$u20$as$u20$core..fmt..Debug$GT$3fmt17h7a8a232211e5c75eE+0x44>
f8000f5c:	00000317          	auipc	t1,0x0
f8000f60:	39c30067          	jr	924(t1) # f80012f8 <_ZN4core3fmt5write17hb8db08122a7bc793E>
f8000f64:	00062603          	lw	a2,0(a2)
f8000f68:	00062683          	lw	a3,0(a2)
f8000f6c:	00462603          	lw	a2,4(a2)
f8000f70:	00c5a303          	lw	t1,12(a1)
f8000f74:	00068593          	mv	a1,a3
f8000f78:	00030067          	jr	t1

f8000f7c <_ZN93_$LT$rvfm_platform..multihart..spinlock..RawSpinLock$u20$as$u20$lock_api..mutex..RawMutex$GT$4lock17hd71ebc0200b82bbaE>:
f8000f7c:	00100593          	li	a1,1
f8000f80:	0eb5262f          	amoswap.w.aqrl	a2,a1,(a0)
f8000f84:	fe061ee3          	bnez	a2,f8000f80 <_ZN93_$LT$rvfm_platform..multihart..spinlock..RawSpinLock$u20$as$u20$lock_api..mutex..RawMutex$GT$4lock17hd71ebc0200b82bbaE+0x4>
f8000f88:	00008067          	ret

f8000f8c <_ZN93_$LT$rvfm_platform..multihart..spinlock..RawSpinLock$u20$as$u20$lock_api..mutex..RawMutex$GT$6unlock17h6f2b33a45e66a808E>:
f8000f8c:	0310000f          	fence	rw,w
f8000f90:	00052023          	sw	zero,0(a0)
f8000f94:	00008067          	ret

f8000f98 <_ZN13rvfm_platform5debug5flush17he935f66036446cbbE>:
f8000f98:	80000537          	lui	a0,0x80000
f8000f9c:	00100593          	li	a1,1
f8000fa0:	00b52823          	sw	a1,16(a0) # 80000010 <__stack_ptr+0x78000010>
f8000fa4:	00008067          	ret

f8000fa8 <_ZN70_$LT$rvfm_platform..debug..DebugWriter$u20$as$u20$core..fmt..Write$GT$9write_str17h6a78f9d494d7973cE>:
f8000fa8:	80000537          	lui	a0,0x80000
f8000fac:	00c52223          	sw	a2,4(a0) # 80000004 <__stack_ptr+0x78000004>
f8000fb0:	00b52023          	sw	a1,0(a0)
f8000fb4:	00100593          	li	a1,1
f8000fb8:	00b52623          	sw	a1,12(a0)
f8000fbc:	00000513          	li	a0,0
f8000fc0:	00008067          	ret

f8000fc4 <rust_begin_unwind>:
f8000fc4:	fa010113          	add	sp,sp,-96
f8000fc8:	04112e23          	sw	ra,92(sp)
f8000fcc:	04812c23          	sw	s0,88(sp)
f8000fd0:	04912a23          	sw	s1,84(sp)
f8000fd4:	05212823          	sw	s2,80(sp)
f8000fd8:	05312623          	sw	s3,76(sp)
f8000fdc:	05412423          	sw	s4,72(sp)
f8000fe0:	05512223          	sw	s5,68(sp)
f8000fe4:	00050413          	mv	s0,a0
f8000fe8:	01852503          	lw	a0,24(a0)
f8000fec:	00052583          	lw	a1,0(a0)
f8000ff0:	00452603          	lw	a2,4(a0)
f8000ff4:	00852683          	lw	a3,8(a0)
f8000ff8:	00c52503          	lw	a0,12(a0)
f8000ffc:	02b12023          	sw	a1,32(sp)
f8001000:	02c12223          	sw	a2,36(sp)
f8001004:	00d12023          	sw	a3,0(sp)
f8001008:	00a12223          	sw	a0,4(sp)
f800100c:	02010913          	add	s2,sp,32
f8001010:	03212423          	sw	s2,40(sp)
f8001014:	f8001537          	lui	a0,0xf8001
f8001018:	e5450513          	add	a0,a0,-428 # f8000e54 <_ZN44_$LT$$RF$T$u20$as$u20$core..fmt..Display$GT$3fmt17h6a0d8917716202cdE>
f800101c:	02a12623          	sw	a0,44(sp)
f8001020:	00010513          	mv	a0,sp
f8001024:	02a12823          	sw	a0,48(sp)
f8001028:	f8002537          	lui	a0,0xf8002
f800102c:	0d450513          	add	a0,a0,212 # f80020d4 <_ZN4core3fmt3num3imp52_$LT$impl$u20$core..fmt..Display$u20$for$u20$u32$GT$3fmt17h94cd01ca73d4dde7E>
f8001030:	02a12a23          	sw	a0,52(sp)
f8001034:	00410593          	add	a1,sp,4
f8001038:	02b12c23          	sw	a1,56(sp)
f800103c:	02a12e23          	sw	a0,60(sp)
f8001040:	f8002537          	lui	a0,0xf8002
f8001044:	29c50513          	add	a0,a0,668 # f800229c <.Lanon.5ae1b5b85aba88e30b745cf423597d9e.6>
f8001048:	00a12423          	sw	a0,8(sp)
f800104c:	00400513          	li	a0,4
f8001050:	00a12623          	sw	a0,12(sp)
f8001054:	00012c23          	sw	zero,24(sp)
f8001058:	02810993          	add	s3,sp,40
f800105c:	01312823          	sw	s3,16(sp)
f8001060:	00300513          	li	a0,3
f8001064:	00a12a23          	sw	a0,20(sp)
f8001068:	f8002537          	lui	a0,0xf8002
f800106c:	27c50493          	add	s1,a0,636 # f800227c <.Lanon.5ae1b5b85aba88e30b745cf423597d9e.0>
f8001070:	04310513          	add	a0,sp,67
f8001074:	00810613          	add	a2,sp,8
f8001078:	00048593          	mv	a1,s1
f800107c:	00000097          	auipc	ra,0x0
f8001080:	27c080e7          	jalr	636(ra) # f80012f8 <_ZN4core3fmt5write17hb8db08122a7bc793E>
f8001084:	80000a37          	lui	s4,0x80000
f8001088:	00100a93          	li	s5,1
f800108c:	015a2823          	sw	s5,16(s4) # 80000010 <__stack_ptr+0x78000010>
f8001090:	01442503          	lw	a0,20(s0)
f8001094:	01042583          	lw	a1,16(s0)
f8001098:	02a12e23          	sw	a0,60(sp)
f800109c:	02b12c23          	sw	a1,56(sp)
f80010a0:	00c42503          	lw	a0,12(s0)
f80010a4:	00842583          	lw	a1,8(s0)
f80010a8:	00442603          	lw	a2,4(s0)
f80010ac:	00042683          	lw	a3,0(s0)
f80010b0:	02a12a23          	sw	a0,52(sp)
f80010b4:	02b12823          	sw	a1,48(sp)
f80010b8:	02c12623          	sw	a2,44(sp)
f80010bc:	02d12423          	sw	a3,40(sp)
f80010c0:	03312023          	sw	s3,32(sp)
f80010c4:	f8001537          	lui	a0,0xf8001
f80010c8:	f2050513          	add	a0,a0,-224 # f8000f20 <_ZN74_$LT$core..panic..panic_info..PanicMessage$u20$as$u20$core..fmt..Debug$GT$3fmt17h7a8a232211e5c75eE>
f80010cc:	02a12223          	sw	a0,36(sp)
f80010d0:	f8002537          	lui	a0,0xf8002
f80010d4:	2bc50513          	add	a0,a0,700 # f80022bc <.Lanon.5ae1b5b85aba88e30b745cf423597d9e.6+0x20>
f80010d8:	00a12423          	sw	a0,8(sp)
f80010dc:	01512623          	sw	s5,12(sp)
f80010e0:	00012c23          	sw	zero,24(sp)
f80010e4:	01212823          	sw	s2,16(sp)
f80010e8:	01512a23          	sw	s5,20(sp)
f80010ec:	04310513          	add	a0,sp,67
f80010f0:	00810613          	add	a2,sp,8
f80010f4:	00048593          	mv	a1,s1
f80010f8:	00000097          	auipc	ra,0x0
f80010fc:	200080e7          	jalr	512(ra) # f80012f8 <_ZN4core3fmt5write17hb8db08122a7bc793E>
f8001100:	015a2823          	sw	s5,16(s4)
f8001104:	10500073          	wfi
f8001108:	ffdff06f          	j	f8001104 <rust_begin_unwind+0x140>

f800110c <__rdl_oom>:
f800110c:	fd010113          	add	sp,sp,-48
f8001110:	000025b7          	lui	a1,0x2
f8001114:	7205c583          	lbu	a1,1824(a1) # 2720 <__rust_alloc_error_handler_should_panic>
f8001118:	00a12623          	sw	a0,12(sp)
f800111c:	00c10513          	add	a0,sp,12
f8001120:	04059863          	bnez	a1,f8001170 <__rdl_oom+0x64>
f8001124:	02a12423          	sw	a0,40(sp)
f8001128:	f8002537          	lui	a0,0xf8002
f800112c:	0d450513          	add	a0,a0,212 # f80020d4 <_ZN4core3fmt3num3imp52_$LT$impl$u20$core..fmt..Display$u20$for$u20$u32$GT$3fmt17h94cd01ca73d4dde7E>
f8001130:	02a12623          	sw	a0,44(sp)
f8001134:	f8002537          	lui	a0,0xf8002
f8001138:	2e850513          	add	a0,a0,744 # f80022e8 <.Lanon.442fa70296cb6d3d309755105c39fec7.2>
f800113c:	00a12823          	sw	a0,16(sp)
f8001140:	00200513          	li	a0,2
f8001144:	00a12a23          	sw	a0,20(sp)
f8001148:	02012023          	sw	zero,32(sp)
f800114c:	02810513          	add	a0,sp,40
f8001150:	00a12c23          	sw	a0,24(sp)
f8001154:	00100513          	li	a0,1
f8001158:	00a12e23          	sw	a0,28(sp)
f800115c:	f8002537          	lui	a0,0xf8002
f8001160:	36450613          	add	a2,a0,868 # f8002364 <.Lanon.442fa70296cb6d3d309755105c39fec7.4>
f8001164:	01010513          	add	a0,sp,16
f8001168:	00001097          	auipc	ra,0x1
f800116c:	adc080e7          	jalr	-1316(ra) # f8001c44 <_ZN4core9panicking18panic_nounwind_fmt17h711f3e426d0d09a3E>
f8001170:	02a12423          	sw	a0,40(sp)
f8001174:	f8002537          	lui	a0,0xf8002
f8001178:	0d450513          	add	a0,a0,212 # f80020d4 <_ZN4core3fmt3num3imp52_$LT$impl$u20$core..fmt..Display$u20$for$u20$u32$GT$3fmt17h94cd01ca73d4dde7E>
f800117c:	02a12623          	sw	a0,44(sp)
f8001180:	f8002537          	lui	a0,0xf8002
f8001184:	2e850513          	add	a0,a0,744 # f80022e8 <.Lanon.442fa70296cb6d3d309755105c39fec7.2>
f8001188:	00a12823          	sw	a0,16(sp)
f800118c:	00200513          	li	a0,2
f8001190:	00a12a23          	sw	a0,20(sp)
f8001194:	02012023          	sw	zero,32(sp)
f8001198:	02810513          	add	a0,sp,40
f800119c:	00a12c23          	sw	a0,24(sp)
f80011a0:	00100513          	li	a0,1
f80011a4:	00a12e23          	sw	a0,28(sp)
f80011a8:	f8002537          	lui	a0,0xf8002
f80011ac:	37450593          	add	a1,a0,884 # f8002374 <.Lanon.442fa70296cb6d3d309755105c39fec7.5>
f80011b0:	01010513          	add	a0,sp,16
f80011b4:	00001097          	auipc	ra,0x1
f80011b8:	a44080e7          	jalr	-1468(ra) # f8001bf8 <_ZN4core9panicking9panic_fmt17h94035f4149eaf451E>

f80011bc <_ZN5alloc5alloc18handle_alloc_error17h882985191c618f0aE>:
f80011bc:	00050613          	mv	a2,a0
f80011c0:	00058513          	mv	a0,a1
f80011c4:	00060593          	mv	a1,a2
f80011c8:	00000097          	auipc	ra,0x0
f80011cc:	c48080e7          	jalr	-952(ra) # f8000e10 <__rust_alloc_error_handler>

f80011d0 <_ZN4core3fmt3num53_$LT$impl$u20$core..fmt..LowerHex$u20$for$u20$i32$GT$3fmt17hcaca47692013dc82E>:
f80011d0:	f7010113          	add	sp,sp,-144
f80011d4:	08112623          	sw	ra,140(sp)
f80011d8:	00052503          	lw	a0,0(a0)
f80011dc:	00058813          	mv	a6,a1
f80011e0:	00000793          	li	a5,0
f80011e4:	08c10613          	add	a2,sp,140
f80011e8:	00a00593          	li	a1,10
f80011ec:	0200006f          	j	f800120c <_ZN4core3fmt3num53_$LT$impl$u20$core..fmt..LowerHex$u20$for$u20$i32$GT$3fmt17hcaca47692013dc82E+0x3c>
f80011f0:	05768693          	add	a3,a3,87
f80011f4:	fff60713          	add	a4,a2,-1
f80011f8:	00455513          	srl	a0,a0,0x4
f80011fc:	fed60fa3          	sb	a3,-1(a2)
f8001200:	00178793          	add	a5,a5,1
f8001204:	00070613          	mv	a2,a4
f8001208:	00050a63          	beqz	a0,f800121c <_ZN4core3fmt3num53_$LT$impl$u20$core..fmt..LowerHex$u20$for$u20$i32$GT$3fmt17hcaca47692013dc82E+0x4c>
f800120c:	00f57693          	and	a3,a0,15
f8001210:	feb6f0e3          	bgeu	a3,a1,f80011f0 <_ZN4core3fmt3num53_$LT$impl$u20$core..fmt..LowerHex$u20$for$u20$i32$GT$3fmt17hcaca47692013dc82E+0x20>
f8001214:	03068693          	add	a3,a3,48
f8001218:	fddff06f          	j	f80011f4 <_ZN4core3fmt3num53_$LT$impl$u20$core..fmt..LowerHex$u20$for$u20$i32$GT$3fmt17hcaca47692013dc82E+0x24>
f800121c:	08000593          	li	a1,128
f8001220:	40f58533          	sub	a0,a1,a5
f8001224:	02a5e663          	bltu	a1,a0,f8001250 <_ZN4core3fmt3num53_$LT$impl$u20$core..fmt..LowerHex$u20$for$u20$i32$GT$3fmt17hcaca47692013dc82E+0x80>
f8001228:	f8002537          	lui	a0,0xf8002
f800122c:	3f050613          	add	a2,a0,1008 # f80023f0 <anon.5b4181c490521b0b2dcd1d17234b79cf.1.llvm.5401255529112474680>
f8001230:	00100593          	li	a1,1
f8001234:	00200693          	li	a3,2
f8001238:	00080513          	mv	a0,a6
f800123c:	00000097          	auipc	ra,0x0
f8001240:	31c080e7          	jalr	796(ra) # f8001558 <_ZN4core3fmt9Formatter12pad_integral17h014b911613ce7cefE>
f8001244:	08c12083          	lw	ra,140(sp)
f8001248:	09010113          	add	sp,sp,144
f800124c:	00008067          	ret
f8001250:	f80025b7          	lui	a1,0xf8002
f8001254:	3f458613          	add	a2,a1,1012 # f80023f4 <anon.5b4181c490521b0b2dcd1d17234b79cf.2.llvm.5401255529112474680>
f8001258:	08000593          	li	a1,128
f800125c:	00001097          	auipc	ra,0x1
f8001260:	e8c080e7          	jalr	-372(ra) # f80020e8 <_ZN4core5slice5index26slice_start_index_len_fail17ha0e1b66a8afa6e7fE>

f8001264 <_ZN4core3fmt3num53_$LT$impl$u20$core..fmt..UpperHex$u20$for$u20$i32$GT$3fmt17h758341d2b012440bE>:
f8001264:	f7010113          	add	sp,sp,-144
f8001268:	08112623          	sw	ra,140(sp)
f800126c:	00052503          	lw	a0,0(a0)
f8001270:	00058813          	mv	a6,a1
f8001274:	00000793          	li	a5,0
f8001278:	08c10613          	add	a2,sp,140
f800127c:	00a00593          	li	a1,10
f8001280:	0200006f          	j	f80012a0 <_ZN4core3fmt3num53_$LT$impl$u20$core..fmt..UpperHex$u20$for$u20$i32$GT$3fmt17h758341d2b012440bE+0x3c>
f8001284:	03768693          	add	a3,a3,55
f8001288:	fff60713          	add	a4,a2,-1
f800128c:	00455513          	srl	a0,a0,0x4
f8001290:	fed60fa3          	sb	a3,-1(a2)
f8001294:	00178793          	add	a5,a5,1
f8001298:	00070613          	mv	a2,a4
f800129c:	00050a63          	beqz	a0,f80012b0 <_ZN4core3fmt3num53_$LT$impl$u20$core..fmt..UpperHex$u20$for$u20$i32$GT$3fmt17h758341d2b012440bE+0x4c>
f80012a0:	00f57693          	and	a3,a0,15
f80012a4:	feb6f0e3          	bgeu	a3,a1,f8001284 <_ZN4core3fmt3num53_$LT$impl$u20$core..fmt..UpperHex$u20$for$u20$i32$GT$3fmt17h758341d2b012440bE+0x20>
f80012a8:	03068693          	add	a3,a3,48
f80012ac:	fddff06f          	j	f8001288 <_ZN4core3fmt3num53_$LT$impl$u20$core..fmt..UpperHex$u20$for$u20$i32$GT$3fmt17h758341d2b012440bE+0x24>
f80012b0:	08000593          	li	a1,128
f80012b4:	40f58533          	sub	a0,a1,a5
f80012b8:	02a5e663          	bltu	a1,a0,f80012e4 <_ZN4core3fmt3num53_$LT$impl$u20$core..fmt..UpperHex$u20$for$u20$i32$GT$3fmt17h758341d2b012440bE+0x80>
f80012bc:	f8002537          	lui	a0,0xf8002
f80012c0:	3f050613          	add	a2,a0,1008 # f80023f0 <anon.5b4181c490521b0b2dcd1d17234b79cf.1.llvm.5401255529112474680>
f80012c4:	00100593          	li	a1,1
f80012c8:	00200693          	li	a3,2
f80012cc:	00080513          	mv	a0,a6
f80012d0:	00000097          	auipc	ra,0x0
f80012d4:	288080e7          	jalr	648(ra) # f8001558 <_ZN4core3fmt9Formatter12pad_integral17h014b911613ce7cefE>
f80012d8:	08c12083          	lw	ra,140(sp)
f80012dc:	09010113          	add	sp,sp,144
f80012e0:	00008067          	ret
f80012e4:	f80025b7          	lui	a1,0xf8002
f80012e8:	3f458613          	add	a2,a1,1012 # f80023f4 <anon.5b4181c490521b0b2dcd1d17234b79cf.2.llvm.5401255529112474680>
f80012ec:	08000593          	li	a1,128
f80012f0:	00001097          	auipc	ra,0x1
f80012f4:	df8080e7          	jalr	-520(ra) # f80020e8 <_ZN4core5slice5index26slice_start_index_len_fail17ha0e1b66a8afa6e7fE>

f80012f8 <_ZN4core3fmt5write17hb8db08122a7bc793E>:
f80012f8:	fb010113          	add	sp,sp,-80
f80012fc:	04112623          	sw	ra,76(sp)
f8001300:	04812423          	sw	s0,72(sp)
f8001304:	04912223          	sw	s1,68(sp)
f8001308:	05212023          	sw	s2,64(sp)
f800130c:	03312e23          	sw	s3,60(sp)
f8001310:	03412c23          	sw	s4,56(sp)
f8001314:	03512a23          	sw	s5,52(sp)
f8001318:	03612823          	sw	s6,48(sp)
f800131c:	03712623          	sw	s7,44(sp)
f8001320:	00060413          	mv	s0,a2
f8001324:	02012223          	sw	zero,36(sp)
f8001328:	02000613          	li	a2,32
f800132c:	00c12c23          	sw	a2,24(sp)
f8001330:	00300613          	li	a2,3
f8001334:	02c10423          	sb	a2,40(sp)
f8001338:	01042a83          	lw	s5,16(s0)
f800133c:	00012423          	sw	zero,8(sp)
f8001340:	00012823          	sw	zero,16(sp)
f8001344:	00a12e23          	sw	a0,28(sp)
f8001348:	02b12023          	sw	a1,32(sp)
f800134c:	120a8263          	beqz	s5,f8001470 <_ZN4core3fmt5write17hb8db08122a7bc793E+0x178>
f8001350:	01442a03          	lw	s4,20(s0)
f8001354:	180a0c63          	beqz	s4,f80014ec <_ZN4core3fmt5write17hb8db08122a7bc793E+0x1f4>
f8001358:	00042983          	lw	s3,0(s0)
f800135c:	00842903          	lw	s2,8(s0)
f8001360:	fffa0513          	add	a0,s4,-1
f8001364:	00551513          	sll	a0,a0,0x5
f8001368:	00555513          	srl	a0,a0,0x5
f800136c:	00150493          	add	s1,a0,1
f8001370:	00498993          	add	s3,s3,4
f8001374:	005a1a13          	sll	s4,s4,0x5
f8001378:	010a8a93          	add	s5,s5,16
f800137c:	00200b13          	li	s6,2
f8001380:	00100b93          	li	s7,1
f8001384:	0009a603          	lw	a2,0(s3)
f8001388:	00060e63          	beqz	a2,f80013a4 <_ZN4core3fmt5write17hb8db08122a7bc793E+0xac>
f800138c:	02012683          	lw	a3,32(sp)
f8001390:	01c12503          	lw	a0,28(sp)
f8001394:	ffc9a583          	lw	a1,-4(s3)
f8001398:	00c6a683          	lw	a3,12(a3)
f800139c:	000680e7          	jalr	a3
f80013a0:	18051063          	bnez	a0,f8001520 <_ZN4core3fmt5write17hb8db08122a7bc793E+0x228>
f80013a4:	000aa603          	lw	a2,0(s5)
f80013a8:	00cac683          	lbu	a3,12(s5)
f80013ac:	008aa703          	lw	a4,8(s5)
f80013b0:	ff8aa583          	lw	a1,-8(s5)
f80013b4:	ffcaa503          	lw	a0,-4(s5)
f80013b8:	00c12c23          	sw	a2,24(sp)
f80013bc:	02d10423          	sb	a3,40(sp)
f80013c0:	02e12223          	sw	a4,36(sp)
f80013c4:	02058a63          	beqz	a1,f80013f8 <_ZN4core3fmt5write17hb8db08122a7bc793E+0x100>
f80013c8:	01759a63          	bne	a1,s7,f80013dc <_ZN4core3fmt5write17hb8db08122a7bc793E+0xe4>
f80013cc:	00351513          	sll	a0,a0,0x3
f80013d0:	00a90533          	add	a0,s2,a0
f80013d4:	00452583          	lw	a1,4(a0)
f80013d8:	00058e63          	beqz	a1,f80013f4 <_ZN4core3fmt5write17hb8db08122a7bc793E+0xfc>
f80013dc:	00000593          	li	a1,0
f80013e0:	ff0aa603          	lw	a2,-16(s5)
f80013e4:	00012423          	sw	zero,8(sp)
f80013e8:	00a12623          	sw	a0,12(sp)
f80013ec:	03661063          	bne	a2,s6,f800140c <_ZN4core3fmt5write17hb8db08122a7bc793E+0x114>
f80013f0:	0340006f          	j	f8001424 <_ZN4core3fmt5write17hb8db08122a7bc793E+0x12c>
f80013f4:	00052503          	lw	a0,0(a0)
f80013f8:	00100593          	li	a1,1
f80013fc:	ff0aa603          	lw	a2,-16(s5)
f8001400:	00b12423          	sw	a1,8(sp)
f8001404:	00a12623          	sw	a0,12(sp)
f8001408:	01660e63          	beq	a2,s6,f8001424 <_ZN4core3fmt5write17hb8db08122a7bc793E+0x12c>
f800140c:	ff4aa583          	lw	a1,-12(s5)
f8001410:	03761063          	bne	a2,s7,f8001430 <_ZN4core3fmt5write17hb8db08122a7bc793E+0x138>
f8001414:	00359513          	sll	a0,a1,0x3
f8001418:	00a90533          	add	a0,s2,a0
f800141c:	00452583          	lw	a1,4(a0)
f8001420:	00058663          	beqz	a1,f800142c <_ZN4core3fmt5write17hb8db08122a7bc793E+0x134>
f8001424:	00000613          	li	a2,0
f8001428:	00c0006f          	j	f8001434 <_ZN4core3fmt5write17hb8db08122a7bc793E+0x13c>
f800142c:	00052583          	lw	a1,0(a0)
f8001430:	00100613          	li	a2,1
f8001434:	004aa503          	lw	a0,4(s5)
f8001438:	00351513          	sll	a0,a0,0x3
f800143c:	00a90533          	add	a0,s2,a0
f8001440:	00452683          	lw	a3,4(a0)
f8001444:	00052503          	lw	a0,0(a0)
f8001448:	00c12823          	sw	a2,16(sp)
f800144c:	00b12a23          	sw	a1,20(sp)
f8001450:	00810593          	add	a1,sp,8
f8001454:	000680e7          	jalr	a3
f8001458:	0c051463          	bnez	a0,f8001520 <_ZN4core3fmt5write17hb8db08122a7bc793E+0x228>
f800145c:	00898993          	add	s3,s3,8
f8001460:	fe0a0a13          	add	s4,s4,-32
f8001464:	020a8a93          	add	s5,s5,32
f8001468:	f00a1ee3          	bnez	s4,f8001384 <_ZN4core3fmt5write17hb8db08122a7bc793E+0x8c>
f800146c:	0740006f          	j	f80014e0 <_ZN4core3fmt5write17hb8db08122a7bc793E+0x1e8>
f8001470:	00c42a03          	lw	s4,12(s0)
f8001474:	060a0c63          	beqz	s4,f80014ec <_ZN4core3fmt5write17hb8db08122a7bc793E+0x1f4>
f8001478:	00842983          	lw	s3,8(s0)
f800147c:	00042903          	lw	s2,0(s0)
f8001480:	fffa0513          	add	a0,s4,-1
f8001484:	00351513          	sll	a0,a0,0x3
f8001488:	00355513          	srl	a0,a0,0x3
f800148c:	00150493          	add	s1,a0,1
f8001490:	00490913          	add	s2,s2,4
f8001494:	00498993          	add	s3,s3,4
f8001498:	003a1a13          	sll	s4,s4,0x3
f800149c:	00092603          	lw	a2,0(s2)
f80014a0:	00060e63          	beqz	a2,f80014bc <_ZN4core3fmt5write17hb8db08122a7bc793E+0x1c4>
f80014a4:	02012683          	lw	a3,32(sp)
f80014a8:	01c12503          	lw	a0,28(sp)
f80014ac:	ffc92583          	lw	a1,-4(s2)
f80014b0:	00c6a683          	lw	a3,12(a3)
f80014b4:	000680e7          	jalr	a3
f80014b8:	06051463          	bnez	a0,f8001520 <_ZN4core3fmt5write17hb8db08122a7bc793E+0x228>
f80014bc:	0009a603          	lw	a2,0(s3)
f80014c0:	ffc9a503          	lw	a0,-4(s3)
f80014c4:	00810593          	add	a1,sp,8
f80014c8:	000600e7          	jalr	a2
f80014cc:	04051a63          	bnez	a0,f8001520 <_ZN4core3fmt5write17hb8db08122a7bc793E+0x228>
f80014d0:	00890913          	add	s2,s2,8
f80014d4:	ff8a0a13          	add	s4,s4,-8
f80014d8:	00898993          	add	s3,s3,8
f80014dc:	fc0a10e3          	bnez	s4,f800149c <_ZN4core3fmt5write17hb8db08122a7bc793E+0x1a4>
f80014e0:	00442503          	lw	a0,4(s0)
f80014e4:	00a4ea63          	bltu	s1,a0,f80014f8 <_ZN4core3fmt5write17hb8db08122a7bc793E+0x200>
f80014e8:	0400006f          	j	f8001528 <_ZN4core3fmt5write17hb8db08122a7bc793E+0x230>
f80014ec:	00000493          	li	s1,0
f80014f0:	00442503          	lw	a0,4(s0)
f80014f4:	02a07a63          	bgeu	zero,a0,f8001528 <_ZN4core3fmt5write17hb8db08122a7bc793E+0x230>
f80014f8:	00042503          	lw	a0,0(s0)
f80014fc:	00349493          	sll	s1,s1,0x3
f8001500:	009504b3          	add	s1,a0,s1
f8001504:	02012683          	lw	a3,32(sp)
f8001508:	01c12503          	lw	a0,28(sp)
f800150c:	0004a583          	lw	a1,0(s1)
f8001510:	0044a603          	lw	a2,4(s1)
f8001514:	00c6a683          	lw	a3,12(a3)
f8001518:	000680e7          	jalr	a3
f800151c:	00050663          	beqz	a0,f8001528 <_ZN4core3fmt5write17hb8db08122a7bc793E+0x230>
f8001520:	00100513          	li	a0,1
f8001524:	0080006f          	j	f800152c <_ZN4core3fmt5write17hb8db08122a7bc793E+0x234>
f8001528:	00000513          	li	a0,0
f800152c:	04c12083          	lw	ra,76(sp)
f8001530:	04812403          	lw	s0,72(sp)
f8001534:	04412483          	lw	s1,68(sp)
f8001538:	04012903          	lw	s2,64(sp)
f800153c:	03c12983          	lw	s3,60(sp)
f8001540:	03812a03          	lw	s4,56(sp)
f8001544:	03412a83          	lw	s5,52(sp)
f8001548:	03012b03          	lw	s6,48(sp)
f800154c:	02c12b83          	lw	s7,44(sp)
f8001550:	05010113          	add	sp,sp,80
f8001554:	00008067          	ret

f8001558 <_ZN4core3fmt9Formatter12pad_integral17h014b911613ce7cefE>:
f8001558:	fc010113          	add	sp,sp,-64
f800155c:	02112e23          	sw	ra,60(sp)
f8001560:	02812c23          	sw	s0,56(sp)
f8001564:	02912a23          	sw	s1,52(sp)
f8001568:	03212823          	sw	s2,48(sp)
f800156c:	03312623          	sw	s3,44(sp)
f8001570:	03412423          	sw	s4,40(sp)
f8001574:	03512223          	sw	s5,36(sp)
f8001578:	03612023          	sw	s6,32(sp)
f800157c:	01712e23          	sw	s7,28(sp)
f8001580:	01812c23          	sw	s8,24(sp)
f8001584:	01912a23          	sw	s9,20(sp)
f8001588:	01a12823          	sw	s10,16(sp)
f800158c:	01b12623          	sw	s11,12(sp)
f8001590:	00078413          	mv	s0,a5
f8001594:	00070493          	mv	s1,a4
f8001598:	00068913          	mv	s2,a3
f800159c:	00060993          	mv	s3,a2
f80015a0:	06058263          	beqz	a1,f8001604 <_ZN4core3fmt9Formatter12pad_integral17h014b911613ce7cefE+0xac>
f80015a4:	01c52a83          	lw	s5,28(a0)
f80015a8:	001afb93          	and	s7,s5,1
f80015ac:	00110a37          	lui	s4,0x110
f80015b0:	000b8463          	beqz	s7,f80015b8 <_ZN4core3fmt9Formatter12pad_integral17h014b911613ce7cefE+0x60>
f80015b4:	02b00a13          	li	s4,43
f80015b8:	008b8bb3          	add	s7,s7,s0
f80015bc:	004af593          	and	a1,s5,4
f80015c0:	04058c63          	beqz	a1,f8001618 <_ZN4core3fmt9Formatter12pad_integral17h014b911613ce7cefE+0xc0>
f80015c4:	01000593          	li	a1,16
f80015c8:	06b97063          	bgeu	s2,a1,f8001628 <_ZN4core3fmt9Formatter12pad_integral17h014b911613ce7cefE+0xd0>
f80015cc:	00000593          	li	a1,0
f80015d0:	02090263          	beqz	s2,f80015f4 <_ZN4core3fmt9Formatter12pad_integral17h014b911613ce7cefE+0x9c>
f80015d4:	01298633          	add	a2,s3,s2
f80015d8:	00098693          	mv	a3,s3
f80015dc:	00068703          	lb	a4,0(a3)
f80015e0:	fc072713          	slti	a4,a4,-64
f80015e4:	00174713          	xor	a4,a4,1
f80015e8:	00168693          	add	a3,a3,1
f80015ec:	00e585b3          	add	a1,a1,a4
f80015f0:	fec696e3          	bne	a3,a2,f80015dc <_ZN4core3fmt9Formatter12pad_integral17h014b911613ce7cefE+0x84>
f80015f4:	01758bb3          	add	s7,a1,s7
f80015f8:	00052583          	lw	a1,0(a0)
f80015fc:	04059a63          	bnez	a1,f8001650 <_ZN4core3fmt9Formatter12pad_integral17h014b911613ce7cefE+0xf8>
f8001600:	0800006f          	j	f8001680 <_ZN4core3fmt9Formatter12pad_integral17h014b911613ce7cefE+0x128>
f8001604:	01c52a83          	lw	s5,28(a0)
f8001608:	00140b93          	add	s7,s0,1
f800160c:	02d00a13          	li	s4,45
f8001610:	004af593          	and	a1,s5,4
f8001614:	fa0598e3          	bnez	a1,f80015c4 <_ZN4core3fmt9Formatter12pad_integral17h014b911613ce7cefE+0x6c>
f8001618:	00000993          	li	s3,0
f800161c:	00052583          	lw	a1,0(a0)
f8001620:	02059863          	bnez	a1,f8001650 <_ZN4core3fmt9Formatter12pad_integral17h014b911613ce7cefE+0xf8>
f8001624:	05c0006f          	j	f8001680 <_ZN4core3fmt9Formatter12pad_integral17h014b911613ce7cefE+0x128>
f8001628:	00050b13          	mv	s6,a0
f800162c:	00098513          	mv	a0,s3
f8001630:	00090593          	mv	a1,s2
f8001634:	00000097          	auipc	ra,0x0
f8001638:	6cc080e7          	jalr	1740(ra) # f8001d00 <_ZN4core3str5count14do_count_chars17h336dd2fdca9470c8E>
f800163c:	00050593          	mv	a1,a0
f8001640:	000b0513          	mv	a0,s6
f8001644:	01758bb3          	add	s7,a1,s7
f8001648:	000b2583          	lw	a1,0(s6)
f800164c:	02058a63          	beqz	a1,f8001680 <_ZN4core3fmt9Formatter12pad_integral17h014b911613ce7cefE+0x128>
f8001650:	00452d83          	lw	s11,4(a0)
f8001654:	03bbf663          	bgeu	s7,s11,f8001680 <_ZN4core3fmt9Formatter12pad_integral17h014b911613ce7cefE+0x128>
f8001658:	008af593          	and	a1,s5,8
f800165c:	0a059063          	bnez	a1,f80016fc <_ZN4core3fmt9Formatter12pad_integral17h014b911613ce7cefE+0x1a4>
f8001660:	02054603          	lbu	a2,32(a0)
f8001664:	00100693          	li	a3,1
f8001668:	417d85b3          	sub	a1,s11,s7
f800166c:	0ec6ce63          	blt	a3,a2,f8001768 <_ZN4core3fmt9Formatter12pad_integral17h014b911613ce7cefE+0x210>
f8001670:	10061863          	bnez	a2,f8001780 <_ZN4core3fmt9Formatter12pad_integral17h014b911613ce7cefE+0x228>
f8001674:	00058c13          	mv	s8,a1
f8001678:	00060593          	mv	a1,a2
f800167c:	1080006f          	j	f8001784 <_ZN4core3fmt9Formatter12pad_integral17h014b911613ce7cefE+0x22c>
f8001680:	01452a83          	lw	s5,20(a0)
f8001684:	01852b03          	lw	s6,24(a0)
f8001688:	000a8513          	mv	a0,s5
f800168c:	000b0593          	mv	a1,s6
f8001690:	000a0613          	mv	a2,s4
f8001694:	00098693          	mv	a3,s3
f8001698:	00090713          	mv	a4,s2
f800169c:	00000097          	auipc	ra,0x0
f80016a0:	20c080e7          	jalr	524(ra) # f80018a8 <_ZN4core3fmt9Formatter12pad_integral12write_prefix17ha76341b5e4c83ea9E>
f80016a4:	00050593          	mv	a1,a0
f80016a8:	00100513          	li	a0,1
f80016ac:	10059463          	bnez	a1,f80017b4 <_ZN4core3fmt9Formatter12pad_integral17h014b911613ce7cefE+0x25c>
f80016b0:	00cb2303          	lw	t1,12(s6)
f80016b4:	000a8513          	mv	a0,s5
f80016b8:	00048593          	mv	a1,s1
f80016bc:	00040613          	mv	a2,s0
f80016c0:	03c12083          	lw	ra,60(sp)
f80016c4:	03812403          	lw	s0,56(sp)
f80016c8:	03412483          	lw	s1,52(sp)
f80016cc:	03012903          	lw	s2,48(sp)
f80016d0:	02c12983          	lw	s3,44(sp)
f80016d4:	02812a03          	lw	s4,40(sp)
f80016d8:	02412a83          	lw	s5,36(sp)
f80016dc:	02012b03          	lw	s6,32(sp)
f80016e0:	01c12b83          	lw	s7,28(sp)
f80016e4:	01812c03          	lw	s8,24(sp)
f80016e8:	01412c83          	lw	s9,20(sp)
f80016ec:	01012d03          	lw	s10,16(sp)
f80016f0:	00c12d83          	lw	s11,12(sp)
f80016f4:	04010113          	add	sp,sp,64
f80016f8:	00030067          	jr	t1
f80016fc:	01052c03          	lw	s8,16(a0)
f8001700:	03000593          	li	a1,48
f8001704:	02054c83          	lbu	s9,32(a0)
f8001708:	01452a83          	lw	s5,20(a0)
f800170c:	01852b03          	lw	s6,24(a0)
f8001710:	00b52823          	sw	a1,16(a0)
f8001714:	00100593          	li	a1,1
f8001718:	00050d13          	mv	s10,a0
f800171c:	02b50023          	sb	a1,32(a0)
f8001720:	000a8513          	mv	a0,s5
f8001724:	000b0593          	mv	a1,s6
f8001728:	000a0613          	mv	a2,s4
f800172c:	00098693          	mv	a3,s3
f8001730:	00090713          	mv	a4,s2
f8001734:	00000097          	auipc	ra,0x0
f8001738:	174080e7          	jalr	372(ra) # f80018a8 <_ZN4core3fmt9Formatter12pad_integral12write_prefix17ha76341b5e4c83ea9E>
f800173c:	06051a63          	bnez	a0,f80017b0 <_ZN4core3fmt9Formatter12pad_integral17h014b911613ce7cefE+0x258>
f8001740:	417d8933          	sub	s2,s11,s7
f8001744:	00190913          	add	s2,s2,1
f8001748:	fff90913          	add	s2,s2,-1
f800174c:	12090063          	beqz	s2,f800186c <_ZN4core3fmt9Formatter12pad_integral17h014b911613ce7cefE+0x314>
f8001750:	010b2603          	lw	a2,16(s6)
f8001754:	03000593          	li	a1,48
f8001758:	000a8513          	mv	a0,s5
f800175c:	000600e7          	jalr	a2
f8001760:	fe0504e3          	beqz	a0,f8001748 <_ZN4core3fmt9Formatter12pad_integral17h014b911613ce7cefE+0x1f0>
f8001764:	04c0006f          	j	f80017b0 <_ZN4core3fmt9Formatter12pad_integral17h014b911613ce7cefE+0x258>
f8001768:	00200693          	li	a3,2
f800176c:	00d61a63          	bne	a2,a3,f8001780 <_ZN4core3fmt9Formatter12pad_integral17h014b911613ce7cefE+0x228>
f8001770:	00158613          	add	a2,a1,1
f8001774:	0015d593          	srl	a1,a1,0x1
f8001778:	00165c13          	srl	s8,a2,0x1
f800177c:	0080006f          	j	f8001784 <_ZN4core3fmt9Formatter12pad_integral17h014b911613ce7cefE+0x22c>
f8001780:	00000c13          	li	s8,0
f8001784:	01452a83          	lw	s5,20(a0)
f8001788:	01852b03          	lw	s6,24(a0)
f800178c:	01052b83          	lw	s7,16(a0)
f8001790:	00158c93          	add	s9,a1,1
f8001794:	fffc8c93          	add	s9,s9,-1
f8001798:	040c8c63          	beqz	s9,f80017f0 <_ZN4core3fmt9Formatter12pad_integral17h014b911613ce7cefE+0x298>
f800179c:	010b2603          	lw	a2,16(s6)
f80017a0:	000a8513          	mv	a0,s5
f80017a4:	000b8593          	mv	a1,s7
f80017a8:	000600e7          	jalr	a2
f80017ac:	fe0504e3          	beqz	a0,f8001794 <_ZN4core3fmt9Formatter12pad_integral17h014b911613ce7cefE+0x23c>
f80017b0:	00100513          	li	a0,1
f80017b4:	03c12083          	lw	ra,60(sp)
f80017b8:	03812403          	lw	s0,56(sp)
f80017bc:	03412483          	lw	s1,52(sp)
f80017c0:	03012903          	lw	s2,48(sp)
f80017c4:	02c12983          	lw	s3,44(sp)
f80017c8:	02812a03          	lw	s4,40(sp)
f80017cc:	02412a83          	lw	s5,36(sp)
f80017d0:	02012b03          	lw	s6,32(sp)
f80017d4:	01c12b83          	lw	s7,28(sp)
f80017d8:	01812c03          	lw	s8,24(sp)
f80017dc:	01412c83          	lw	s9,20(sp)
f80017e0:	01012d03          	lw	s10,16(sp)
f80017e4:	00c12d83          	lw	s11,12(sp)
f80017e8:	04010113          	add	sp,sp,64
f80017ec:	00008067          	ret
f80017f0:	000a8513          	mv	a0,s5
f80017f4:	000b0593          	mv	a1,s6
f80017f8:	000a0613          	mv	a2,s4
f80017fc:	00098693          	mv	a3,s3
f8001800:	00090713          	mv	a4,s2
f8001804:	00000097          	auipc	ra,0x0
f8001808:	0a4080e7          	jalr	164(ra) # f80018a8 <_ZN4core3fmt9Formatter12pad_integral12write_prefix17ha76341b5e4c83ea9E>
f800180c:	00050593          	mv	a1,a0
f8001810:	00100513          	li	a0,1
f8001814:	fa0590e3          	bnez	a1,f80017b4 <_ZN4core3fmt9Formatter12pad_integral17h014b911613ce7cefE+0x25c>
f8001818:	00cb2683          	lw	a3,12(s6)
f800181c:	000a8513          	mv	a0,s5
f8001820:	00048593          	mv	a1,s1
f8001824:	00040613          	mv	a2,s0
f8001828:	000680e7          	jalr	a3
f800182c:	00050593          	mv	a1,a0
f8001830:	00100513          	li	a0,1
f8001834:	f80590e3          	bnez	a1,f80017b4 <_ZN4core3fmt9Formatter12pad_integral17h014b911613ce7cefE+0x25c>
f8001838:	418004b3          	neg	s1,s8
f800183c:	fff00913          	li	s2,-1
f8001840:	fff00413          	li	s0,-1
f8001844:	00848533          	add	a0,s1,s0
f8001848:	05250a63          	beq	a0,s2,f800189c <_ZN4core3fmt9Formatter12pad_integral17h014b911613ce7cefE+0x344>
f800184c:	010b2603          	lw	a2,16(s6)
f8001850:	000a8513          	mv	a0,s5
f8001854:	000b8593          	mv	a1,s7
f8001858:	000600e7          	jalr	a2
f800185c:	00140413          	add	s0,s0,1
f8001860:	fe0502e3          	beqz	a0,f8001844 <_ZN4core3fmt9Formatter12pad_integral17h014b911613ce7cefE+0x2ec>
f8001864:	01843533          	sltu	a0,s0,s8
f8001868:	f4dff06f          	j	f80017b4 <_ZN4core3fmt9Formatter12pad_integral17h014b911613ce7cefE+0x25c>
f800186c:	00cb2683          	lw	a3,12(s6)
f8001870:	000a8513          	mv	a0,s5
f8001874:	00048593          	mv	a1,s1
f8001878:	00040613          	mv	a2,s0
f800187c:	000680e7          	jalr	a3
f8001880:	00050593          	mv	a1,a0
f8001884:	00100513          	li	a0,1
f8001888:	f20596e3          	bnez	a1,f80017b4 <_ZN4core3fmt9Formatter12pad_integral17h014b911613ce7cefE+0x25c>
f800188c:	00000513          	li	a0,0
f8001890:	018d2823          	sw	s8,16(s10)
f8001894:	039d0023          	sb	s9,32(s10)
f8001898:	f1dff06f          	j	f80017b4 <_ZN4core3fmt9Formatter12pad_integral17h014b911613ce7cefE+0x25c>
f800189c:	000c0413          	mv	s0,s8
f80018a0:	018c3533          	sltu	a0,s8,s8
f80018a4:	f11ff06f          	j	f80017b4 <_ZN4core3fmt9Formatter12pad_integral17h014b911613ce7cefE+0x25c>

f80018a8 <_ZN4core3fmt9Formatter12pad_integral12write_prefix17ha76341b5e4c83ea9E>:
f80018a8:	fe010113          	add	sp,sp,-32
f80018ac:	00112e23          	sw	ra,28(sp)
f80018b0:	00812c23          	sw	s0,24(sp)
f80018b4:	00912a23          	sw	s1,20(sp)
f80018b8:	01212823          	sw	s2,16(sp)
f80018bc:	01312623          	sw	s3,12(sp)
f80018c0:	001107b7          	lui	a5,0x110
f80018c4:	00070413          	mv	s0,a4
f80018c8:	00068493          	mv	s1,a3
f80018cc:	00058913          	mv	s2,a1
f80018d0:	02f60263          	beq	a2,a5,f80018f4 <_ZN4core3fmt9Formatter12pad_integral12write_prefix17ha76341b5e4c83ea9E+0x4c>
f80018d4:	01092683          	lw	a3,16(s2)
f80018d8:	00050993          	mv	s3,a0
f80018dc:	00060593          	mv	a1,a2
f80018e0:	000680e7          	jalr	a3
f80018e4:	00050613          	mv	a2,a0
f80018e8:	00098513          	mv	a0,s3
f80018ec:	00100593          	li	a1,1
f80018f0:	02061a63          	bnez	a2,f8001924 <_ZN4core3fmt9Formatter12pad_integral12write_prefix17ha76341b5e4c83ea9E+0x7c>
f80018f4:	02048663          	beqz	s1,f8001920 <_ZN4core3fmt9Formatter12pad_integral12write_prefix17ha76341b5e4c83ea9E+0x78>
f80018f8:	00c92303          	lw	t1,12(s2)
f80018fc:	00048593          	mv	a1,s1
f8001900:	00040613          	mv	a2,s0
f8001904:	01c12083          	lw	ra,28(sp)
f8001908:	01812403          	lw	s0,24(sp)
f800190c:	01412483          	lw	s1,20(sp)
f8001910:	01012903          	lw	s2,16(sp)
f8001914:	00c12983          	lw	s3,12(sp)
f8001918:	02010113          	add	sp,sp,32
f800191c:	00030067          	jr	t1
f8001920:	00000593          	li	a1,0
f8001924:	00058513          	mv	a0,a1
f8001928:	01c12083          	lw	ra,28(sp)
f800192c:	01812403          	lw	s0,24(sp)
f8001930:	01412483          	lw	s1,20(sp)
f8001934:	01012903          	lw	s2,16(sp)
f8001938:	00c12983          	lw	s3,12(sp)
f800193c:	02010113          	add	sp,sp,32
f8001940:	00008067          	ret

f8001944 <_ZN4core3fmt9Formatter3pad17h3194e2777058ca70E>:
f8001944:	fe010113          	add	sp,sp,-32
f8001948:	00112e23          	sw	ra,28(sp)
f800194c:	00812c23          	sw	s0,24(sp)
f8001950:	00912a23          	sw	s1,20(sp)
f8001954:	01212823          	sw	s2,16(sp)
f8001958:	01312623          	sw	s3,12(sp)
f800195c:	01412423          	sw	s4,8(sp)
f8001960:	01512223          	sw	s5,4(sp)
f8001964:	01612023          	sw	s6,0(sp)
f8001968:	00052683          	lw	a3,0(a0)
f800196c:	00852703          	lw	a4,8(a0)
f8001970:	00e6e7b3          	or	a5,a3,a4
f8001974:	00060413          	mv	s0,a2
f8001978:	00058493          	mv	s1,a1
f800197c:	12078663          	beqz	a5,f8001aa8 <_ZN4core3fmt9Formatter3pad17h3194e2777058ca70E+0x164>
f8001980:	0a070863          	beqz	a4,f8001a30 <_ZN4core3fmt9Formatter3pad17h3194e2777058ca70E+0xec>
f8001984:	00c52703          	lw	a4,12(a0)
f8001988:	00848633          	add	a2,s1,s0
f800198c:	00000593          	li	a1,0
f8001990:	04070e63          	beqz	a4,f80019ec <_ZN4core3fmt9Formatter3pad17h3194e2777058ca70E+0xa8>
f8001994:	0e000793          	li	a5,224
f8001998:	0f000813          	li	a6,240
f800199c:	00048893          	mv	a7,s1
f80019a0:	01c0006f          	j	f80019bc <_ZN4core3fmt9Formatter3pad17h3194e2777058ca70E+0x78>
f80019a4:	00188293          	add	t0,a7,1
f80019a8:	40b885b3          	sub	a1,a7,a1
f80019ac:	fff70713          	add	a4,a4,-1
f80019b0:	40b285b3          	sub	a1,t0,a1
f80019b4:	00028893          	mv	a7,t0
f80019b8:	02070c63          	beqz	a4,f80019f0 <_ZN4core3fmt9Formatter3pad17h3194e2777058ca70E+0xac>
f80019bc:	06c88a63          	beq	a7,a2,f8001a30 <_ZN4core3fmt9Formatter3pad17h3194e2777058ca70E+0xec>
f80019c0:	00088283          	lb	t0,0(a7)
f80019c4:	fe02d0e3          	bgez	t0,f80019a4 <_ZN4core3fmt9Formatter3pad17h3194e2777058ca70E+0x60>
f80019c8:	0ff2f293          	zext.b	t0,t0
f80019cc:	00f2e863          	bltu	t0,a5,f80019dc <_ZN4core3fmt9Formatter3pad17h3194e2777058ca70E+0x98>
f80019d0:	0102ea63          	bltu	t0,a6,f80019e4 <_ZN4core3fmt9Formatter3pad17h3194e2777058ca70E+0xa0>
f80019d4:	00488293          	add	t0,a7,4
f80019d8:	fd1ff06f          	j	f80019a8 <_ZN4core3fmt9Formatter3pad17h3194e2777058ca70E+0x64>
f80019dc:	00288293          	add	t0,a7,2
f80019e0:	fc9ff06f          	j	f80019a8 <_ZN4core3fmt9Formatter3pad17h3194e2777058ca70E+0x64>
f80019e4:	00388293          	add	t0,a7,3
f80019e8:	fc1ff06f          	j	f80019a8 <_ZN4core3fmt9Formatter3pad17h3194e2777058ca70E+0x64>
f80019ec:	00048293          	mv	t0,s1
f80019f0:	04c28063          	beq	t0,a2,f8001a30 <_ZN4core3fmt9Formatter3pad17h3194e2777058ca70E+0xec>
f80019f4:	00028603          	lb	a2,0(t0)
f80019f8:	00064663          	bltz	a2,f8001a04 <_ZN4core3fmt9Formatter3pad17h3194e2777058ca70E+0xc0>
f80019fc:	00059a63          	bnez	a1,f8001a10 <_ZN4core3fmt9Formatter3pad17h3194e2777058ca70E+0xcc>
f8001a00:	02c0006f          	j	f8001a2c <_ZN4core3fmt9Formatter3pad17h3194e2777058ca70E+0xe8>
f8001a04:	0ff67613          	zext.b	a2,a2
f8001a08:	0e000713          	li	a4,224
f8001a0c:	02058063          	beqz	a1,f8001a2c <_ZN4core3fmt9Formatter3pad17h3194e2777058ca70E+0xe8>
f8001a10:	0085fc63          	bgeu	a1,s0,f8001a28 <_ZN4core3fmt9Formatter3pad17h3194e2777058ca70E+0xe4>
f8001a14:	00b48633          	add	a2,s1,a1
f8001a18:	00060603          	lb	a2,0(a2)
f8001a1c:	fbf00713          	li	a4,-65
f8001a20:	00c74663          	blt	a4,a2,f8001a2c <_ZN4core3fmt9Formatter3pad17h3194e2777058ca70E+0xe8>
f8001a24:	00c0006f          	j	f8001a30 <_ZN4core3fmt9Formatter3pad17h3194e2777058ca70E+0xec>
f8001a28:	00859463          	bne	a1,s0,f8001a30 <_ZN4core3fmt9Formatter3pad17h3194e2777058ca70E+0xec>
f8001a2c:	00058413          	mv	s0,a1
f8001a30:	06068c63          	beqz	a3,f8001aa8 <_ZN4core3fmt9Formatter3pad17h3194e2777058ca70E+0x164>
f8001a34:	00452903          	lw	s2,4(a0)
f8001a38:	01000593          	li	a1,16
f8001a3c:	04b47663          	bgeu	s0,a1,f8001a88 <_ZN4core3fmt9Formatter3pad17h3194e2777058ca70E+0x144>
f8001a40:	00000593          	li	a1,0
f8001a44:	02040263          	beqz	s0,f8001a68 <_ZN4core3fmt9Formatter3pad17h3194e2777058ca70E+0x124>
f8001a48:	00848633          	add	a2,s1,s0
f8001a4c:	00048693          	mv	a3,s1
f8001a50:	00068703          	lb	a4,0(a3)
f8001a54:	fc072713          	slti	a4,a4,-64
f8001a58:	00174713          	xor	a4,a4,1
f8001a5c:	00168693          	add	a3,a3,1
f8001a60:	00e585b3          	add	a1,a1,a4
f8001a64:	fec696e3          	bne	a3,a2,f8001a50 <_ZN4core3fmt9Formatter3pad17h3194e2777058ca70E+0x10c>
f8001a68:	0525f063          	bgeu	a1,s2,f8001aa8 <_ZN4core3fmt9Formatter3pad17h3194e2777058ca70E+0x164>
f8001a6c:	02054603          	lbu	a2,32(a0)
f8001a70:	00100693          	li	a3,1
f8001a74:	40b905b3          	sub	a1,s2,a1
f8001a78:	06c6c663          	blt	a3,a2,f8001ae4 <_ZN4core3fmt9Formatter3pad17h3194e2777058ca70E+0x1a0>
f8001a7c:	08060063          	beqz	a2,f8001afc <_ZN4core3fmt9Formatter3pad17h3194e2777058ca70E+0x1b8>
f8001a80:	00000a13          	li	s4,0
f8001a84:	0800006f          	j	f8001b04 <_ZN4core3fmt9Formatter3pad17h3194e2777058ca70E+0x1c0>
f8001a88:	00050993          	mv	s3,a0
f8001a8c:	00048513          	mv	a0,s1
f8001a90:	00040593          	mv	a1,s0
f8001a94:	00000097          	auipc	ra,0x0
f8001a98:	26c080e7          	jalr	620(ra) # f8001d00 <_ZN4core3str5count14do_count_chars17h336dd2fdca9470c8E>
f8001a9c:	00050593          	mv	a1,a0
f8001aa0:	00098513          	mv	a0,s3
f8001aa4:	fd25e4e3          	bltu	a1,s2,f8001a6c <_ZN4core3fmt9Formatter3pad17h3194e2777058ca70E+0x128>
f8001aa8:	01852583          	lw	a1,24(a0)
f8001aac:	01452503          	lw	a0,20(a0)
f8001ab0:	00c5a303          	lw	t1,12(a1)
f8001ab4:	00048593          	mv	a1,s1
f8001ab8:	00040613          	mv	a2,s0
f8001abc:	01c12083          	lw	ra,28(sp)
f8001ac0:	01812403          	lw	s0,24(sp)
f8001ac4:	01412483          	lw	s1,20(sp)
f8001ac8:	01012903          	lw	s2,16(sp)
f8001acc:	00c12983          	lw	s3,12(sp)
f8001ad0:	00812a03          	lw	s4,8(sp)
f8001ad4:	00412a83          	lw	s5,4(sp)
f8001ad8:	00012b03          	lw	s6,0(sp)
f8001adc:	02010113          	add	sp,sp,32
f8001ae0:	00030067          	jr	t1
f8001ae4:	00200693          	li	a3,2
f8001ae8:	00d61a63          	bne	a2,a3,f8001afc <_ZN4core3fmt9Formatter3pad17h3194e2777058ca70E+0x1b8>
f8001aec:	00158613          	add	a2,a1,1
f8001af0:	0015d593          	srl	a1,a1,0x1
f8001af4:	00165a13          	srl	s4,a2,0x1
f8001af8:	00c0006f          	j	f8001b04 <_ZN4core3fmt9Formatter3pad17h3194e2777058ca70E+0x1c0>
f8001afc:	00058a13          	mv	s4,a1
f8001b00:	00000593          	li	a1,0
f8001b04:	01452903          	lw	s2,20(a0)
f8001b08:	01852a83          	lw	s5,24(a0)
f8001b0c:	01052983          	lw	s3,16(a0)
f8001b10:	00158b13          	add	s6,a1,1
f8001b14:	fffb0b13          	add	s6,s6,-1
f8001b18:	020b0063          	beqz	s6,f8001b38 <_ZN4core3fmt9Formatter3pad17h3194e2777058ca70E+0x1f4>
f8001b1c:	010aa603          	lw	a2,16(s5)
f8001b20:	00090513          	mv	a0,s2
f8001b24:	00098593          	mv	a1,s3
f8001b28:	000600e7          	jalr	a2
f8001b2c:	fe0504e3          	beqz	a0,f8001b14 <_ZN4core3fmt9Formatter3pad17h3194e2777058ca70E+0x1d0>
f8001b30:	00100513          	li	a0,1
f8001b34:	05c0006f          	j	f8001b90 <_ZN4core3fmt9Formatter3pad17h3194e2777058ca70E+0x24c>
f8001b38:	00caa683          	lw	a3,12(s5)
f8001b3c:	00090513          	mv	a0,s2
f8001b40:	00048593          	mv	a1,s1
f8001b44:	00040613          	mv	a2,s0
f8001b48:	000680e7          	jalr	a3
f8001b4c:	00050593          	mv	a1,a0
f8001b50:	00100513          	li	a0,1
f8001b54:	02059e63          	bnez	a1,f8001b90 <_ZN4core3fmt9Formatter3pad17h3194e2777058ca70E+0x24c>
f8001b58:	414004b3          	neg	s1,s4
f8001b5c:	fff00b13          	li	s6,-1
f8001b60:	fff00413          	li	s0,-1
f8001b64:	00848533          	add	a0,s1,s0
f8001b68:	03650063          	beq	a0,s6,f8001b88 <_ZN4core3fmt9Formatter3pad17h3194e2777058ca70E+0x244>
f8001b6c:	010aa603          	lw	a2,16(s5)
f8001b70:	00090513          	mv	a0,s2
f8001b74:	00098593          	mv	a1,s3
f8001b78:	000600e7          	jalr	a2
f8001b7c:	00140413          	add	s0,s0,1
f8001b80:	fe0502e3          	beqz	a0,f8001b64 <_ZN4core3fmt9Formatter3pad17h3194e2777058ca70E+0x220>
f8001b84:	0080006f          	j	f8001b8c <_ZN4core3fmt9Formatter3pad17h3194e2777058ca70E+0x248>
f8001b88:	000a0413          	mv	s0,s4
f8001b8c:	01443533          	sltu	a0,s0,s4
f8001b90:	01c12083          	lw	ra,28(sp)
f8001b94:	01812403          	lw	s0,24(sp)
f8001b98:	01412483          	lw	s1,20(sp)
f8001b9c:	01012903          	lw	s2,16(sp)
f8001ba0:	00c12983          	lw	s3,12(sp)
f8001ba4:	00812a03          	lw	s4,8(sp)
f8001ba8:	00412a83          	lw	s5,4(sp)
f8001bac:	00012b03          	lw	s6,0(sp)
f8001bb0:	02010113          	add	sp,sp,32
f8001bb4:	00008067          	ret

f8001bb8 <_ZN42_$LT$str$u20$as$u20$core..fmt..Display$GT$3fmt17he3550b0d21ab6340E>:
f8001bb8:	00058693          	mv	a3,a1
f8001bbc:	00050593          	mv	a1,a0
f8001bc0:	00060513          	mv	a0,a2
f8001bc4:	00068613          	mv	a2,a3
f8001bc8:	00000317          	auipc	t1,0x0
f8001bcc:	d7c30067          	jr	-644(t1) # f8001944 <_ZN4core3fmt9Formatter3pad17h3194e2777058ca70E>

f8001bd0 <_ZN42_$LT$$RF$T$u20$as$u20$core..fmt..Debug$GT$3fmt17heaae198a6eb7ca72E>:
f8001bd0:	00452603          	lw	a2,4(a0)
f8001bd4:	00052503          	lw	a0,0(a0)
f8001bd8:	00c62303          	lw	t1,12(a2)
f8001bdc:	00030067          	jr	t1

f8001be0 <_ZN44_$LT$$RF$T$u20$as$u20$core..fmt..Display$GT$3fmt17h9cd1463d12d70e7fE>:
f8001be0:	00052683          	lw	a3,0(a0)
f8001be4:	00452603          	lw	a2,4(a0)
f8001be8:	00058513          	mv	a0,a1
f8001bec:	00068593          	mv	a1,a3
f8001bf0:	00000317          	auipc	t1,0x0
f8001bf4:	d5430067          	jr	-684(t1) # f8001944 <_ZN4core3fmt9Formatter3pad17h3194e2777058ca70E>

f8001bf8 <_ZN4core9panicking9panic_fmt17h94035f4149eaf451E>:
f8001bf8:	fe010113          	add	sp,sp,-32
f8001bfc:	01452603          	lw	a2,20(a0)
f8001c00:	01052683          	lw	a3,16(a0)
f8001c04:	00c12a23          	sw	a2,20(sp)
f8001c08:	00d12823          	sw	a3,16(sp)
f8001c0c:	00c52603          	lw	a2,12(a0)
f8001c10:	00852683          	lw	a3,8(a0)
f8001c14:	00452703          	lw	a4,4(a0)
f8001c18:	00052503          	lw	a0,0(a0)
f8001c1c:	00c12623          	sw	a2,12(sp)
f8001c20:	00d12423          	sw	a3,8(sp)
f8001c24:	00e12223          	sw	a4,4(sp)
f8001c28:	00a12023          	sw	a0,0(sp)
f8001c2c:	00b12c23          	sw	a1,24(sp)
f8001c30:	00100513          	li	a0,1
f8001c34:	00a11e23          	sh	a0,28(sp)
f8001c38:	00010513          	mv	a0,sp
f8001c3c:	fffff097          	auipc	ra,0xfffff
f8001c40:	388080e7          	jalr	904(ra) # f8000fc4 <rust_begin_unwind>

f8001c44 <_ZN4core9panicking18panic_nounwind_fmt17h711f3e426d0d09a3E>:
f8001c44:	fe010113          	add	sp,sp,-32
f8001c48:	01452683          	lw	a3,20(a0)
f8001c4c:	01052703          	lw	a4,16(a0)
f8001c50:	00d12a23          	sw	a3,20(sp)
f8001c54:	00e12823          	sw	a4,16(sp)
f8001c58:	00c52683          	lw	a3,12(a0)
f8001c5c:	00852703          	lw	a4,8(a0)
f8001c60:	00452783          	lw	a5,4(a0)
f8001c64:	00052503          	lw	a0,0(a0)
f8001c68:	00d12623          	sw	a3,12(sp)
f8001c6c:	00e12423          	sw	a4,8(sp)
f8001c70:	00f12223          	sw	a5,4(sp)
f8001c74:	00a12023          	sw	a0,0(sp)
f8001c78:	00c12c23          	sw	a2,24(sp)
f8001c7c:	00010e23          	sb	zero,28(sp)
f8001c80:	00b10ea3          	sb	a1,29(sp)
f8001c84:	00010513          	mv	a0,sp
f8001c88:	fffff097          	auipc	ra,0xfffff
f8001c8c:	33c080e7          	jalr	828(ra) # f8000fc4 <rust_begin_unwind>

f8001c90 <_ZN4core6result13unwrap_failed17h833a772dbeb66d36E>:
f8001c90:	fc010113          	add	sp,sp,-64
f8001c94:	00a12423          	sw	a0,8(sp)
f8001c98:	00b12623          	sw	a1,12(sp)
f8001c9c:	00c12823          	sw	a2,16(sp)
f8001ca0:	00d12a23          	sw	a3,20(sp)
f8001ca4:	00810513          	add	a0,sp,8
f8001ca8:	02a12823          	sw	a0,48(sp)
f8001cac:	f8002537          	lui	a0,0xf8002
f8001cb0:	be050513          	add	a0,a0,-1056 # f8001be0 <_ZN44_$LT$$RF$T$u20$as$u20$core..fmt..Display$GT$3fmt17h9cd1463d12d70e7fE>
f8001cb4:	02a12a23          	sw	a0,52(sp)
f8001cb8:	01010513          	add	a0,sp,16
f8001cbc:	02a12c23          	sw	a0,56(sp)
f8001cc0:	f8002537          	lui	a0,0xf8002
f8001cc4:	bd050513          	add	a0,a0,-1072 # f8001bd0 <_ZN42_$LT$$RF$T$u20$as$u20$core..fmt..Debug$GT$3fmt17heaae198a6eb7ca72E>
f8001cc8:	02a12e23          	sw	a0,60(sp)
f8001ccc:	f8002537          	lui	a0,0xf8002
f8001cd0:	4d050513          	add	a0,a0,1232 # f80024d0 <.Lanon.d39f2a4661916b36c21657248c14321a.36>
f8001cd4:	00a12c23          	sw	a0,24(sp)
f8001cd8:	00200513          	li	a0,2
f8001cdc:	00a12e23          	sw	a0,28(sp)
f8001ce0:	02012423          	sw	zero,40(sp)
f8001ce4:	03010593          	add	a1,sp,48
f8001ce8:	02b12023          	sw	a1,32(sp)
f8001cec:	02a12223          	sw	a0,36(sp)
f8001cf0:	01810513          	add	a0,sp,24
f8001cf4:	00070593          	mv	a1,a4
f8001cf8:	00000097          	auipc	ra,0x0
f8001cfc:	f00080e7          	jalr	-256(ra) # f8001bf8 <_ZN4core9panicking9panic_fmt17h94035f4149eaf451E>

f8001d00 <_ZN4core3str5count14do_count_chars17h336dd2fdca9470c8E>:
f8001d00:	00050613          	mv	a2,a0
f8001d04:	00350693          	add	a3,a0,3
f8001d08:	ffc6f693          	and	a3,a3,-4
f8001d0c:	40a682b3          	sub	t0,a3,a0
f8001d10:	1655e263          	bltu	a1,t0,f8001e74 <_ZN4core3str5count14do_count_chars17h336dd2fdca9470c8E+0x174>
f8001d14:	40558733          	sub	a4,a1,t0
f8001d18:	00275893          	srl	a7,a4,0x2
f8001d1c:	14088c63          	beqz	a7,f8001e74 <_ZN4core3str5count14do_count_chars17h336dd2fdca9470c8E+0x174>
f8001d20:	005602b3          	add	t0,a2,t0
f8001d24:	00377593          	and	a1,a4,3
f8001d28:	00000513          	li	a0,0
f8001d2c:	00c68e63          	beq	a3,a2,f8001d48 <_ZN4core3str5count14do_count_chars17h336dd2fdca9470c8E+0x48>
f8001d30:	00060783          	lb	a5,0(a2)
f8001d34:	fc07a793          	slti	a5,a5,-64
f8001d38:	0017c793          	xor	a5,a5,1
f8001d3c:	00160613          	add	a2,a2,1
f8001d40:	00f50533          	add	a0,a0,a5
f8001d44:	fe5616e3          	bne	a2,t0,f8001d30 <_ZN4core3str5count14do_count_chars17h336dd2fdca9470c8E+0x30>
f8001d48:	00000793          	li	a5,0
f8001d4c:	02058663          	beqz	a1,f8001d78 <_ZN4core3str5count14do_count_chars17h336dd2fdca9470c8E+0x78>
f8001d50:	ffc77713          	and	a4,a4,-4
f8001d54:	00e28633          	add	a2,t0,a4
f8001d58:	00d706b3          	add	a3,a4,a3
f8001d5c:	00b685b3          	add	a1,a3,a1
f8001d60:	00060683          	lb	a3,0(a2)
f8001d64:	fc06a693          	slti	a3,a3,-64
f8001d68:	0016c693          	xor	a3,a3,1
f8001d6c:	00160613          	add	a2,a2,1
f8001d70:	00d787b3          	add	a5,a5,a3
f8001d74:	feb616e3          	bne	a2,a1,f8001d60 <_ZN4core3str5count14do_count_chars17h336dd2fdca9470c8E+0x60>
f8001d78:	010105b7          	lui	a1,0x1010
f8001d7c:	10158613          	add	a2,a1,257 # 1010101 <__rust_no_alloc_shim_is_unstable+0x100d9e0>
f8001d80:	00ff05b7          	lui	a1,0xff0
f8001d84:	0ff58593          	add	a1,a1,255 # ff00ff <__rust_no_alloc_shim_is_unstable+0xfed9de>
f8001d88:	00a78533          	add	a0,a5,a0
f8001d8c:	00400793          	li	a5,4
f8001d90:	0340006f          	j	f8001dc4 <_ZN4core3str5count14do_count_chars17h336dd2fdca9470c8E+0xc4>
f8001d94:	005702b3          	add	t0,a4,t0
f8001d98:	410688b3          	sub	a7,a3,a6
f8001d9c:	00387313          	and	t1,a6,3
f8001da0:	00b3fe33          	and	t3,t2,a1
f8001da4:	0083d393          	srl	t2,t2,0x8
f8001da8:	00b3f3b3          	and	t2,t2,a1
f8001dac:	01c383b3          	add	t2,t2,t3
f8001db0:	01039e13          	sll	t3,t2,0x10
f8001db4:	007e03b3          	add	t2,t3,t2
f8001db8:	0103d393          	srl	t2,t2,0x10
f8001dbc:	00a38533          	add	a0,t2,a0
f8001dc0:	0c031e63          	bnez	t1,f8001e9c <_ZN4core3str5count14do_count_chars17h336dd2fdca9470c8E+0x19c>
f8001dc4:	0c088a63          	beqz	a7,f8001e98 <_ZN4core3str5count14do_count_chars17h336dd2fdca9470c8E+0x198>
f8001dc8:	00028713          	mv	a4,t0
f8001dcc:	00088693          	mv	a3,a7
f8001dd0:	0c000893          	li	a7,192
f8001dd4:	00068813          	mv	a6,a3
f8001dd8:	0116e463          	bltu	a3,a7,f8001de0 <_ZN4core3str5count14do_count_chars17h336dd2fdca9470c8E+0xe0>
f8001ddc:	0c000813          	li	a6,192
f8001de0:	00281293          	sll	t0,a6,0x2
f8001de4:	00000393          	li	t2,0
f8001de8:	faf6e6e3          	bltu	a3,a5,f8001d94 <_ZN4core3str5count14do_count_chars17h336dd2fdca9470c8E+0x94>
f8001dec:	3f02f893          	and	a7,t0,1008
f8001df0:	011708b3          	add	a7,a4,a7
f8001df4:	00070313          	mv	t1,a4
f8001df8:	00032e03          	lw	t3,0(t1)
f8001dfc:	fffe4e93          	not	t4,t3
f8001e00:	007ede93          	srl	t4,t4,0x7
f8001e04:	006e5e13          	srl	t3,t3,0x6
f8001e08:	00432f03          	lw	t5,4(t1)
f8001e0c:	01ceee33          	or	t3,t4,t3
f8001e10:	00ce7e33          	and	t3,t3,a2
f8001e14:	007e03b3          	add	t2,t3,t2
f8001e18:	ffff4e13          	not	t3,t5
f8001e1c:	007e5e13          	srl	t3,t3,0x7
f8001e20:	00832e83          	lw	t4,8(t1)
f8001e24:	006f5f13          	srl	t5,t5,0x6
f8001e28:	01ee6e33          	or	t3,t3,t5
f8001e2c:	00ce7e33          	and	t3,t3,a2
f8001e30:	fffecf13          	not	t5,t4
f8001e34:	007f5f13          	srl	t5,t5,0x7
f8001e38:	006ede93          	srl	t4,t4,0x6
f8001e3c:	01df6eb3          	or	t4,t5,t4
f8001e40:	00c32f03          	lw	t5,12(t1)
f8001e44:	00cefeb3          	and	t4,t4,a2
f8001e48:	01de0e33          	add	t3,t3,t4
f8001e4c:	01c383b3          	add	t2,t2,t3
f8001e50:	ffff4e13          	not	t3,t5
f8001e54:	007e5e13          	srl	t3,t3,0x7
f8001e58:	006f5e93          	srl	t4,t5,0x6
f8001e5c:	01de6e33          	or	t3,t3,t4
f8001e60:	00ce7e33          	and	t3,t3,a2
f8001e64:	01030313          	add	t1,t1,16
f8001e68:	01c383b3          	add	t2,t2,t3
f8001e6c:	f91316e3          	bne	t1,a7,f8001df8 <_ZN4core3str5count14do_count_chars17h336dd2fdca9470c8E+0xf8>
f8001e70:	f25ff06f          	j	f8001d94 <_ZN4core3str5count14do_count_chars17h336dd2fdca9470c8E+0x94>
f8001e74:	00000513          	li	a0,0
f8001e78:	02058063          	beqz	a1,f8001e98 <_ZN4core3str5count14do_count_chars17h336dd2fdca9470c8E+0x198>
f8001e7c:	00b605b3          	add	a1,a2,a1
f8001e80:	00060683          	lb	a3,0(a2)
f8001e84:	fc06a693          	slti	a3,a3,-64
f8001e88:	0016c693          	xor	a3,a3,1
f8001e8c:	00160613          	add	a2,a2,1
f8001e90:	00d50533          	add	a0,a0,a3
f8001e94:	feb616e3          	bne	a2,a1,f8001e80 <_ZN4core3str5count14do_count_chars17h336dd2fdca9470c8E+0x180>
f8001e98:	00008067          	ret
f8001e9c:	00000793          	li	a5,0
f8001ea0:	0fc87813          	and	a6,a6,252
f8001ea4:	00281813          	sll	a6,a6,0x2
f8001ea8:	01070733          	add	a4,a4,a6
f8001eac:	0c06b813          	sltiu	a6,a3,192
f8001eb0:	41000833          	neg	a6,a6
f8001eb4:	0106f6b3          	and	a3,a3,a6
f8001eb8:	0036f693          	and	a3,a3,3
f8001ebc:	00269693          	sll	a3,a3,0x2
f8001ec0:	00072803          	lw	a6,0(a4)
f8001ec4:	00470713          	add	a4,a4,4
f8001ec8:	fff84893          	not	a7,a6
f8001ecc:	0078d893          	srl	a7,a7,0x7
f8001ed0:	00685813          	srl	a6,a6,0x6
f8001ed4:	0108e833          	or	a6,a7,a6
f8001ed8:	00c87833          	and	a6,a6,a2
f8001edc:	ffc68693          	add	a3,a3,-4
f8001ee0:	00f807b3          	add	a5,a6,a5
f8001ee4:	fc069ee3          	bnez	a3,f8001ec0 <_ZN4core3str5count14do_count_chars17h336dd2fdca9470c8E+0x1c0>
f8001ee8:	00b7f633          	and	a2,a5,a1
f8001eec:	0087d793          	srl	a5,a5,0x8
f8001ef0:	00b7f5b3          	and	a1,a5,a1
f8001ef4:	00c585b3          	add	a1,a1,a2
f8001ef8:	01059613          	sll	a2,a1,0x10
f8001efc:	00b605b3          	add	a1,a2,a1
f8001f00:	0105d593          	srl	a1,a1,0x10
f8001f04:	00a58533          	add	a0,a1,a0
f8001f08:	00008067          	ret

f8001f0c <_ZN4core3fmt3num3imp7fmt_u3217he64669e711a50028E.llvm.13607076540238338396>:
f8001f0c:	fd010113          	add	sp,sp,-48
f8001f10:	02112623          	sw	ra,44(sp)
f8001f14:	00060693          	mv	a3,a2
f8001f18:	00455713          	srl	a4,a0,0x4
f8001f1c:	27100793          	li	a5,625
f8001f20:	02700613          	li	a2,39
f8001f24:	0af76463          	bltu	a4,a5,f8001fcc <_ZN4core3fmt3num3imp7fmt_u3217he64669e711a50028E.llvm.13607076540238338396+0xc0>
f8001f28:	02700613          	li	a2,39
f8001f2c:	02a10713          	add	a4,sp,42
f8001f30:	d1b717b7          	lui	a5,0xd1b71
f8001f34:	75978793          	add	a5,a5,1881 # d1b71759 <__stack_ptr+0xc9b71759>
f8001f38:	00002837          	lui	a6,0x2
f8001f3c:	71080813          	add	a6,a6,1808 # 2710 <_ZN10alloc_sgfx9ALLOCATOR17h5b9277964cab8dfbE>
f8001f40:	000018b7          	lui	a7,0x1
f8001f44:	47b88893          	add	a7,a7,1147 # 147b <__global_pointer+0xc7b>
f8001f48:	06400293          	li	t0,100
f8001f4c:	f8002337          	lui	t1,0xf8002
f8001f50:	40430313          	add	t1,t1,1028 # f8002404 <anon.5b4181c490521b0b2dcd1d17234b79cf.5.llvm.5401255529112474680>
f8001f54:	05f5e3b7          	lui	t2,0x5f5e
f8001f58:	0ff38393          	add	t2,t2,255 # 5f5e0ff <__rust_no_alloc_shim_is_unstable+0x5f5b9de>
f8001f5c:	00050e13          	mv	t3,a0
f8001f60:	02f53533          	mulhu	a0,a0,a5
f8001f64:	00d55513          	srl	a0,a0,0xd
f8001f68:	03050eb3          	mul	t4,a0,a6
f8001f6c:	41de0eb3          	sub	t4,t3,t4
f8001f70:	010e9f13          	sll	t5,t4,0x10
f8001f74:	012f5f13          	srl	t5,t5,0x12
f8001f78:	031f0f33          	mul	t5,t5,a7
f8001f7c:	011f5f93          	srl	t6,t5,0x11
f8001f80:	010f5f13          	srl	t5,t5,0x10
f8001f84:	7fef7f13          	and	t5,t5,2046
f8001f88:	025f8fb3          	mul	t6,t6,t0
f8001f8c:	41fe8eb3          	sub	t4,t4,t6
f8001f90:	01e30f33          	add	t5,t1,t5
f8001f94:	001f4f83          	lbu	t6,1(t5)
f8001f98:	011e9e93          	sll	t4,t4,0x11
f8001f9c:	010ede93          	srl	t4,t4,0x10
f8001fa0:	000f4f03          	lbu	t5,0(t5)
f8001fa4:	fff70fa3          	sb	t6,-1(a4)
f8001fa8:	01d30eb3          	add	t4,t1,t4
f8001fac:	001ecf83          	lbu	t6,1(t4)
f8001fb0:	000ece83          	lbu	t4,0(t4)
f8001fb4:	ffc60613          	add	a2,a2,-4
f8001fb8:	ffe70f23          	sb	t5,-2(a4)
f8001fbc:	01f700a3          	sb	t6,1(a4)
f8001fc0:	01d70023          	sb	t4,0(a4)
f8001fc4:	ffc70713          	add	a4,a4,-4
f8001fc8:	f9c3eae3          	bltu	t2,t3,f8001f5c <_ZN4core3fmt3num3imp7fmt_u3217he64669e711a50028E.llvm.13607076540238338396+0x50>
f8001fcc:	06300713          	li	a4,99
f8001fd0:	04a77e63          	bgeu	a4,a0,f800202c <_ZN4core3fmt3num3imp7fmt_u3217he64669e711a50028E.llvm.13607076540238338396+0x120>
f8001fd4:	01051713          	sll	a4,a0,0x10
f8001fd8:	01275713          	srl	a4,a4,0x12
f8001fdc:	000017b7          	lui	a5,0x1
f8001fe0:	47b78793          	add	a5,a5,1147 # 147b <__global_pointer+0xc7b>
f8001fe4:	02f70733          	mul	a4,a4,a5
f8001fe8:	01175713          	srl	a4,a4,0x11
f8001fec:	06400793          	li	a5,100
f8001ff0:	02f707b3          	mul	a5,a4,a5
f8001ff4:	40f50533          	sub	a0,a0,a5
f8001ff8:	01151513          	sll	a0,a0,0x11
f8001ffc:	01055513          	srl	a0,a0,0x10
f8002000:	ffe60613          	add	a2,a2,-2
f8002004:	f80027b7          	lui	a5,0xf8002
f8002008:	40478793          	add	a5,a5,1028 # f8002404 <anon.5b4181c490521b0b2dcd1d17234b79cf.5.llvm.5401255529112474680>
f800200c:	00a78533          	add	a0,a5,a0
f8002010:	00154783          	lbu	a5,1(a0)
f8002014:	00054503          	lbu	a0,0(a0)
f8002018:	00510813          	add	a6,sp,5
f800201c:	00c80833          	add	a6,a6,a2
f8002020:	00f800a3          	sb	a5,1(a6)
f8002024:	00a80023          	sb	a0,0(a6)
f8002028:	00070513          	mv	a0,a4
f800202c:	00a00713          	li	a4,10
f8002030:	00e57e63          	bgeu	a0,a4,f800204c <_ZN4core3fmt3num3imp7fmt_u3217he64669e711a50028E.llvm.13607076540238338396+0x140>
f8002034:	fff60613          	add	a2,a2,-1
f8002038:	00510713          	add	a4,sp,5
f800203c:	00c70733          	add	a4,a4,a2
f8002040:	03056513          	or	a0,a0,48
f8002044:	00a70023          	sb	a0,0(a4)
f8002048:	0300006f          	j	f8002078 <_ZN4core3fmt3num3imp7fmt_u3217he64669e711a50028E.llvm.13607076540238338396+0x16c>
f800204c:	00151513          	sll	a0,a0,0x1
f8002050:	ffe60613          	add	a2,a2,-2
f8002054:	f8002737          	lui	a4,0xf8002
f8002058:	40470713          	add	a4,a4,1028 # f8002404 <anon.5b4181c490521b0b2dcd1d17234b79cf.5.llvm.5401255529112474680>
f800205c:	00a70533          	add	a0,a4,a0
f8002060:	00154703          	lbu	a4,1(a0)
f8002064:	00054503          	lbu	a0,0(a0)
f8002068:	00510793          	add	a5,sp,5
f800206c:	00c787b3          	add	a5,a5,a2
f8002070:	00e780a3          	sb	a4,1(a5)
f8002074:	00a78023          	sb	a0,0(a5)
f8002078:	00510713          	add	a4,sp,5
f800207c:	00c70733          	add	a4,a4,a2
f8002080:	02700793          	li	a5,39
f8002084:	40c787b3          	sub	a5,a5,a2
f8002088:	00100613          	li	a2,1
f800208c:	00068513          	mv	a0,a3
f8002090:	00000693          	li	a3,0
f8002094:	fffff097          	auipc	ra,0xfffff
f8002098:	4c4080e7          	jalr	1220(ra) # f8001558 <_ZN4core3fmt9Formatter12pad_integral17h014b911613ce7cefE>
f800209c:	02c12083          	lw	ra,44(sp)
f80020a0:	03010113          	add	sp,sp,48
f80020a4:	00008067          	ret

f80020a8 <_ZN4core3fmt3num3imp52_$LT$impl$u20$core..fmt..Display$u20$for$u20$i32$GT$3fmt17h300d7f916ccb12a3E>:
f80020a8:	00052603          	lw	a2,0(a0)
f80020ac:	41f65513          	sra	a0,a2,0x1f
f80020b0:	00a646b3          	xor	a3,a2,a0
f80020b4:	40a68533          	sub	a0,a3,a0
f80020b8:	fff64613          	not	a2,a2
f80020bc:	01f65613          	srl	a2,a2,0x1f
f80020c0:	00058693          	mv	a3,a1
f80020c4:	00060593          	mv	a1,a2
f80020c8:	00068613          	mv	a2,a3
f80020cc:	00000317          	auipc	t1,0x0
f80020d0:	e4030067          	jr	-448(t1) # f8001f0c <_ZN4core3fmt3num3imp7fmt_u3217he64669e711a50028E.llvm.13607076540238338396>

f80020d4 <_ZN4core3fmt3num3imp52_$LT$impl$u20$core..fmt..Display$u20$for$u20$u32$GT$3fmt17h94cd01ca73d4dde7E>:
f80020d4:	00052503          	lw	a0,0(a0)
f80020d8:	00058613          	mv	a2,a1
f80020dc:	00100593          	li	a1,1
f80020e0:	00000317          	auipc	t1,0x0
f80020e4:	e2c30067          	jr	-468(t1) # f8001f0c <_ZN4core3fmt3num3imp7fmt_u3217he64669e711a50028E.llvm.13607076540238338396>

f80020e8 <_ZN4core5slice5index26slice_start_index_len_fail17ha0e1b66a8afa6e7fE>:
f80020e8:	fd010113          	add	sp,sp,-48
f80020ec:	00a12023          	sw	a0,0(sp)
f80020f0:	00b12223          	sw	a1,4(sp)
f80020f4:	00010513          	mv	a0,sp
f80020f8:	02a12023          	sw	a0,32(sp)
f80020fc:	f8002537          	lui	a0,0xf8002
f8002100:	0d450513          	add	a0,a0,212 # f80020d4 <_ZN4core3fmt3num3imp52_$LT$impl$u20$core..fmt..Display$u20$for$u20$u32$GT$3fmt17h94cd01ca73d4dde7E>
f8002104:	02a12223          	sw	a0,36(sp)
f8002108:	00410593          	add	a1,sp,4
f800210c:	02b12423          	sw	a1,40(sp)
f8002110:	02a12623          	sw	a0,44(sp)
f8002114:	f8002537          	lui	a0,0xf8002
f8002118:	51450513          	add	a0,a0,1300 # f8002514 <.Lanon.a7bcf46920774bb14bd7a59594349f96.67>
f800211c:	00a12423          	sw	a0,8(sp)
f8002120:	00200513          	li	a0,2
f8002124:	00a12623          	sw	a0,12(sp)
f8002128:	00012c23          	sw	zero,24(sp)
f800212c:	02010593          	add	a1,sp,32
f8002130:	00b12823          	sw	a1,16(sp)
f8002134:	00a12a23          	sw	a0,20(sp)
f8002138:	00810513          	add	a0,sp,8
f800213c:	00060593          	mv	a1,a2
f8002140:	00000097          	auipc	ra,0x0
f8002144:	ab8080e7          	jalr	-1352(ra) # f8001bf8 <_ZN4core9panicking9panic_fmt17h94035f4149eaf451E>

f8002148 <memset>:
f8002148:	00000317          	auipc	t1,0x0
f800214c:	00830067          	jr	8(t1) # f8002150 <_ZN17compiler_builtins3mem6memset17ha85cfcfa6b526c2bE>

f8002150 <_ZN17compiler_builtins3mem6memset17ha85cfcfa6b526c2bE>:
f8002150:	01000693          	li	a3,16
f8002154:	04d66e63          	bltu	a2,a3,f80021b0 <_ZN17compiler_builtins3mem6memset17ha85cfcfa6b526c2bE+0x60>
f8002158:	40a006b3          	neg	a3,a0
f800215c:	0036f693          	and	a3,a3,3
f8002160:	00d50733          	add	a4,a0,a3
f8002164:	00068a63          	beqz	a3,f8002178 <_ZN17compiler_builtins3mem6memset17ha85cfcfa6b526c2bE+0x28>
f8002168:	00050793          	mv	a5,a0
f800216c:	00b78023          	sb	a1,0(a5)
f8002170:	00178793          	add	a5,a5,1
f8002174:	fee7ece3          	bltu	a5,a4,f800216c <_ZN17compiler_builtins3mem6memset17ha85cfcfa6b526c2bE+0x1c>
f8002178:	40d60633          	sub	a2,a2,a3
f800217c:	ffc67793          	and	a5,a2,-4
f8002180:	00f706b3          	add	a3,a4,a5
f8002184:	02f05063          	blez	a5,f80021a4 <_ZN17compiler_builtins3mem6memset17ha85cfcfa6b526c2bE+0x54>
f8002188:	0ff5f793          	zext.b	a5,a1
f800218c:	01010837          	lui	a6,0x1010
f8002190:	10180813          	add	a6,a6,257 # 1010101 <__rust_no_alloc_shim_is_unstable+0x100d9e0>
f8002194:	030787b3          	mul	a5,a5,a6
f8002198:	00f72023          	sw	a5,0(a4)
f800219c:	00470713          	add	a4,a4,4
f80021a0:	fed76ce3          	bltu	a4,a3,f8002198 <_ZN17compiler_builtins3mem6memset17ha85cfcfa6b526c2bE+0x48>
f80021a4:	00367613          	and	a2,a2,3
f80021a8:	00061863          	bnez	a2,f80021b8 <_ZN17compiler_builtins3mem6memset17ha85cfcfa6b526c2bE+0x68>
f80021ac:	01c0006f          	j	f80021c8 <_ZN17compiler_builtins3mem6memset17ha85cfcfa6b526c2bE+0x78>
f80021b0:	00050693          	mv	a3,a0
f80021b4:	00060a63          	beqz	a2,f80021c8 <_ZN17compiler_builtins3mem6memset17ha85cfcfa6b526c2bE+0x78>
f80021b8:	00c68633          	add	a2,a3,a2
f80021bc:	00b68023          	sb	a1,0(a3)
f80021c0:	00168693          	add	a3,a3,1
f80021c4:	fec6ece3          	bltu	a3,a2,f80021bc <_ZN17compiler_builtins3mem6memset17ha85cfcfa6b526c2bE+0x6c>
f80021c8:	00008067          	ret
f80021cc:	0100                	.2byte	0x100
f80021ce:	021c                	.2byte	0x21c
f80021d0:	0e1d                	.2byte	0xe1d
f80021d2:	0318                	.2byte	0x318
f80021d4:	161e                	.2byte	0x161e
f80021d6:	0f14                	.2byte	0xf14
f80021d8:	1119                	.2byte	0x1119
f80021da:	0804                	.2byte	0x804
f80021dc:	1b1f 170d 1315      	.byte	0x1f, 0x1b, 0x0d, 0x17, 0x15, 0x13
f80021e2:	0710                	.2byte	0x710
f80021e4:	0c1a                	.2byte	0xc1a
f80021e6:	0612                	.2byte	0x612
f80021e8:	090a050b          	.4byte	0x90a050b

f80021ec <.Lanon.f5f270e712b74926b98f069c093e4b8d.0>:
f80021ec:	2928                	.2byte	0x2928
	...

f80021f0 <.Lanon.f5f270e712b74926b98f069c093e4b8d.1>:
	...
f80021f8:	0001                	.2byte	0x1
f80021fa:	0000                	.2byte	0x0
f80021fc:	0fa8                	.2byte	0xfa8
f80021fe:	f800                	.2byte	0xf800
f8002200:	00bc                	.2byte	0xbc
f8002202:	f800                	.2byte	0xf800
f8002204:	0194                	.2byte	0x194
f8002206:	f800                	.2byte	0xf800

f8002208 <.Lanon.f5f270e712b74926b98f069c093e4b8d.2>:
f8002208:	6548                	.2byte	0x6548
f800220a:	6c6c                	.2byte	0x6c6c
f800220c:	77202c6f          	jal	s8,f800497e <_etext+0x245a>
f8002210:	646c726f          	jal	tp,f80c9856 <_etext+0xc7332>
f8002214:	                	.2byte	0x7421

f8002215 <.Lanon.f5f270e712b74926b98f069c093e4b8d.3>:
f8002215:	6574                	.2byte	0x6574
f8002217:	203a7473          	.4byte	0x203a7473
	...

f800221c <.Lanon.f5f270e712b74926b98f069c093e4b8d.4>:
f800221c:	2215                	.2byte	0x2215
f800221e:	f800                	.2byte	0xf800
f8002220:	0006                	.2byte	0x6
	...

f8002224 <.Lanon.f5f270e712b74926b98f069c093e4b8d.5>:
	...
f800222c:	0001                	.2byte	0x1
f800222e:	0000                	.2byte	0x0
f8002230:	00a0                	.2byte	0xa0
f8002232:	f800                	.2byte	0xf800

f8002234 <.Lanon.f5f270e712b74926b98f069c093e4b8d.6>:
f8002234:	6c6c6163          	bltu	s8,t1,f80028f6 <_etext+0x3d2>
f8002238:	6465                	.2byte	0x6465
f800223a:	6020                	.2byte	0x6020
f800223c:	6552                	.2byte	0x6552
f800223e:	746c7573          	.4byte	0x746c7573
f8002242:	3a3a                	.2byte	0x3a3a
f8002244:	6e75                	.2byte	0x6e75
f8002246:	70617277          	.4byte	0x70617277
f800224a:	2928                	.2byte	0x2928
f800224c:	2060                	.2byte	0x2060
f800224e:	61206e6f          	jal	t3,f8008860 <_etext+0x633c>
f8002252:	206e                	.2byte	0x206e
f8002254:	4560                	.2byte	0x4560
f8002256:	7272                	.2byte	0x7272
f8002258:	2060                	.2byte	0x2060
f800225a:	6176                	.2byte	0x6176
f800225c:	756c                	.2byte	0x756c
f800225e:	                	.2byte	0x7365

f800225f <.Lanon.f5f270e712b74926b98f069c093e4b8d.7>:
f800225f:	2f637273          	.4byte	0x2f637273
f8002263:	616d                	.2byte	0x616d
f8002265:	6e69                	.2byte	0x6e69
f8002267:	722e                	.2byte	0x722e
f8002269:	          	.4byte	0x5f000073

f800226c <.Lanon.f5f270e712b74926b98f069c093e4b8d.8>:
f800226c:	225f f800 000b      	.byte	0x5f, 0x22, 0x00, 0xf8, 0x0b, 0x00
f8002272:	0000                	.2byte	0x0
f8002274:	0000001b          	.4byte	0x1b
f8002278:	0046                	.2byte	0x46
	...

f800227c <.Lanon.5ae1b5b85aba88e30b745cf423597d9e.0>:
	...
f8002284:	0001                	.2byte	0x1
f8002286:	0000                	.2byte	0x0
f8002288:	0fa8                	.2byte	0xfa8
f800228a:	f800                	.2byte	0xf800
f800228c:	0e74                	.2byte	0xe74
f800228e:	f800                	.2byte	0xf800
f8002290:	0ec0                	.2byte	0xec0
f8002292:	f800                	.2byte	0xf800

f8002294 <.Lanon.5ae1b5b85aba88e30b745cf423597d9e.4>:
f8002294:	4150                	.2byte	0x4150
f8002296:	494e                	.2byte	0x494e
f8002298:	          	.4byte	0x3a203a43

f800229b <.Lanon.5ae1b5b85aba88e30b745cf423597d9e.5>:
f800229b:	                	.2byte	0x943a

f800229c <.Lanon.5ae1b5b85aba88e30b745cf423597d9e.6>:
f800229c:	2294                	.2byte	0x2294
f800229e:	f800                	.2byte	0xf800
f80022a0:	00000007          	.4byte	0x7
f80022a4:	f800229b          	.4byte	0xf800229b
f80022a8:	0001                	.2byte	0x1
f80022aa:	0000                	.2byte	0x0
f80022ac:	f800229b          	.4byte	0xf800229b
f80022b0:	0001                	.2byte	0x1
f80022b2:	0000                	.2byte	0x0
f80022b4:	f800229b          	.4byte	0xf800229b
f80022b8:	0001                	.2byte	0x1
f80022ba:	0000                	.2byte	0x0
f80022bc:	0001                	.2byte	0x1
f80022be:	0000                	.2byte	0x0
f80022c0:	0000                	.2byte	0x0
	...

f80022c4 <.Lanon.442fa70296cb6d3d309755105c39fec7.0>:
f80022c4:	656d                	.2byte	0x656d
f80022c6:	6f6d                	.2byte	0x6f6d
f80022c8:	7972                	.2byte	0x7972
f80022ca:	6120                	.2byte	0x6120
f80022cc:	6c6c                	.2byte	0x6c6c
f80022ce:	7461636f          	jal	t1,f8018a14 <_etext+0x164f0>
f80022d2:	6f69                	.2byte	0x6f69
f80022d4:	206e                	.2byte	0x206e
f80022d6:	          	jal	a2,f80084d8 <_etext+0x5fb4>

f80022d9 <.Lanon.442fa70296cb6d3d309755105c39fec7.1>:
f80022d9:	6220                	.2byte	0x6220
f80022db:	7479                	.2byte	0x7479
f80022dd:	7365                	.2byte	0x7365
f80022df:	6620                	.2byte	0x6620
f80022e1:	6961                	.2byte	0x6961
f80022e3:	656c                	.2byte	0x656c
f80022e5:	0064                	.2byte	0x64
	...

f80022e8 <.Lanon.442fa70296cb6d3d309755105c39fec7.2>:
f80022e8:	22c4                	.2byte	0x22c4
f80022ea:	f800                	.2byte	0xf800
f80022ec:	0015                	.2byte	0x15
f80022ee:	0000                	.2byte	0x0
f80022f0:	22d9                	.2byte	0x22d9
f80022f2:	f800                	.2byte	0xf800
f80022f4:	000d                	.2byte	0xd
	...

f80022f8 <.Lanon.442fa70296cb6d3d309755105c39fec7.3>:
f80022f8:	6573552f          	.4byte	0x6573552f
f80022fc:	7372                	.2byte	0x7372
f80022fe:	61696c2f          	.4byte	0x61696c2f
f8002302:	2f6d                	.2byte	0x2f6d
f8002304:	722e                	.2byte	0x722e
f8002306:	7375                	.2byte	0x7375
f8002308:	7574                	.2byte	0x7574
f800230a:	2f70                	.2byte	0x2f70
f800230c:	6f74                	.2byte	0x6f74
f800230e:	68636c6f          	jal	s8,f8038994 <_etext+0x36470>
f8002312:	6961                	.2byte	0x6961
f8002314:	736e                	.2byte	0x736e
f8002316:	67696e2f          	.4byte	0x67696e2f
f800231a:	7468                	.2byte	0x7468
f800231c:	796c                	.2byte	0x796c
f800231e:	612d                	.2byte	0x612d
f8002320:	7261                	.2byte	0x7261
f8002322:	34366863          	bltu	a2,gp,f8002672 <_etext+0x14e>
f8002326:	612d                	.2byte	0x612d
f8002328:	7070                	.2byte	0x7070
f800232a:	656c                	.2byte	0x656c
f800232c:	642d                	.2byte	0x642d
f800232e:	7261                	.2byte	0x7261
f8002330:	2f6e6977          	.4byte	0x2f6e6977
f8002334:	696c                	.2byte	0x696c
f8002336:	2f62                	.2byte	0x2f62
f8002338:	7572                	.2byte	0x7572
f800233a:	696c7473          	.4byte	0x696c7473
f800233e:	2f62                	.2byte	0x2f62
f8002340:	2f637273          	.4byte	0x2f637273
f8002344:	7572                	.2byte	0x7572
f8002346:	6c2f7473          	.4byte	0x6c2f7473
f800234a:	6269                	.2byte	0x6269
f800234c:	6172                	.2byte	0x6172
f800234e:	7972                	.2byte	0x7972
f8002350:	6c6c612f          	.4byte	0x6c6c612f
f8002354:	732f636f          	jal	t1,f80f8a86 <_etext+0xf6562>
f8002358:	6372                	.2byte	0x6372
f800235a:	6c6c612f          	.4byte	0x6c6c612f
f800235e:	722e636f          	jal	t1,f80e8a80 <_etext+0xe655c>
f8002362:	          	.4byte	0x22f80073

f8002364 <.Lanon.442fa70296cb6d3d309755105c39fec7.4>:
f8002364:	22f8                	.2byte	0x22f8
f8002366:	f800                	.2byte	0xf800
f8002368:	0000006b          	.4byte	0x6b
f800236c:	01a4                	.2byte	0x1a4
f800236e:	0000                	.2byte	0x0
f8002370:	000d                	.2byte	0xd
	...

f8002374 <.Lanon.442fa70296cb6d3d309755105c39fec7.5>:
f8002374:	22f8                	.2byte	0x22f8
f8002376:	f800                	.2byte	0xf800
f8002378:	0000006b          	.4byte	0x6b
f800237c:	01a2                	.2byte	0x1a2
f800237e:	0000                	.2byte	0x0
f8002380:	000d                	.2byte	0xd
	...

f8002384 <anon.5b4181c490521b0b2dcd1d17234b79cf.0.llvm.5401255529112474680>:
f8002384:	6573552f          	.4byte	0x6573552f
f8002388:	7372                	.2byte	0x7372
f800238a:	61696c2f          	.4byte	0x61696c2f
f800238e:	2f6d                	.2byte	0x2f6d
f8002390:	722e                	.2byte	0x722e
f8002392:	7375                	.2byte	0x7375
f8002394:	7574                	.2byte	0x7574
f8002396:	2f70                	.2byte	0x2f70
f8002398:	6f74                	.2byte	0x6f74
f800239a:	68636c6f          	jal	s8,f8038a20 <_etext+0x364fc>
f800239e:	6961                	.2byte	0x6961
f80023a0:	736e                	.2byte	0x736e
f80023a2:	67696e2f          	.4byte	0x67696e2f
f80023a6:	7468                	.2byte	0x7468
f80023a8:	796c                	.2byte	0x796c
f80023aa:	612d                	.2byte	0x612d
f80023ac:	7261                	.2byte	0x7261
f80023ae:	34366863          	bltu	a2,gp,f80026fe <_etext+0x1da>
f80023b2:	612d                	.2byte	0x612d
f80023b4:	7070                	.2byte	0x7070
f80023b6:	656c                	.2byte	0x656c
f80023b8:	642d                	.2byte	0x642d
f80023ba:	7261                	.2byte	0x7261
f80023bc:	2f6e6977          	.4byte	0x2f6e6977
f80023c0:	696c                	.2byte	0x696c
f80023c2:	2f62                	.2byte	0x2f62
f80023c4:	7572                	.2byte	0x7572
f80023c6:	696c7473          	.4byte	0x696c7473
f80023ca:	2f62                	.2byte	0x2f62
f80023cc:	2f637273          	.4byte	0x2f637273
f80023d0:	7572                	.2byte	0x7572
f80023d2:	6c2f7473          	.4byte	0x6c2f7473
f80023d6:	6269                	.2byte	0x6269
f80023d8:	6172                	.2byte	0x6172
f80023da:	7972                	.2byte	0x7972
f80023dc:	726f632f          	.4byte	0x726f632f
f80023e0:	2f65                	.2byte	0x2f65
f80023e2:	2f637273          	.4byte	0x2f637273
f80023e6:	6d66                	.2byte	0x6d66
f80023e8:	2f74                	.2byte	0x2f74
f80023ea:	756e                	.2byte	0x756e
f80023ec:	2e6d                	.2byte	0x2e6d
f80023ee:	7372                	.2byte	0x7372

f80023f0 <anon.5b4181c490521b0b2dcd1d17234b79cf.1.llvm.5401255529112474680>:
f80023f0:	7830                	.2byte	0x7830
	...

f80023f4 <anon.5b4181c490521b0b2dcd1d17234b79cf.2.llvm.5401255529112474680>:
f80023f4:	2384                	.2byte	0x2384
f80023f6:	f800                	.2byte	0xf800
f80023f8:	006c                	.2byte	0x6c
f80023fa:	0000                	.2byte	0x0
f80023fc:	0069                	.2byte	0x69
f80023fe:	0000                	.2byte	0x0
f8002400:	00000017          	auipc	zero,0x0

f8002404 <anon.5b4181c490521b0b2dcd1d17234b79cf.5.llvm.5401255529112474680>:
f8002404:	3030                	.2byte	0x3030
f8002406:	3130                	.2byte	0x3130
f8002408:	3230                	.2byte	0x3230
f800240a:	3330                	.2byte	0x3330
f800240c:	3430                	.2byte	0x3430
f800240e:	3530                	.2byte	0x3530
f8002410:	3630                	.2byte	0x3630
f8002412:	3730                	.2byte	0x3730
f8002414:	3830                	.2byte	0x3830
f8002416:	3930                	.2byte	0x3930
f8002418:	3031                	.2byte	0x3031
f800241a:	3131                	.2byte	0x3131
f800241c:	3231                	.2byte	0x3231
f800241e:	3331                	.2byte	0x3331
f8002420:	3431                	.2byte	0x3431
f8002422:	3531                	.2byte	0x3531
f8002424:	3631                	.2byte	0x3631
f8002426:	3731                	.2byte	0x3731
f8002428:	3831                	.2byte	0x3831
f800242a:	3931                	.2byte	0x3931
f800242c:	3032                	.2byte	0x3032
f800242e:	3132                	.2byte	0x3132
f8002430:	3232                	.2byte	0x3232
f8002432:	3332                	.2byte	0x3332
f8002434:	3432                	.2byte	0x3432
f8002436:	3532                	.2byte	0x3532
f8002438:	3632                	.2byte	0x3632
f800243a:	3732                	.2byte	0x3732
f800243c:	3832                	.2byte	0x3832
f800243e:	3932                	.2byte	0x3932
f8002440:	31333033          	.4byte	0x31333033
f8002444:	33333233          	.4byte	0x33333233
f8002448:	35333433          	.4byte	0x35333433
f800244c:	37333633          	.4byte	0x37333633
f8002450:	39333833          	.4byte	0x39333833
f8002454:	3034                	.2byte	0x3034
f8002456:	3134                	.2byte	0x3134
f8002458:	3234                	.2byte	0x3234
f800245a:	3334                	.2byte	0x3334
f800245c:	3434                	.2byte	0x3434
f800245e:	3534                	.2byte	0x3534
f8002460:	3634                	.2byte	0x3634
f8002462:	3734                	.2byte	0x3734
f8002464:	3834                	.2byte	0x3834
f8002466:	3934                	.2byte	0x3934
f8002468:	3035                	.2byte	0x3035
f800246a:	3135                	.2byte	0x3135
f800246c:	3235                	.2byte	0x3235
f800246e:	3335                	.2byte	0x3335
f8002470:	3435                	.2byte	0x3435
f8002472:	3535                	.2byte	0x3535
f8002474:	3635                	.2byte	0x3635
f8002476:	3735                	.2byte	0x3735
f8002478:	3835                	.2byte	0x3835
f800247a:	3935                	.2byte	0x3935
f800247c:	3036                	.2byte	0x3036
f800247e:	3136                	.2byte	0x3136
f8002480:	3236                	.2byte	0x3236
f8002482:	3336                	.2byte	0x3336
f8002484:	3436                	.2byte	0x3436
f8002486:	3536                	.2byte	0x3536
f8002488:	3636                	.2byte	0x3636
f800248a:	3736                	.2byte	0x3736
f800248c:	3836                	.2byte	0x3836
f800248e:	3936                	.2byte	0x3936
f8002490:	31373037          	lui	zero,0x31373
f8002494:	33373237          	lui	tp,0x33373
f8002498:	35373437          	lui	s0,0x35373
f800249c:	37373637          	lui	a2,0x37373
f80024a0:	39373837          	lui	a6,0x39373
f80024a4:	3038                	.2byte	0x3038
f80024a6:	3138                	.2byte	0x3138
f80024a8:	3238                	.2byte	0x3238
f80024aa:	3338                	.2byte	0x3338
f80024ac:	3438                	.2byte	0x3438
f80024ae:	3538                	.2byte	0x3538
f80024b0:	3638                	.2byte	0x3638
f80024b2:	3738                	.2byte	0x3738
f80024b4:	3838                	.2byte	0x3838
f80024b6:	3938                	.2byte	0x3938
f80024b8:	3039                	.2byte	0x3039
f80024ba:	3139                	.2byte	0x3139
f80024bc:	3239                	.2byte	0x3239
f80024be:	3339                	.2byte	0x3339
f80024c0:	3439                	.2byte	0x3439
f80024c2:	3539                	.2byte	0x3539
f80024c4:	3639                	.2byte	0x3639
f80024c6:	3739                	.2byte	0x3739
f80024c8:	3839                	.2byte	0x3839
f80024ca:	3939                	.2byte	0x3939

f80024cc <.Lanon.d39f2a4661916b36c21657248c14321a.35>:
f80024cc:	203a                	.2byte	0x203a
	...

f80024d0 <.Lanon.d39f2a4661916b36c21657248c14321a.36>:
f80024d0:	0001                	.2byte	0x1
f80024d2:	0000                	.2byte	0x0
f80024d4:	0000                	.2byte	0x0
f80024d6:	0000                	.2byte	0x0
f80024d8:	24cc                	.2byte	0x24cc
f80024da:	f800                	.2byte	0xf800
f80024dc:	0002                	.2byte	0x2
	...

f80024e0 <.Lanon.a7bcf46920774bb14bd7a59594349f96.65>:
f80024e0:	6172                	.2byte	0x6172
f80024e2:	676e                	.2byte	0x676e
f80024e4:	2065                	.2byte	0x2065
f80024e6:	72617473          	.4byte	0x72617473
f80024ea:	2074                	.2byte	0x2074
f80024ec:	6e69                	.2byte	0x6e69
f80024ee:	6564                	.2byte	0x6564
f80024f0:	2078                	.2byte	0x2078

f80024f2 <.Lanon.a7bcf46920774bb14bd7a59594349f96.66>:
f80024f2:	6f20                	.2byte	0x6f20
f80024f4:	7475                	.2byte	0x7475
f80024f6:	6f20                	.2byte	0x6f20
f80024f8:	2066                	.2byte	0x2066
f80024fa:	6172                	.2byte	0x6172
f80024fc:	676e                	.2byte	0x676e
f80024fe:	2065                	.2byte	0x2065
f8002500:	6f66                	.2byte	0x6f66
f8002502:	2072                	.2byte	0x2072
f8002504:	63696c73          	.4byte	0x63696c73
f8002508:	2065                	.2byte	0x2065
f800250a:	6c20666f          	jal	a2,f8008bcc <_etext+0x66a8>
f800250e:	6e65                	.2byte	0x6e65
f8002510:	20687467          	.4byte	0x20687467

f8002514 <.Lanon.a7bcf46920774bb14bd7a59594349f96.67>:
f8002514:	24e0                	.2byte	0x24e0
f8002516:	f800                	.2byte	0xf800
f8002518:	0012                	.2byte	0x12
f800251a:	0000                	.2byte	0x0
f800251c:	24f2                	.2byte	0x24f2
f800251e:	f800                	.2byte	0xf800
f8002520:	0022                	.2byte	0x22
	...

Disassembly of section .eh_frame:

f8002524 <.eh_frame>:
f8002524:	0010                	.2byte	0x10
f8002526:	0000                	.2byte	0x0
f8002528:	0000                	.2byte	0x0
f800252a:	0000                	.2byte	0x0
f800252c:	7a01                	.2byte	0x7a01
f800252e:	0052                	.2byte	0x52
f8002530:	7c01                	.2byte	0x7c01
f8002532:	0101                	.2byte	0x101
f8002534:	00020c1b          	.4byte	0x20c1b
f8002538:	0014                	.2byte	0x14
f800253a:	0000                	.2byte	0x0
f800253c:	0018                	.2byte	0x18
f800253e:	0000                	.2byte	0x0
f8002540:	dac0                	.2byte	0xdac0
f8002542:	ffff                	.2byte	0xffff
f8002544:	00a0                	.2byte	0xa0
f8002546:	0000                	.2byte	0x0
f8002548:	0700                	.2byte	0x700
f800254a:	0701                	.2byte	0x701
f800254c:	00000003          	lb	zero,0(zero) # 0 <_ZN10alloc_sgfx5ARENA17h41baac4af2d57a26E>
f8002550:	0010                	.2byte	0x10
f8002552:	0000                	.2byte	0x0
f8002554:	0030                	.2byte	0x30
f8002556:	0000                	.2byte	0x0
f8002558:	e8b8                	.2byte	0xe8b8
f800255a:	ffff                	.2byte	0xffff
f800255c:	0008                	.2byte	0x8
	...

Disassembly of section .bss:

00000000 <_ZN10alloc_sgfx5ARENA17h41baac4af2d57a26E>:
	...

00002710 <_ZN10alloc_sgfx9ALLOCATOR17h5b9277964cab8dfbE>:
	...

Disassembly of section .sbss:

00002720 <__rust_alloc_error_handler_should_panic>:
	...

00002721 <__rust_no_alloc_shim_is_unstable>:
	...

Disassembly of section .comment:

00000000 <.comment>:
   0:	694c                	.2byte	0x694c
   2:	6b6e                	.2byte	0x6b6e
   4:	7265                	.2byte	0x7265
   6:	203a                	.2byte	0x203a
   8:	4c4c                	.2byte	0x4c4c
   a:	2044                	.2byte	0x2044
   c:	3831                	.2byte	0x3831
   e:	312e                	.2byte	0x312e
  10:	372e                	.2byte	0x372e
  12:	0000                	.2byte	0x0
  14:	7572                	.2byte	0x7572
  16:	20637473          	.4byte	0x20637473
  1a:	6576                	.2byte	0x6576
  1c:	7372                	.2byte	0x7372
  1e:	6f69                	.2byte	0x6f69
  20:	206e                	.2byte	0x206e
  22:	2e31                	.2byte	0x2e31
  24:	3138                	.2byte	0x3138
  26:	302e                	.2byte	0x302e
  28:	6e2d                	.2byte	0x6e2d
  2a:	6769                	.2byte	0x6769
  2c:	7468                	.2byte	0x7468
  2e:	796c                	.2byte	0x796c
  30:	2820                	.2byte	0x2820
  32:	3039                	.2byte	0x3039
  34:	3735                	.2byte	0x3735
  36:	66663363          	.4byte	0x66663363
  3a:	2065                	.2byte	0x2065
  3c:	3032                	.2byte	0x3032
  3e:	3432                	.2byte	0x3432
  40:	302d                	.2byte	0x302d
  42:	39312d37          	lui	s10,0x39312
  46:	0029                	.2byte	0x29

Disassembly of section .riscv.attributes:

00000000 <.riscv.attributes>:
   0:	2541                	.2byte	0x2541
   2:	0000                	.2byte	0x0
   4:	7200                	.2byte	0x7200
   6:	7369                	.2byte	0x7369
   8:	01007663          	bgeu	zero,a6,14 <_ZN10alloc_sgfx5ARENA17h41baac4af2d57a26E+0x14>
   c:	0000001b          	.4byte	0x1b
  10:	1004                	.2byte	0x1004
  12:	7205                	.2byte	0x7205
  14:	3376                	.2byte	0x3376
  16:	6932                	.2byte	0x6932
  18:	7032                	.2byte	0x7032
  1a:	5f31                	.2byte	0x5f31
  1c:	326d                	.2byte	0x326d
  1e:	3070                	.2byte	0x3070
  20:	615f 7032 0031      	.byte	0x5f, 0x61, 0x32, 0x70, 0x31, 0x00
